 Rttdll

 Timestamp is 59adc7b2 (Mon Sep  4 17:37:54 2017)

 Preferred load address is 10000000

 Start         Length     Name                   Class
 0001:00000000 0004eef0H .text                   CODE
 0001:0004eef0 0000fa24H .text$mn                CODE
 0002:00000000 00000004H .00cfg                  DATA
 0002:00000004 00000004H .CRT$XCA                DATA
 0002:00000008 00000004H .CRT$XCZ                DATA
 0002:0000000c 00000004H .CRT$XIA                DATA
 0002:00000010 0000000cH .CRT$XIC                DATA
 0002:0000001c 00000004H .CRT$XIZ                DATA
 0002:00000020 00000004H .CRT$XPA                DATA
 0002:00000024 00000008H .CRT$XPX                DATA
 0002:0000002c 00000004H .CRT$XPXA               DATA
 0002:00000030 00000004H .CRT$XPZ                DATA
 0002:00000034 00000004H .CRT$XTA                DATA
 0002:00000038 00000008H .CRT$XTZ                DATA
 0002:00000040 0000a3ecH .rdata                  DATA
 0002:0000a42c 00000000H .rdata$r                DATA
 0002:0000a42c 000001e4H .rdata$zzzdbg           DATA
 0002:0000a610 00000004H .rtc$IAA                DATA
 0002:0000a614 00000004H .rtc$IZZ                DATA
 0002:0000a618 00000004H .rtc$TAA                DATA
 0002:0000a61c 00000004H .rtc$TZZ                DATA
 0002:0000a620 000003e0H .xdata$x                DATA
 0002:0000aa00 00000643H .edata                  DATA
 0003:00000000 0000aea0H .data                   DATA
 0003:0000ae90 00000000H .data$r                 DATA
 0003:0000aea0 00027640H .bss                    DATA
 0004:00000000 000000a4H .gfids$y                DATA

  Address         Publics by Value              Rva+Base       Lib:Object

 0000:00000000       ___guard_longjmp_count     00000000     <absolute>
 0000:00000000       ___guard_fids_count        00000000     <absolute>
 0000:00000000       __except_list              00000000     <absolute>
 0000:00000000       ___guard_longjmp_table     00000000     <absolute>
 0000:00000000       ___guard_iat_table         00000000     <absolute>
 0000:00000000       ___guard_iat_count         00000000     <absolute>
 0000:00000000       ___safe_se_handler_table   00000000     <absolute>
 0000:00000000       ___dynamic_value_reloc_table 00000000     <absolute>
 0000:00000000       ___guard_fids_table        00000000     <absolute>
 0000:00000000       ___safe_se_handler_count   00000000     <absolute>
 0000:00000100       ___guard_flags             00000100     <absolute>
 0000:00000000       ___ImageBase               10000000     <linker-defined>
 0001:00000000       __rtuParsePipeHandle       10001000 f   Rtusb:Rtusb.obj
 0001:00000050       _RTUErrorMessage           10001050 f   Rtusb:Rtusb.obj
 0001:00000080       _RTUGetDevice              10001080 f   Rtusb:Rtusb.obj
 0001:00000090       _RTUDeviceSpeed            10001090 f   Rtusb:Rtusb.obj
 0001:000000a0       _RTUAltInterfaces          100010a0 f   Rtusb:Rtusb.obj
 0001:000000d0       _RTUGetDescriptor          100010d0 f   Rtusb:Rtusb.obj
 0001:00000120       _RTUGetConfiguration       10001120 f   Rtusb:Rtusb.obj
 0001:00000150       _RTUGetInterface           10001150 f   Rtusb:Rtusb.obj
 0001:00000170       _RTUGetEndpoint            10001170 f   Rtusb:Rtusb.obj
 0001:000001d0       _RTUEndpointDirection      100011d0 f   Rtusb:Rtusb.obj
 0001:00000200       _RTUEndpointType           10001200 f   Rtusb:Rtusb.obj
 0001:00000210       _RTUEndpointPacketSize     10001210 f   Rtusb:Rtusb.obj
 0001:00000230       _RTUEndpointInterval       10001230 f   Rtusb:Rtusb.obj
 0001:00000270       _RTUFindEndpoint           10001270 f   Rtusb:Rtusb.obj
 0001:000002d0       _RTUFindInterface          100012d0 f   Rtusb:Rtusb.obj
 0001:000003b0       _RTUSuspendHubs            100013b0 f   Rtusb:Rtusb.obj
 0001:000003e0       _RTUClaimInterface         100013e0 f   Rtusb:Rtusb.obj
 0001:000006f0       _RTUSetClientData          100016f0 f   Rtusb:Rtusb.obj
 0001:00000760       _RTUGetClientData          10001760 f   Rtusb:Rtusb.obj
 0001:000007d0       _RTUOpenPipe               100017d0 f   Rtusb:Rtusb.obj
 0001:00000a00       _RTUSetPipeMsgQ            10001a00 f   Rtusb:Rtusb.obj
 0001:00000a80       _RTUSetPipeOption          10001a80 f   Rtusb:Rtusb.obj
 0001:00000c00       _RTUClosePipe              10001c00 f   Rtusb:Rtusb.obj
 0001:00000df0       _RTUStartIO                10001df0 f   Rtusb:Rtusb.obj
 0001:00000f70       _RTUIOWait                 10001f70 f   Rtusb:Rtusb.obj
 0001:00001050       _RTUIOWaitTimed            10002050 f   Rtusb:Rtusb.obj
 0001:00001130       _RTUSendSetup              10002130 f   Rtusb:Rtusb.obj
 0001:000012b0       _RTUCancelIO               100022b0 f   Rtusb:Rtusb.obj
 0001:000012f0       _RTUDeviceOfPipe           100022f0 f   Rtusb:Rtusb.obj
 0001:00001320       _RTUResetDevice            10002320 f   Rtusb:Rtusb.obj
 0001:00001370       _RTURegisterCallback       10002370 f   Rtusb:Rtusb.obj
 0001:000013c0       __rtuRegisterHCI           100023c0 f   Rtusb:Rtusb.obj
 0001:00001510       _RTUShutDown               10002510 f   Rtusb:Rtusb.obj
 0001:00001540       __rtuSetUHCIRootPollHandler 10002540 f   Rtusb:Rtusb.obj
 0001:00001550       _RTUWaitInitialEnumDone    10002550 f   Rtusb:Rtusb.obj
 0001:00002830       _USBSetKeyboardLEDs        10003830 f   Rtusb:Usbkb.obj
 0001:00002870       _USBKeyboard               10003870 f   Rtusb:Usbkb.obj
 0001:00002f10       _USBDiskMountDevice        10003f10 f   Rtusb:Usbdisk.obj
 0001:000037f0       _USBDiskReadSectors        100047f0 f   Rtusb:Usbdisk.obj
 0001:00003a30       _USBDiskWriteSectors       10004a30 f   Rtusb:Usbdisk.obj
 0001:00003a60       _USBDiskMediaChanged       10004a60 f   Rtusb:Usbdisk.obj
 0001:00003aa0       _USBDiskGetSize            10004aa0 f   Rtusb:Usbdisk.obj
 0001:00003af0       _USBDiskSCSICommand        10004af0 f   Rtusb:Usbdisk.obj
 0001:00003b80       _USBDiskInitDevice         10004b80 f   Rtusb:Usbdisk.obj
 0001:00003d20       _USBDisk                   10004d20 f   Rtusb:Usbdisk.obj
 0001:00003e70       _RTURegisterXHCI           10004e70 f   Rtusb:Xhci.obj
 0001:00006380       _RTURegisterEHCI           10007380 f   Rtusb:Ehci.obj
 0001:00008810       _RTURegisterUHCI           10009810 f   Rtusb:Uhci.obj
 0001:0000a640       _RTURegisterOHCI           1000b640 f   Rtusb:Ohci.obj
 0001:0000c3a0       __rtuPhysAddr              1000d3a0 f   Rtusb:Usbutil.obj
 0001:0000c3e0       __rtuVirtAddr              1000d3e0 f   Rtusb:Usbutil.obj
 0001:0000c420       __rtuSizeLn2               1000d420 f   Rtusb:Usbutil.obj
 0001:0000c4c0       __rtuMallocPhysMemAligned  1000d4c0 f   Rtusb:Usbutil.obj
 0001:0000c630       __rtuFreePhysMemAligned    1000d630 f   Rtusb:Usbutil.obj
 0001:0000c690       __rtuAddBuffers            1000d690 f   Rtusb:Usbutil.obj
 0001:0000c6c0       __rtuDeleteBuffers         1000d6c0 f   Rtusb:Usbutil.obj
 0001:0000c6f0       __rtuGetBuffer             1000d6f0 f   Rtusb:Usbutil.obj
 0001:0000c750       _RTUFreeBuffer             1000d750 f   Rtusb:Usbutil.obj
 0001:0000c790       __rtuInitAddr              1000d790 f   Rtusb:Usbutil.obj
 0001:0000c7d0       __rtuIncAddr               1000d7d0 f   Rtusb:Usbutil.obj
 0001:0000c810       __rtuVirtualString         1000d810 f   Rtusb:Usbutil.obj
 0001:0000c920       _RTUSetMessageHandler      1000d920 f   Rtusb:Usbutil.obj
 0001:0000c930       _RTUDiagMessage            1000d930 f   Rtusb:Usbutil.obj
 0001:0000c950       _RTUSYSMalloc              1000d950 f   Rtusb:Sysurtk32.obj
 0001:0000c9a0       __free_base                1000d9a0 f   Rttheap:Rttheap.obj
 0001:0000c9a0       _RTUSYSFree                1000d9a0 f   Rtusb:Sysurtk32.obj
 0001:0000c9a0       _RTFSYSFree                1000d9a0 f   Rtfsk32:Sysrtk32.obj
 0001:0000c9b0       _RTUSYSErrorExit           1000d9b0 f   Rtusb:Sysurtk32.obj
 0001:0000c9e0       _RTUSYSAllocPage           1000d9e0 f   Rtusb:Sysurtk32.obj
 0001:0000ca30       _RTUSYSGetPhysAddr         1000da30 f   Rtusb:Sysurtk32.obj
 0001:0000ca40       _RTUSYSInstallIntHandler   1000da40 f   Rtusb:Sysurtk32.obj
 0001:0000ca60       _RTUSYSGetTime             1000da60 f   Rtusb:Sysurtk32.obj
 0001:0000ca60       _RTFSYSGetTime             1000da60 f   Rtfsk32:Sysrtk32.obj
 0001:0000ca70       _RTUSYSDelay               1000da70 f   Rtusb:Sysurtk32.obj
 0001:0000cb00       _RTUSYSCreateThread        1000db00 f   Rtusb:Sysurtk32.obj
 0001:0000cb30       _RTUCreateMsgQ             1000db30 f   Rtusb:Sysurtk32.obj
 0001:0000cb50       _RTUMsgQCount              1000db50 f   Rtusb:Sysurtk32.obj
 0001:0000cb60       _RTUDeleteMsgQ             1000db60 f   Rtusb:Sysurtk32.obj
 0001:0000cb70       _RTUPutMsgQ                1000db70 f   Rtusb:Sysurtk32.obj
 0001:0000cba0       _RTUGetMsgQ                1000dba0 f   Rtusb:Sysurtk32.obj
 0001:0000cbc0       _RTUGetMsgQTimed           1000dbc0 f   Rtusb:Sysurtk32.obj
 0001:0000cc00       _RTFSYSDiagMessage         1000dc00 f   Rtfsk32:Sysrtk32.obj
 0001:0000cc00       _RTUSYSDiagMessage         1000dc00 f   Rtusb:Sysurtk32.obj
 0001:0000cc10       _RTUSYSAllocMutex          1000dc10 f   Rtusb:Sysurtk32.obj
 0001:0000cc30       _RTUSYSLockMutex           1000dc30 f   Rtusb:Sysurtk32.obj
 0001:0000cc40       _RTUAllocSpinlock          1000dc40 f   Rtusb:Sysurtk32.obj
 0001:0000cc70       _RTUSYSLockSpinlock        1000dc70 f   Rtusb:Sysurtk32.obj
 0001:0000cc80       _RTUSYSReleaseSpinlock     1000dc80 f   Rtusb:Sysurtk32.obj
 0001:0000cc90       _RTUSYSAtomicInc           1000dc90 f   Rtusb:Sysurtk32.obj
 0001:0000cca0       _RTUSYSAtomicDec           1000dca0 f   Rtusb:Sysurtk32.obj
 0001:0000ccb0       _RTUSYSInsertKeyboardScanCode 1000dcb0 f   Rtusb:Sysurtk32.obj
 0001:0000cd10       _RTUSYSSetKeyboardLanguage 1000dd10 f   Rtusb:Sysurtk32.obj
 0001:0000cdb0       _RTUSYSSWAP16              1000ddb0 f   Rtusb:Sysuswap.obj
 0001:0000cdb8       _RTUSYSSWAP32              1000ddb8 f   Rtusb:Sysuswap.obj
 0001:0000f7e0       _RTUSYSNewDiskDevice       100107e0 f   RtfilesX:Drvusb.obj
 0001:000114b0       _RTFCharToUnicode          100124b0 f   RtfilesX:Rtfiles.obj
 0001:00011630       _RTFUnicodeToChar          10012630 f   RtfilesX:Rtfiles.obj
 0001:00012940       _RTFPartitionSectors       10013940 f   RtfilesX:Rtfiles.obj
 0001:00012960       _RTFPartitionStart         10013960 f   RtfilesX:Rtfiles.obj
 0001:00012980       _RTFDiagMessage            10013980 f   RtfilesX:Rtfiles.obj
 0001:00013690       _RTFExtendedFileSize       10014690 f   RtfilesX:Rtfiles.obj
 0001:00013700       _RTFCreateDir              10014700 f   RtfilesX:Rtfiles.obj
 0001:00015f10       _RTFSetVolumeLabel         10016f10 f   RtfilesX:Rtfiles.obj
 0001:000162e0       _RTFOpen                   100172e0 f   RtfilesX:Rtfiles.obj
 0001:000169a0       _RTFMakeTempFileName       100179a0 f   RtfilesX:Rtfiles.obj
 0001:00016c50       _RTFDelete                 10017c50 f   RtfilesX:Rtfiles.obj
 0001:00016e40       _RTFRename                 10017e40 f   RtfilesX:Rtfiles.obj
 0001:000172d0       _RTFGetAttributes          100182d0 f   RtfilesX:Rtfiles.obj
 0001:00017390       _RTFSetAttributes          10018390 f   RtfilesX:Rtfiles.obj
 0001:000174d0       _RTFExpandName             100184d0 f   RtfilesX:Rtfiles.obj
 0001:00017700       _RTFClose                  10018700 f   RtfilesX:Rtfiles.obj
 0001:00017a70       _RTFSetFileTime            10018a70 f   RtfilesX:Rtfiles.obj
 0001:00017b30       _RTFGetFileInfoEx          10018b30 f   RtfilesX:Rtfiles.obj
 0001:00017e10       _RTFMakeFileName           10018e10 f   RtfilesX:Rtfiles.obj
 0001:00017e40       _RTFRead                   10018e40 f   RtfilesX:Rtfiles.obj
 0001:000186e0       _RTFWrite                  100196e0 f   RtfilesX:Rtfiles.obj
 0001:00018e20       _RTFCommit                 10019e20 f   RtfilesX:Rtfiles.obj
 0001:00018eb0       _RTFTruncate               10019eb0 f   RtfilesX:Rtfiles.obj
 0001:00019120       _RTFSeekEx                 1001a120 f   RtfilesX:Rtfiles.obj
 0001:000195f0       _RTFExtendEx               1001a5f0 f   RtfilesX:Rtfiles.obj
 0001:00019920       _RTFExtend                 1001a920 f   RtfilesX:Rtfiles.obj
 0001:00019950       _RTFFindClose              1001a950 f   RtfilesX:Rtfiles.obj
 0001:00019960       _RTFFindNextEx             1001a960 f   RtfilesX:Rtfiles.obj
 0001:00019e00       _RTFFindFirstEx            1001ae00 f   RtfilesX:Rtfiles.obj
 0001:0001a050       _RTFGetDiskInfoEx          1001b050 f   RtfilesX:Rtfiles.obj
 0001:0001a370       _RTFGetDeviceIndex         1001b370 f   RtfilesX:Rtfiles.obj
 0001:0001a4f0       _RTFDeviceIoControl        1001b4f0 f   RtfilesX:Rtfiles.obj
 0001:0001a580       _RTFGetCurrentDir          1001b580 f   RtfilesX:Rtfiles.obj
 0001:0001a680       _RTFSetCurrentDir          1001b680 f   RtfilesX:Rtfiles.obj
 0001:0001a7a0       _RTFRemoveDir              1001b7a0 f   RtfilesX:Rtfiles.obj
 0001:0001aa10       _RTFCloseAll               1001ba10 f   RtfilesX:Rtfiles.obj
 0001:0001aa80       _RTFShutDown               1001ba80 f   RtfilesX:Rtfiles.obj
 0001:0001ab20       _RTFErrorMessage           1001bb20 f   RtfilesX:Rtfiles.obj
 0001:0001df90       @_XRaiseException@4        1001ef90 f   RtfilesX:Rtfex.obj
 0001:0001e020       @_XReExecute@0             1001f020 f   RtfilesX:Rtfex.obj
 0001:0001e050       @_XInitBlock@4             1001f050 f   RtfilesX:Rtfex.obj
 0001:0001e090       @_XHandled@4               1001f090 f   RtfilesX:Rtfex.obj
 0001:0001e0a0       @_XCloseBlock@4            1001f0a0 f   RtfilesX:Rtfex.obj
 0001:0001e100       @_XCloseBlockCanReturn@4   1001f100 f   RtfilesX:Rtfex.obj
 0001:0001e160       @_XCloseBlockNoPropagate@4 1001f160 f   RtfilesX:Rtfex.obj
 0001:0001e1b0       _rtfSaveContext            1001f1b0 f   RtfilesX:Rtfex32.obj
 0001:0001e1b0       __rtfSaveContext@4         1001f1b0     RtfilesX:Rtfex32.obj
 0001:0001e1c7       __rtfRestoreContext@8      1001f1c7     RtfilesX:Rtfex32.obj
 0001:0001e1c7       _rtfRestoreContext         1001f1c7 f   RtfilesX:Rtfex32.obj
 0001:0001e1e0       _RTInSW                    1001f1e0 f   RtfilesX:Portio32.obj
 0001:0001e1f6       _RTInSD                    1001f1f6 f   RtfilesX:Portio32.obj
 0001:0001e20c       _RTOutSW                   1001f20c f   RtfilesX:Portio32.obj
 0001:0001e222       _RTOutSD                   1001f222 f   RtfilesX:Portio32.obj
 0001:0001e238       __rtfLock                  1001f238 f   RtfilesX:Lock32.obj
 0001:0001e290       _RTFSYSGetDateTime         1001f290 f   Rtfsk32:Sysrtk32.obj
 0001:0001e300       _RTFSYSAllocMutex          1001f300 f   Rtfsk32:Sysrtk32.obj
 0001:0001e320       _RTFSYSLockMutex           1001f320 f   Rtfsk32:Sysrtk32.obj
 0001:0001e340       _RTFSYSSignalSemaphore     1001f340 f   Rtfsk32:Sysrtk32.obj
 0001:0001e340       _RTFSYSFreeMutex           1001f340 f   Rtfsk32:Sysrtk32.obj
 0001:0001e340       _RTUSYSFreeMutex           1001f340 f   Rtusb:Sysurtk32.obj
 0001:0001e350       _RTFSYSAllocSemaphore      1001f350 f   Rtfsk32:Sysrtk32.obj
 0001:0001e370       _RTFSYSWaitSemaphore       1001f370 f   Rtfsk32:Sysrtk32.obj
 0001:0001e3d0       _RTFSYSInstallIntHandler   1001f3d0 f   Rtfsk32:Sysrtk32.obj
 0001:0001e3f0       _RTFSYSAllocTLS            1001f3f0 f   Rtfsk32:Sysrtk32.obj
 0001:0001e400       _RTFSYSSetTLS              1001f400 f   Rtfsk32:Sysrtk32.obj
 0001:0001e420       _RTFSYSGetTLS              1001f420 f   Rtfsk32:Sysrtk32.obj
 0001:0001e430       _RTFSYSErrorExit           1001f430 f   Rtfsk32:Sysrtk32.obj
 0001:0001e440       _RTFSYSDelay               1001f440 f   Rtfsk32:Sysrtk32.obj
 0001:0001e4b0       _RTFSYSGetDMABuffer        1001f4b0 f   Rtfsk32:Sysrtk32.obj
 0001:0001e540       _RTFSYSMapPhysicalMemory   1001f540 f   Rtfsk32:Sysrtk32.obj
 0001:0001e540       _AcpiOsMapMemory           1001f540 f   Acpica:osontime.obj
 0001:0001e568       EnterCriticalSection       1001f568 f   Rtk32:Csa.obj
 0001:0001e568       _EnterCriticalSection@4    1001f568     Rtk32:Csa.obj
 0001:0001e60e       TryEnterCriticalSection    1001f60e f   Rtk32:Csa.obj
 0001:0001e60e       _TryEnterCriticalSection@4 1001f60e     Rtk32:Csa.obj
 0001:0001e6aa       LeaveCriticalSection       1001f6aa f   Rtk32:Csa.obj
 0001:0001e6aa       _LeaveCriticalSection@4    1001f6aa     Rtk32:Csa.obj
 0001:0001e710       __rtkInsertBefore          1001f710 f   Rtk32:Kernel.obj
 0001:0001e730       __rtkInsertAfter           1001f730 f   Rtk32:Kernel.obj
 0001:0001e750       __rtkGetFirst              1001f750 f   Rtk32:Kernel.obj
 0001:0001e770       __rtkCancel                1001f770 f   Rtk32:Kernel.obj
 0001:0001e790       __rtkFirstNode             1001f790 f   Rtk32:Kernel.obj
 0001:0001e7b0       __rtkNextNode              1001f7b0 f   Rtk32:Kernel.obj
 0001:0001e7d0       __rtkPointerStr            1001f7d0 f   Rtk32:Kernel.obj
 0001:0001e860       __rtkSaveStackPosError     1001f860 f   Rtk32:Kernel.obj
 0001:0001e870       __rtkPopStackPosError      1001f870 f   Rtk32:Kernel.obj
 0001:0001e880       __rtkMakeStackFrame        1001f880 f   Rtk32:Kernel.obj
 0001:0001e8f0       __rtkCodePos               1001f8f0 f   Rtk32:Kernel.obj
 0001:0001e920       _RTKAlloc                  1001f920 f   Rtk32:Kernel.obj
 0001:0001ea30       __rtk_TimeStatistic        1001fa30 f   Rtk32:Kernel.obj
 0001:0001eaf0       _RTKClearStatistic         1001faf0 f   Rtk32:Kernel.obj
 0001:0001eb90       __rtkPutPrimQ              1001fb90 f   Rtk32:Kernel.obj
 0001:0001ebd0       __rtkPutReadyQ             1001fbd0 f   Rtk32:Kernel.obj
 0001:0001ec20       __rtkPutTimeQ              1001fc20 f   Rtk32:Kernel.obj
 0001:0001ec60       __rtkNextReadyTask         1001fc60 f   Rtk32:Kernel.obj
 0001:0001ec90       __rtkBlockCurrentTask      1001fc90 f   Rtk32:Kernel.obj
 0001:0001ee30       __rtkDropPrio              1001fe30 f   Rtk32:Kernel.obj
 0001:0001ef30       __rtkRaisePrio             1001ff30 f   Rtk32:Kernel.obj
 0001:0001efd0       __rtk_CheckReschedule      1001ffd0 f   Rtk32:Kernel.obj
 0001:0001f100       __rtk_IRQCheckReschedule   10020100 f   Rtk32:Kernel.obj
 0001:0001f180       __rtkException             10020180 f   Rtk32:Kernel.obj
 0001:0001f2f0       _RTKFatalError             100202f0 f   Rtk32:Kernel.obj
 0001:0001f3c0       __rtkStackCheck            100203c0 f   Rtk32:Kernel.obj
 0001:0001f450       _RTKStackCheck             10020450 f   Rtk32:Kernel.obj
 0001:0001f460       __rtkSemaException         10020460 f   Rtk32:Kernel.obj
 0001:0001f4f0       __rtkCheckHandle           100204f0 f   Rtk32:Kernel.obj
 0001:0001f520       __rtkCheckSema             10020520 f   Rtk32:Kernel.obj
 0001:0001f550       __rtkCheckMCB              10020550 f   Rtk32:Kernel.obj
 0001:0001f580       __rtkCheckIRQ              10020580 f   Rtk32:Kernel.obj
 0001:0001f5b0       _RTKSetIRQStack            100205b0 f   Rtk32:Kernel.obj
 0001:0001f750       _RTKSetIRQHandler          10020750 f   Rtk32:Kernel.obj
 0001:0001f820       _RTKCallIRQHandlerFar      10020820 f   Rtk32:Kernel.obj
 0001:0001f850       __rtkDeQueue               10020850 f   Rtk32:Kernel.obj
 0001:0001f980       _RTKTerminateTask          10020980 f   Rtk32:Kernel.obj
 0001:0001fb50       _RTKDeallocTerminatedTasks 10020b50 f   Rtk32:Kernel.obj
 0001:0001fbb0       _RTKSetPriority            10020bb0 f   Rtk32:Kernel.obj
 0001:0001fc80       _RTKCreateThread           10020c80 f   Rtk32:Kernel.obj
 0001:00020000       _RTKGetTaskState           10021000 f   Rtk32:Kernel.obj
 0001:00020030       _RTKGetTaskPrio            10021030 f   Rtk32:Kernel.obj
 0001:000200b0       _RTKSetTaskStartStopHook   100210b0 f   Rtk32:Kernel.obj
 0001:000200e0       _RTKGetTime                100210e0 f   Rtk32:Kernel.obj
 0001:000200f0       _RTKDelayUntil             100210f0 f   Rtk32:Kernel.obj
 0001:000201d0       _RTKDelay                  100211d0 f   Rtk32:Kernel.obj
 0001:00020300       _RTKScheduler              10021300 f   Rtk32:Kernel.obj
 0001:00020350       __rtkPreemptionsOFFDbg     10021350 f   Rtk32:Kernel.obj
 0001:00020370       __rtkPreemptionsONDbg      10021370 f   Rtk32:Kernel.obj
 0001:00020380       _RTKPreemptionsON          10021380 f   Rtk32:Kernel.obj
 0001:000203d0       _RTKTimeSlice              100213d0 f   Rtk32:Kernel.obj
 0001:000203e0       _RTKFirstTask              100213e0 f   Rtk32:Kernel.obj
 0001:000203f0       _RTKNextTask               100213f0 f   Rtk32:Kernel.obj
 0001:00020430       _RTKInitialized            10021430 f   Rtk32:Kernel.obj
 0001:00020440       _RTKExit                   10021440 f   Rtk32:Kernel.obj
 0001:00020510       _RTKInstallExitTask        10021510 f   Rtk32:Kernel.obj
 0001:000205a0       __rtk_TimeInterrupts       100215a0 f   Rtk32:Kernel.obj
 0001:000205c0       _RTKernelInit              100215c0 f   Rtk32:Kernel.obj
 0001:00020b00       _CLKTicksToSecsScaled      10021b00 f   Rtk32:Clock.obj
 0001:00020b50       _CLKSecsScaledToTicks      10021b50 f   Rtk32:Clock.obj
 0001:00020ba0       _CLKTicksToMilliSecs       10021ba0 f   Rtk32:Clock.obj
 0001:00020bc0       _CLKTicksToMicroSecs       10021bc0 f   Rtk32:Clock.obj
 0001:00020be0       _CLKSecondsToTicks         10021be0 f   Rtk32:Clock.obj
 0001:00020bf0       _CLKMilliSecsToTicks       10021bf0 f   Rtk32:Clock.obj
 0001:00020c10       _CLKMicroSecsToTicks       10021c10 f   Rtk32:Clock.obj
 0001:00020c30       _CLKSetTimerIntVal         10021c30 f   Rtk32:Clock.obj
 0001:00020c80       _KBInit                    10021c80 f   Rtk32:Rtkeybrd.obj
 0001:00020d00       _inportb                   10021d00     Rtk32:Portio.obj
 0001:00020d00       _RTIn                      10021d00 f   Rtk32:Portio.obj
 0001:00020d00       _inp                       10021d00     Rtk32:Portio.obj
 0001:00020d09       _RTInW                     10021d09 f   Rtk32:Portio.obj
 0001:00020d09       _inpw                      10021d09     Rtk32:Portio.obj
 0001:00020d09       _inportw                   10021d09     Rtk32:Portio.obj
 0001:00020d13       _inportd                   10021d13     Rtk32:Portio.obj
 0001:00020d13       _RTInD                     10021d13 f   Rtk32:Portio.obj
 0001:00020d13       _inpd                      10021d13     Rtk32:Portio.obj
 0001:00020d1a       _outp                      10021d1a     Rtk32:Portio.obj
 0001:00020d1a       _outportb                  10021d1a     Rtk32:Portio.obj
 0001:00020d1a       _RTOut                     10021d1a f   Rtk32:Portio.obj
 0001:00020d26       _RTOutW                    10021d26 f   Rtk32:Portio.obj
 0001:00020d26       _outportw                  10021d26     Rtk32:Portio.obj
 0001:00020d26       _outpw                     10021d26     Rtk32:Portio.obj
 0001:00020d33       _outportd                  10021d33     Rtk32:Portio.obj
 0001:00020d33       _outpd                     10021d33     Rtk32:Portio.obj
 0001:00020d33       _RTOutD                    10021d33 f   Rtk32:Portio.obj
 0001:00020d40       __rtk32SharedIRQHandler    10021d40 f   Rtk32:Shareint.obj
 0001:00020e00       _RTInstallSharedIRQHandler 10021e00 f   Rtk32:Shareint.obj
 0001:00020e20       _RTInstallSharedIRQHandlerEx 10021e20 f   Rtk32:Shareint.obj
 0001:00020ed0       _RTRemoveSharedIRQHandler  10021ed0 f   Rtk32:Shareint.obj
 0001:00020ef0       _RTRemoveSharedIRQHandlerEx 10021ef0 f   Rtk32:Shareint.obj
 0001:00020f40       _FTSetResolution           10021f40 f   Rtk32:Finetime.obj
 0001:00020f70       _FTElapsedSecsScaled       10021f70 f   Rtk32:Finetime.obj
 0001:00020fb0       _FTTimeToSecsScaled        10021fb0 f   Rtk32:Finetime.obj
 0001:00021020       _FTElapsedMicroSecs        10022020 f   Rtk32:Finetime.obj
 0001:00021040       _RTKRTLCreateThread        10022040 f   Rtk32:Rtlthread.obj
 0001:00021120       _RTKCreateMailbox          10022120 f   Rtk32:Mbox.obj
 0001:00021200       _RTKDeleteMailbox          10022200 f   Rtk32:Mbox.obj
 0001:00021310       _RTKMessages               10022310 f   Rtk32:Mbox.obj
 0001:00021400       _RTKGet                    10022400 f   Rtk32:Mbox.obj
 0001:000215a0       _RTKPutCond                100225a0 f   Rtk32:Mbox.obj
 0001:000216d0       _RTKGetUntil               100226d0 f   Rtk32:Mbox.obj
 0001:00021880       _RTKGetTimed               10022880 f   Rtk32:Mbox.obj
 0001:00021ae0       _RTKOpenSemaphore          10022ae0 f   Rtk32:Sema.obj
 0001:00021b60       _RTKDeleteSemaphore        10022b60 f   Rtk32:Sema.obj
 0001:00021c50       _RTKResourceOwner          10022c50 f   Rtk32:Sema.obj
 0001:00021ce0       _RTKSignal                 10022ce0 f   Rtk32:Sema.obj
 0001:00021ee0       _RTKWait                   10022ee0 f   Rtk32:Sema.obj
 0001:00022100       _RTKWaitCond               10023100 f   Rtk32:Sema.obj
 0001:00022240       _RTKWaitUntil              10023240 f   Rtk32:Sema.obj
 0001:000224c0       _RTKWaitTimed              100234c0 f   Rtk32:Sema.obj
 0001:000224e0       _RTKCurrentTaskHandle      100234e0 f   Rtk32:Currt.obj
 0001:000224f0       _RTKAllocUserData          100234f0 f   Rtk32:Userdata.obj
 0001:00022550       _RTKSetUserData            10023550 f   Rtk32:Userdata.obj
 0001:00022600       _RTKGetUserData            10023600 f   Rtk32:Userdata.obj
 0001:000226a0       _RTKGetLocalData           100236a0 f   Rtk32:Userdata.obj
 0001:00022750       _GetCurrentThreadId@0      10023750 f   Rtk32:Rtwin32.obj
 0001:00022760       _CreateThread@24           10023760 f   Rtk32:Rtwin32.obj
 0001:00022c00       _ExitThread@4              10023c00 f   Rtk32:Rtwin32.obj
 0001:00022c50       _GetCurrentThread@0        10023c50 f   Rtk32:Rtwin32.obj
 0001:00022ca0       _Sleep@4                   10023ca0 f   Rtk32:Rtwin32.obj
 0001:00022dc0       _GetTickCount@0            10023dc0 f   Rtk32:Rtwin32.obj
 0001:00022e50       _GetTickCount64@0          10023e50 f   Rtk32:Rtwin32.obj
 0001:00022e60       _ResumeThread@4            10023e60 f   Rtk32:Rtwin32.obj
 0001:00022ec0       _InitializeCriticalSectionAndSpinCount@8 10023ec0 f   Rtk32:Rtwin32.obj
 0001:00022fd0       _InitializeCriticalSection@4 10023fd0 f   Rtk32:Rtwin32.obj
 0001:00022fe0       __rtkInitCriticalSection   10023fe0 f   Rtk32:Rtwin32.obj
 0001:00023020       _DeleteCriticalSection@4   10024020 f   Rtk32:Rtwin32.obj
 0001:00023070       _QueryPerformanceCounter@4 10024070 f   Rtk32:Rtwin32.obj
 0001:00023090       _RTKToWin32Handle          10024090 f   Rtk32:Rtwin32.obj
 0001:00023100       _FTMultiply                10024100 f   Rtk32:Ftm386.obj
 0001:00023123       _FTDivide                  10024123 f   Rtk32:Ftm386.obj
 0001:00023131       _FTShift                   10024131 f   Rtk32:Ftm386.obj
 0001:00023158       _FTSubtract                10024158 f   Rtk32:Ftm386.obj
 0001:00023174       _FTAdd                     10024174 f   Rtk32:Ftm386.obj
 0001:00023190       _FTIntMultDiv              10024190 f   Rtk32:Ftm386.obj
 0001:0002319d       _FTMultDivDouble           1002419d f   Rtk32:Ftm386.obj
 0001:000231dc       _RTKUserTrace              100241dc f   Rtk32:Utrace.obj
 0001:00023250       _RTKSetTraceBufferSize     10024250 f   Rtk32:Rttrace.obj
 0001:00023310       _RTKClearTraceBuffer       10024310 f   Rtk32:Rttrace.obj
 0001:00023380       _RTKStopTracing            10024380 f   Rtk32:Rttrace.obj
 0001:000233a0       _RTKTraceAll               100243a0 f   Rtk32:Rttrace.obj
 0001:000233c0       _RTKReceive                100243c0 f   Rtk32:Rtmp.obj
 0001:00023550       _RTKSendCond               10024550 f   Rtk32:Rtmp.obj
 0001:000236a0       _RTKResume                 100246a0 f   Rtk32:Resume.obj
 0001:00023750       _RTKSuspend                10024750 f   Rtk32:Suspend.obj
 0001:00023840       TimerInterrupt             10024840 f   Clkpc:Clkpct.obj
 0001:00023847       InstallInterrupt           10024847 f   Clkpc:Clkpct.obj
 0001:00023867       RemoveInterrupt            10024867 f   Clkpc:Clkpct.obj
 0001:00023877       __rtkCLKSetup              10024877 f   Clkpc:Clkpct.obj
 0001:00023892       __rtkCLKDone               10024892 f   Clkpc:Clkpct.obj
 0001:000238a5       __rtkCLKSetTimerInterval   100248a5 f   Clkpc:Clkpct.obj
 0001:000238ea       __rtkCLKCurrentTimerInterval 100248ea f   Clkpc:Clkpct.obj
 0001:000238f0       __rtkHRTSetup              100248f0 f   Hrtpent:Hrtpent.obj
 0001:0002391e       __rtkHRTDone               1002491e f   Hrtpent:Hrtpent.obj
 0001:0002391f       _FTReadTime                1002491f f   Hrtpent:Hrtpent.obj
 0001:00023930       __rtkSYSSetup              10024930 f   Drvrt32:Sysrt32.obj
 0001:00023ab0       __rtkSYSDefaultMessageHandler 10024ab0 f   Drvrt32:Sysrt32.obj
 0001:00023ac0       __rtkSYSFatalErrorExit     10024ac0 f   Drvrt32:Sysrt32.obj
 0001:00023ad0       __rtkSYSGetMainTaskInfo    10024ad0 f   Drvrt32:Sysrt32.obj
 0001:00023af0       __rtkSYSDataTaskInit       10024af0 f   Drvrt32:Sysrt32.obj
 0001:00023e70       __rtkSYSTaskDone           10024e70 f   Drvrt32:Sysrt32.obj
 0001:00023ef0       __rtkMEMAlloc              10024ef0 f   Drvrt32:Stcheap.obj
 0001:00023f20       __rtkMEMFree               10024f20 f   Drvrt32:Stcheap.obj
 0001:00023f40       _RTKEnableInterrupts       10024f40 f   Drvrt32:Iflag.obj
 0001:00023f46       _RTKDisableInterrupts      10024f46 f   Drvrt32:Iflag.obj
 0001:00023f48       __rtkIRQSaveAndDisableIFFlag 10024f48 f   Drvrt32:Iflag.obj
 0001:00023f4c       __rtkIRQRestoreIFFlag      10024f4c f   Drvrt32:Iflag.obj
 0001:00023f55       __rtkIRQIntsEnabled        10024f55 f   Drvrt32:Iflag.obj
 0001:00024024       __rtkIFlagCheckIOPL        10025024 f   Drvrt32:Iflag.obj
 0001:00024050       __rtkFLTSave               10025050 f   Drvrt32:Fltnull.obj
 0001:00024050       _AcpiOsUnmapMemory         10025050 f   Acpica:osontime.obj
 0001:00024050       __rtkIRQDone               10025050 f   Drvrt32:Irqrtt.obj
 0001:00024050       __rtkFLTRestore            10025050 f   Drvrt32:Fltnull.obj
 0001:00024050       __rtkSYSDone               10025050 f   Drvrt32:Sysrt32.obj
 0001:00024050       __rtkIPIHandler            10025050 f   Rtk32:Kernel.obj
 0001:00024050       __rtkFLTSetup              10025050 f   Drvrt32:Fltnull.obj
 0001:00024050       _AcpiOsVprintf             10025050 f   Acpica:osontimeprint.obj
 0001:00024050       _RTUSYSDiskRemoved         10025050 f   RtfilesX:Drvusb.obj
 0001:00024050       __rtkFLTDone               10025050 f   Drvrt32:Fltnull.obj
 0001:00024060       __rtkCPUPause              10025060 f   Drvrt32:Cpu386f.obj
 0001:00024063       __rtkCPUGetAndAdd          10025063 f   Drvrt32:Cpu386f.obj
 0001:00024080       __rtkCPUJumpToWithStack    10025080 f   Drvrt32:Cpu386f.obj
 0001:0002408a       __rtkCPUMakeFPStack        1002508a f   Drvrt32:Cpu386f.obj
 0001:00024098       _rtkGetCPU                 10025098 f   Drvrt32:Cpu386f.obj
 0001:000240be       __rtkCPUSetup              100250be f   Drvrt32:Cpu386f.obj
 0001:000240d5       __rtkCPUDone               100250d5 f   Drvrt32:Cpu386f.obj
 0001:000240d6       __rtkCPUSwapStacks         100250d6 f   Drvrt32:Cpu386f.obj
 0001:000240ed       __rtkCPUInitTaskStack      100250ed f   Drvrt32:Cpu386f.obj
 0001:00024115       __rtkCPUGetStackPointer    10025115 f   Drvrt32:Cpu386f.obj
 0001:0002411a       __rtkCPUMatchingMem        1002511a f   Drvrt32:Cpu386f.obj
 0001:0002443e       __rtkCPUGetLowHandler      1002543e f   Drvrt32:Cpu386f.obj
 0001:0002444b       __rtkIPILowHandler         1002544b f   Drvrt32:Cpu386f.obj
 0001:00024460       __tdsFindAddress           10025460 f   Drvrt32:Tdsgetp.obj
 0001:000244c0       __rtkSRCGetSourceInfo      100254c0 f   Drvrt32:Tdsgetp.obj
 0001:00024500       __rtkIRQMaxIRQs            10025500 f   Drvrt32:Irqrtt.obj
 0001:00024510       __rtkIRQRestoreHandlerFar  10025510 f   Drvrt32:Irqrtt.obj
 0001:00024530       __rtkIRQSetHandler         10025530 f   Drvrt32:Irqrtt.obj
 0001:00024550       __rtkIRQSaveHandlerFar     10025550 f   Drvrt32:Irqrtt.obj
 0001:00024570       __rtkIRQSetup              10025570 f   Drvrt32:Irqrtt.obj
 0001:00024580       __rtkIRQCallIntFar         10025580 f   Drvrt32:Irqcall.obj
 0001:000245b8       __rtkSYSIdle               100255b8 f   Drvrt32:Halt386.obj
 0001:000245c7       __rtkSYSIdle2              100255c7 f   Drvrt32:Halt386.obj
 0001:000245cc       _RTKIRQTopPriority         100255cc f   Drvrt32:I8259.obj
 0001:000245e7       _RTKEnableIRQ              100255e7 f   Drvrt32:I8259.obj
 0001:000245ec       _RTKDisableIRQ             100255ec f   Drvrt32:I8259.obj
 0001:000245f1       _RTKIRQEnd                 100255f1 f   Drvrt32:I8259.obj
 0001:000245f8       __SYSRTTDBGHook            100255f8 f   Drvrt32:Rttdbg.obj
 0001:00024610       __SYSFSGetRelative         10025610 f   Drvrt32:Fsseg.obj
 0001:00024618       __SYSFSSet                 10025618 f   Drvrt32:Fsseg.obj
 0001:0002461e       __SYSFSGet                 1002561e f   Drvrt32:Fsseg.obj
 0001:00024630       _MEMSTHeapAlloc            10025630 f   Drvrt32:Stheap.obj
 0001:000247a0       _MEMSTHeapFree             100257a0 f   Drvrt32:Stheap.obj
 0001:00024850       _malloc                    10025850 f   Rttheap:Rttheap.obj
 0001:00024880       _free                      10025880 f   Rttheap:Rttheap.obj
 0001:000248a0       _realloc                   100258a0 f   Rttheap:Rttheap.obj
 0001:000248e0       __recalloc                 100258e0 f   Rttheap:Rttheap.obj
 0001:00024900       _RTFSYSAlloc               10025900 f   Rtfsk32:Sysrtk32.obj
 0001:00024900       __malloc_base              10025900 f   Rttheap:Rttheap.obj
 0001:00024910       _GetEnvironmentStringsA@0  10025910 f   Rtt32:System.obj
 0001:00024940       _GetEnvironmentStrings@0   10025940 f   Rtt32:System.obj
 0001:00024950       __rttLocateEnvString       10025950 f   Rtt32:System.obj
 0001:000249f0       _SetEnvironmentVariableA@8 100259f0 f   Rtt32:System.obj
 0001:00024a50       _GetCommandLineA@0         10025a50 f   Rtt32:System.obj
 0001:00024a80       _RTSetExitHandler          10025a80 f   Rtt32:System.obj
 0001:00024a90       _ExitProcess@4             10025a90 f   Rtt32:System.obj
 0001:00024ad0       _TerminateProcess@8        10025ad0 f   Rtt32:System.obj
 0001:00024af0       _GetStartupInfoW@4         10025af0 f   Rtt32:System.obj
 0001:00024af0       _GetStartupInfoA@4         10025af0 f   Rtt32:System.obj
 0001:00024b20       _GetVersionExA@4           10025b20 f   Rtt32:System.obj
 0001:00024b40       _SetConsoleCtrlHandler@8   10025b40 f   Rtt32:System.obj
 0001:00024b50       _MessageBoxA@16            10025b50 f   Rtt32:System.obj
 0001:00024b90       _GetCurrentProcess@0       10025b90 f   Rtt32:System.obj
 0001:00024ba0       _OutputDebugStringA@4      10025ba0 f   Rtt32:System.obj
 0001:00024bf0       _IsDebuggerPresent@0       10025bf0 f   Rtt32:System.obj
 0001:00024c10       _Beep@8                    10025c10 f   Rtt32:System.obj
 0001:00024cb0       _EncodePointer@4           10025cb0 f   Rtt32:System.obj
 0001:00024cb0       _DecodePointer@4           10025cb0 f   Rtt32:System.obj
 0001:00024cc0       _RTProcessEvents           10025cc0 f   Rtt32:Conin.obj
 0001:00024d10       _ReadConsoleInputW@16      10025d10 f   Rtt32:Conin.obj
 0001:00024de0       _ReadConsoleInputA@16      10025de0 f   Rtt32:Conin.obj
 0001:00024e70       _GetNumberOfConsoleInputEvents@8 10025e70 f   Rtt32:Conin.obj
 0001:00024e90       _PeekConsoleInputA@16      10025e90 f   Rtt32:Conin.obj
 0001:00024f50       _WriteConsoleInputW@16     10025f50 f   Rtt32:Conin.obj
 0001:00025050       _WriteConsoleInputA@16     10026050 f   Rtt32:Conin.obj
 0001:00025110       _FlushConsoleInputBuffer@4 10026110 f   Rtt32:Conin.obj
 0001:00025150       _GetNumberOfConsoleMouseButtons@4 10026150 f   Rtt32:Conin.obj
 0001:00025170       _GetOEMCP@0                10026170 f   Rtt32:Cp.obj
 0001:00025170       _GetConsoleCP@0            10026170 f   Rtt32:Conin.obj
 0001:00025180       _ReadConsoleA@20           10026180 f   Rtt32:Conin.obj
 0001:00025280       _RTDisplayChar             10026280 f   Rtt32:Screen.obj
 0001:00025290       _RTSetDisplayHandler       10026290 f   Rtt32:Screen.obj
 0001:00025400       _RTDisplayScroll           10026400 f   Rtt32:Screen.obj
 0001:00025500       _RTDisplayClear            10026500 f   Rtt32:Screen.obj
 0001:000256a0       _RTDisplayCharAt           100266a0 f   Rtt32:Screen.obj
 0001:000257c0       _RTDisplayString           100267c0 f   Rtt32:Screen.obj
 0001:000257f0       _RTDisplayHex              100267f0 f   Rtt32:Screen.obj
 0001:00025820       _RTDisplayInt              10026820 f   Rtt32:Screen.obj
 0001:000258a0       _RTCMOSRead                100268a0 f   Rtt32:Cmos.obj
 0001:000259b0       _RTCMOSReadTime            100269b0 f   Rtt32:Cmos.obj
 0001:00025c00       _RTCMOSSetSystemTime       10026c00 f   Rtt32:Cmos.obj
 0001:00025ce0       _RTCMOSExtendHeap          10026ce0 f   Rtt32:Cmosheap.obj
 0001:00026000       _RTFindPhysMem             10027000 f   Rtt32:Rtmapmem.obj
 0001:00026100       _RTReserveVirtualAddress   10027100 f   Rtt32:Rtmapmem.obj
 0001:000261e0       _RTReleaseVirtualAddress   100271e0 f   Rtt32:Rtmapmem.obj
 0001:00026240       _RTMapMem                  10027240 f   Rtt32:Rtmapmem.obj
 0001:00026310       _RTExtendHeap              10027310 f   Rtt32:Rtmapmem.obj
 0001:000265e0       _RTAllocPhysPageAligned    100275e0 f   Rtt32:Rtmapmem.obj
 0001:000266c0       _RTGetPhysAddress          100276c0 f   Rtt32:Rtmapmem.obj
 0001:00026720       _RTSetPageFlags            10027720 f   Rtt32:Rtmapmem.obj
 0001:000267a0       _RTMapPhysMem              100277a0 f   Rtt32:Rtmapmem.obj
 0001:00026820       __rttFindMPFPS             10027820 f   Rtt32:Mp.obj
 0001:00026ae0       _RTMPSetIOAPICVector       10027ae0 f   Rtt32:Mp.obj
 0001:00026bf0       _RTMPCPUs                  10027bf0 f   Rtt32:Mp.obj
 0001:00027150       _RTMPIsAPICMode            10028150 f   Rtt32:Mp.obj
 0001:00027160       _RTMPSetAPICMode           10028160 f   Rtt32:Mp.obj
 0001:00027fa0       _RTMPSendIPInterrupt       10028fa0 f   Rtt32:Mp.obj
 0001:00028090       _RTMPSetPICMode            10029090 f   Rtt32:Mp.obj
 0001:000281e0       _RTMPStopAll               100291e0 f   Rtt32:Mp.obj
 0001:00028300       _RTMPInitAPICTimer         10029300 f   Rtt32:Mp.obj
 0001:00028520       _RTMPTableCreate           10029520 f   Rtt32:Mp.obj
 0001:00028600       _RTMPTableCPUEx            10029600 f   Rtt32:Mp.obj
 0001:000286e0       _RTMPTableIOAPIC           100296e0 f   Rtt32:Mp.obj
 0001:00028740       _RTMPTableBus              10029740 f   Rtt32:Mp.obj
 0001:000287b0       _RTMPTableInterrupt        100297b0 f   Rtt32:Mp.obj
 0001:00028820       _RTMPTablePCIInterrupt     10029820 f   Rtt32:Mp.obj
 0001:00028850       _RTMPSetupMSI              10029850 f   Rtt32:Mp.obj
 0001:00028f00       _RTMPBalanceINTCPUs        10029f00 f   Rtt32:Mp.obj
 0001:000291d0       _RTMPSetAPICModeACPI       1002a1d0 f   Rtt32:Apicacpi.obj
 0001:00029230       _RTT_BIOS_NextDevice       1002a230 f   Rtt32:Rttbios.obj
 0001:00029330       _RTT_BIOS_Installed        1002a330 f   Rtt32:Rttbios.obj
 0001:00029620       _RTT_BIOS_FindClassCode    1002a620 f   Rtt32:Rttbios.obj
 0001:00029660       _RTT_BIOS_ReadConfigData   1002a660 f   Rtt32:Rttbios.obj
 0001:00029af0       _RTT_BIOS_WriteConfigData  1002aaf0 f   Rtt32:Rttbios.obj
 0001:00029d10       _RTT_BIOS_LocateCapability 1002ad10 f   Rtt32:Rttbios.obj
 0001:00029e00       __imp__OutputDebugStringA@4 1002ae00     Rtt32:284.OBJ
 0001:00029e04       __imp__DebugBreak@0        1002ae04     Rtt32:40.OBJ
 0001:00029e08       __imp__VirtualAlloc@16     1002ae08     Rtt32:385.OBJ
 0001:00029e0c       __imp__GetTickCount@0      1002ae0c     Rtt32:192.OBJ
 0001:00029e10       _RTLockSpinlockFast        1002ae10 f   Rtt32:Spinf.obj
 0001:00029e2e       _RTReleaseSpinlockFast     1002ae2e f   Rtt32:Spinf.obj
 0001:00029e3c       __imp__InterlockedIncrement@4 1002ae3c     Rtt32:236.OBJ
 0001:00029e40       __imp__InterlockedDecrement@4 1002ae40     Rtt32:232.OBJ
 0001:00029e50       _RTInsertKeyboardScanCode  1002ae50 f   Rtt32:Keybrd.obj
 0001:0002a7a0       _RTSetKeyboard             1002b7a0 f   Rtt32:Keybrd.obj
 0001:0002a940       _RTGetKeyEvents            1002b940 f   Rtt32:Keybrd.obj
 0001:0002a9e0       _RTGetAppHeader            1002b9e0 f   Rtt32:Rttarget.obj
 0001:0002a9e5       _RTGetSerialParameters     1002b9e5 f   Rtt32:Rttarget.obj
 0001:0002a9ea       _RTSaveVector              1002b9ea f   Rtt32:Rttarget.obj
 0001:0002a9ef       _RTRestoreVector           1002b9ef f   Rtt32:Rttarget.obj
 0001:0002a9f4       _RTGetDescriptor           1002b9f4 f   Rtt32:Rttarget.obj
 0001:0002a9f9       _RTSetDescriptor           1002b9f9 f   Rtt32:Rttarget.obj
 0001:0002a9fe       _RTGetCR0                  1002b9fe f   Rtt32:Rttarget.obj
 0001:0002aa03       _RTSetCR0                  1002ba03 f   Rtt32:Rttarget.obj
 0001:0002aa08       _RTChainProgram            1002ba08 f   Rtt32:Rttarget.obj
 0001:0002aa0d       _RTBootRM                  1002ba0d f   Rtt32:Rttarget.obj
 0001:0002aa12       _RTBootPM                  1002ba12 f   Rtt32:Rttarget.obj
 0001:0002aa17       _RTBCDisplayChar           1002ba17 f   Rtt32:Rttarget.obj
 0001:0002aa1c       _RTBCDisplayString         1002ba1c f   Rtt32:Rttarget.obj
 0001:0002aa21       __rttBootApicMode          1002ba21 f   Rtt32:Rttarget.obj
 0001:0002aa26       __rttBootGetApicMode       1002ba26 f   Rtt32:Rttarget.obj
 0001:0002aa2b       __rttCopyBIOSData          1002ba2b f   Rtt32:Rttarget.obj
 0001:0002aa30       _RTGetGMode                1002ba30 f   Rtt32:Rttarget.obj
 0001:0002aa3e       _RTGetExtMem               1002ba3e f   Rtt32:Rttarget.obj
 0001:0002aa4c       _RTGetVideoRAMAddr         1002ba4c f   Rtt32:Rttarget.obj
 0001:0002aa5a       _RTSetBootParams           1002ba5a f   Rtt32:Rttarget.obj
 0001:0002aa76       _DebugBreak@0              1002ba76 f   Rtt32:Rttarget.obj
 0001:0002aa76       DebugBreak                 1002ba76     Rtt32:Rttarget.obj
 0001:0002aa78       _RTGetBootFlags            1002ba78 f   Rtt32:Rttarget.obj
 0001:0002aa80       _RTSetFlags                1002ba80 f   Rtt32:Rttarget.obj
 0001:0002aacb       _RTCallDebugger            1002bacb f   Rtt32:Rttarget.obj
 0001:0002aada       _RTTerminate               1002bada f   Rtt32:Rttarget.obj
 0001:0002ab27       _RTSetIntVector            1002bb27 f   Rtt32:Rttarget.obj
 0001:0002ab2d       _RTSetTrapVector           1002bb2d f   Rtt32:Rttarget.obj
 0001:0002ab33       _RTWait                    1002bb33 f   Rtt32:Rttarget.obj
 0001:0002ab5a       _RTHalt                    1002bb5a f   Rtt32:Rttarget.obj
 0001:0002ab66       _RTGetDSSelectorLimit      1002bb66 f   Rtt32:Rttarget.obj
 0001:0002ab71       _RTGetCSSelectorLimit      1002bb71 f   Rtt32:Rttarget.obj
 0001:0002ab7c       _RTGetLDTR                 1002bb7c f   Rtt32:Rttarget.obj
 0001:0002ab80       _RTCallRing0               1002bb80 f   Rtt32:Rttarget.obj
 0001:0002aba7       __rttCallRing0             1002bba7 f   Rtt32:Rttarget.obj
 0001:0002abc9       BASetLDTR                  1002bbc9 f   Rtt32:Rttarget.obj
 0001:0002abcd       _RTSetLDTR                 1002bbcd f   Rtt32:Rttarget.obj
 0001:0002abf7       BASetCR3                   1002bbf7 f   Rtt32:Rttarget.obj
 0001:0002abfb       _RTSetCR3                  1002bbfb f   Rtt32:Rttarget.obj
 0001:0002ac25       _RTGetPageAccess           1002bc25 f   Rtt32:Rttarget.obj
 0001:0002acd7       _RTSetPageAccess           1002bcd7 f   Rtt32:Rttarget.obj
 0001:0002acfb       __rttPrefetchRing0         1002bcfb f   Rtt32:Rttarget.obj
 0001:0002ad1f       RTEvalCheck                1002bd1f f   Rtt32:Rttarget.obj
 0001:0002ad1f       _RTEvalCheck@4             1002bd1f     Rtt32:Rttarget.obj
 0001:0002ad30       BAGetCR4                   1002bd30 f   Rtt32:Rttarget.obj
 0001:0002ad34       _RTGetCR4                  1002bd34 f   Rtt32:Rttarget.obj
 0001:0002ad43       BASetCR4                   1002bd43 f   Rtt32:Rttarget.obj
 0001:0002ad47       _RTSetCR4                  1002bd47 f   Rtt32:Rttarget.obj
 0001:0002adc4       __imp__WriteConsoleInputA@16 1002bdc4     Rtt32:395.OBJ
 0001:0002af90       __imp__SetLastError@4      1002bf90     Rtt32:336.OBJ
 0001:0002af94       __imp__DosDateTimeToFileTime@12 1002bf94     Rtt32:49.OBJ
 0001:0002af98       __imp__LocalFileTimeToFileTime@8 1002bf98     Rtt32:259.OBJ
 0001:0002af9c       __imp__GetLastError@0      1002bf9c     Rtt32:142.OBJ
 0001:0002afa0       __imp__FileTimeToDosDateTime@12 1002bfa0     Rtt32:61.OBJ
 0001:0002afa4       __imp__FileTimeToLocalFileTime@8 1002bfa4     Rtt32:62.OBJ
 0001:0002afa8       __imp__GetLocalTime@4      1002bfa8     Rtt32:146.OBJ
 0001:0002afb0       _RTLocateSection           1002bfb0 f   Rtt32:Sections.obj
 0001:0002b050       _RTSectionName             1002c050 f   Rtt32:Sections.obj
 0001:0002b090       __imp__GetNumberOfConsoleInputEvents@8 1002c090     Rtt32:158.OBJ
 0001:0002b094       __imp__ReadConsoleInputA@16 1002c094     Rtt32:294.OBJ
 0001:0002b098       __imp__GetStdHandle@4      1002c098     Rtt32:170.OBJ
 0001:0002b09c       __imp__CloseHandle@4       1002c09c     Rtt32:9.OBJ
 0001:0002b0a0       _RTAllocHandleType         1002c0a0 f   Rtt32:Handles.obj
 0001:0002b0f0       _RTAllocHandle             1002c0f0 f   Rtt32:Handles.obj
 0001:0002b240       _RTGetHandleObject         1002c240 f   Rtt32:Handles.obj
 0001:0002b290       _RTGetHandleType           1002c290 f   Rtt32:Handles.obj
 0001:0002b2d0       _RTParseHandle             1002c2d0 f   Rtt32:Handles.obj
 0001:0002b420       _CloseHandle@4             1002c420 f   Rtt32:Handles.obj
 0001:0002b440       _GetStdHandle@4            1002c440 f   Rtt32:Handles.obj
 0001:0002b4f0       _SetStdHandle@8            1002c4f0 f   Rtt32:Handles.obj
 0001:0002b540       _DuplicateHandle@28        1002c540 f   Rtt32:Handles.obj
 0001:0002b5f0       _GetLastError@0            1002c5f0 f   Rtt32:Lasterr.obj
 0001:0002b5f0       GetLastError               1002c5f0     Rtt32:Lasterr.obj
 0001:0002b5f7       _SetLastError@4            1002c5f7 f   Rtt32:Lasterr.obj
 0001:0002b5f7       SetLastError               1002c5f7     Rtt32:Lasterr.obj
 0001:0002b610       __rttVerifyModuleHandle    1002c610 f   Rtt32:Loadl.obj
 0001:0002b850       _RTTarget32SystemInit      1002c850 f   Rtt32:Loadl.obj
 0001:0002b880       _RTDLLThreadEvent          1002c880 f   Rtt32:Loadl.obj
 0001:0002b900       _GetModuleHandleExA@12     1002c900 f   Rtt32:Loadl.obj
 0001:0002bbf0       _GetModuleHandleA@4        1002cbf0 f   Rtt32:Loadl.obj
 0001:0002bc10       _LoadLibraryExA@12         1002cc10 f   Rtt32:Loadl.obj
 0001:0002c990       _LoadLibraryA@4            1002d990 f   Rtt32:Loadl.obj
 0001:0002c9b0       _FreeLibrary@4             1002d9b0 f   Rtt32:Loadl.obj
 0001:0002cad0       _GetModuleFileNameA@12     1002dad0 f   Rtt32:Loadl.obj
 0001:0002cb50       _GetProcAddress@8          1002db50 f   Rtt32:Loadl.obj
 0001:0002cf50       GetCPU                     1002df50 f   Rtt32:Inter.obj
 0001:0002cf7b       InterlockedDecrement       1002df7b     Rtt32:Inter.obj
 0001:0002cf7b       _InterlockedDecrement@4    1002df7b f   Rtt32:Inter.obj
 0001:0002cfa7       _InterlockedIncrement@4    1002dfa7 f   Rtt32:Inter.obj
 0001:0002cfa7       InterlockedIncrement       1002dfa7     Rtt32:Inter.obj
 0001:0002cfce       InterlockedExchange        1002dfce     Rtt32:Inter.obj
 0001:0002cfce       _InterlockedExchange@8     1002dfce f   Rtt32:Inter.obj
 0001:0002cfe0       _InterlockedCompareExchange@12 1002dfe0 f   Rtt32:Inter.obj
 0001:0002cfe0       InterlockedCompareExchange 1002dfe0     Rtt32:Inter.obj
 0001:0002d015       _InterlockedExchangeAdd@8  1002e015 f   Rtt32:Inter.obj
 0001:0002d015       InterlockedExchangeAdd     1002e015     Rtt32:Inter.obj
 0001:0002d040       _GetLocalTime@4            1002e040 f   Rtt32:Systime.obj
 0001:0002d440       _GetSystemTime@4           1002e440 f   Rtt32:Systime.obj
 0001:0002d460       _SetSystemTime@4           1002e460 f   Rtt32:Systime.obj
 0001:0002d4e0       _GetSystemTimeAsFileTime@4 1002e4e0 f   Rtt32:Systime.obj
 0001:0002d510       _SystemTimeToFileTime@8    1002e510 f   Rtt32:Systime.obj
 0001:0002d6e0       _FileTimeToSystemTime@8    1002e6e0 f   Rtt32:Systime.obj
 0001:0002d8f0       _DosDateTimeToFileTime@12  1002e8f0 f   Rtt32:Systime.obj
 0001:0002d980       _FileTimeToDosDateTime@12  1002e980 f   Rtt32:Systime.obj
 0001:0002da20       _FileTimeToLocalFileTime@8 1002ea20 f   Rtt32:Systime.obj
 0001:0002dab0       _LocalFileTimeToFileTime@8 1002eab0 f   Rtt32:Systime.obj
 0001:0002db30       _GetTimeZoneInformation@4  1002eb30 f   Rtt32:Systime.obj
 0001:0002dbb0       _RTRDTSC                   1002ebb0 f   Rtt32:Rdtsc.obj
 0001:0002dbbf       _RTCPUID                   1002ebbf f   Rtt32:Rdtsc.obj
 0001:0002dc00       _RTSMBIOSGetStructure      1002ec00 f   Rtt32:Smi.obj
 0001:0002ddb0       _RTSMBIOSGetCPUSpeed       1002edb0 f   Rtt32:Smi.obj
 0001:0002de00       GetBitAddress              1002ee00 f   Rtt32:Tls.obj
 0001:0002de12       _TlsAlloc@0                1002ee12 f   Rtt32:Tls.obj
 0001:0002de12       TlsAlloc                   1002ee12     Rtt32:Tls.obj
 0001:0002de68       TlsFree                    1002ee68     Rtt32:Tls.obj
 0001:0002de68       _TlsFree@4                 1002ee68 f   Rtt32:Tls.obj
 0001:0002deb4       TlsSetValue                1002eeb4     Rtt32:Tls.obj
 0001:0002deb4       _TlsSetValue@8             1002eeb4 f   Rtt32:Tls.obj
 0001:0002dee7       TlsGetValue                1002eee7     Rtt32:Tls.obj
 0001:0002dee7       _TlsGetValue@4             1002eee7 f   Rtt32:Tls.obj
 0001:0002df1c       _RTSetTlsSlots             1002ef1c f   Rtt32:Tls.obj
 0001:0002dfb6       __RTBCDisplayString        1002efb6 f   Rtt32:Hltcpl3.obj
 0001:0002e1f5       _RTHaltCPL3                1002f1f5 f   Rtt32:Hltcpl3.obj
 0001:0002e27a       _RTEnableInterrupts        1002f27a f   Rtt32:I8059.obj
 0001:0002e280       _RTDisableInterrupts       1002f280 f   Rtt32:I8059.obj
 0001:0002e282       _RTSaveAndDisableInterrupts 1002f282 f   Rtt32:I8059.obj
 0001:0002e286       _RTRestoreInterrupts       1002f286 f   Rtt32:I8059.obj
 0001:0002e28f       CheckMode                  1002f28f f   Rtt32:I8059.obj
 0001:0002e2cd       _RTEnableIRQ               1002f2cd f   Rtt32:I8059.obj
 0001:0002e375       _RTDisableIRQ              1002f375 f   Rtt32:I8059.obj
 0001:0002e415       _RTIRQIsMasked             1002f415 f   Rtt32:I8059.obj
 0001:0002e4b4       _RTIRQEnd                  1002f4b4 f   Rtt32:I8059.obj
 0001:0002e4e8       _rttGetIoApicReg           1002f4e8 f   Rtt32:I8059.obj
 0001:0002e4f6       _rttSetIoApicReg           1002f4f6 f   Rtt32:I8059.obj
 0001:0002e508       _RTMPSelf                  1002f508 f   Rtt32:I8059.obj
 0001:0002e524       __imp__GetProcessHeap@0    1002f524     Rtt32:166.OBJ
 0001:0002e528       __imp__HeapAlloc@12        1002f528     Rtt32:215.OBJ
 0001:0002e52c       __imp__HeapFree@12         1002f52c     Rtt32:219.OBJ
 0001:0002e530       __imp__HeapReAlloc@16      1002f530     Rtt32:221.OBJ
 0001:0002e534       __imp__HeapSize@12         1002f534     Rtt32:223.OBJ
 0001:0002e540       __rttGetHeader             1002f540 f   Rtt32:W32hlper.obj
 0001:0002e590       __rttCheckAccess           1002f590 f   Rtt32:W32hlper.obj
 0001:0002e600       __rtttoupper               1002f600 f   Rtt32:W32hlper.obj
 0001:0002e610       __rttstricmp               1002f610 f   Rtt32:W32hlper.obj
 0001:0002e680       __rttmemicmp               1002f680 f   Rtt32:W32hlper.obj
 0001:0002e6e0       __rttNthString             1002f6e0 f   Rtt32:W32hlper.obj
 0001:0002e710       __rttTranslate             1002f710 f   Rtt32:W32hlper.obj
 0001:0002e760       __rttTranslateBack         1002f760 f   Rtt32:W32hlper.obj
 0001:0002e7c0       __rttSetCRTReg             1002f7c0 f   Rtt32:Conout.obj
 0001:0002e880       _GetConsoleMode@8          1002f880 f   Rtt32:Conout.obj
 0001:0002e8c0       _SetConsoleMode@8          1002f8c0 f   Rtt32:Conout.obj
 0001:0002e900       _WriteConsoleA@20          1002f900 f   Rtt32:Conout.obj
 0001:0002e940       _WriteConsoleW@20          1002f940 f   Rtt32:Conout.obj
 0001:0002ea30       _GetConsoleCursorInfo@8    1002fa30 f   Rtt32:Conout.obj
 0001:0002ea60       _GetConsoleScreenBufferInfo@8 1002fa60 f   Rtt32:Conout.obj
 0001:0002ead0       _SetConsoleCursorInfo@8    1002fad0 f   Rtt32:Conout.obj
 0001:0002eb40       _SetConsoleCursorPosition@8 1002fb40 f   Rtt32:Conout.obj
 0001:0002eb90       _WriteConsoleOutputA@20    1002fb90 f   Rtt32:Conout.obj
 0001:0002ecd0       _WriteConsoleOutputW@20    1002fcd0 f   Rtt32:Conout.obj
 0001:0002ed00       _RTGetBIOSDataPtr          1002fd00 f   Rtt32:Biosdata.obj
 0001:0002eea0       __rttIncLimited            1002fea0 f   Rtt32:Ft.obj
 0001:0002eec2       __rttDecLimited            1002fec2 f   Rtt32:Ft.obj
 0001:0002eede       __rttFTAddScaled           1002fede f   Rtt32:Ft.obj
 0001:0002eef0       __rttFTSubScaled           1002fef0 f   Rtt32:Ft.obj
 0001:0002ef02       __rttFTSubScaledMax        1002ff02 f   Rtt32:Ft.obj
 0001:0002ef30       __rttAccessPageTable       1002ff30 f   Rtt32:Mapping.obj
 0001:0002f070       __rttAvailablePages        10030070 f   Rtt32:Mapping.obj
 0001:0002f140       __rttScanAvailablePages    10030140 f   Rtt32:Mapping.obj
 0001:0002f240       __rttAddPageTable          10030240 f   Rtt32:Mapping.obj
 0001:0002f2a0       __rttHeapInit              100302a0 f   Rtt32:Mapping.obj
 0001:0002f410       __rttMap                   10030410 f   Rtt32:Mapping.obj
 0001:0002f630       __rttScanPhysical          10030630 f   Rtt32:Mapping.obj
 0001:0002f6d0       __rttPageType              100306d0 f   Rtt32:Mapping.obj
 0001:0002f720       __rttPhysPage              10030720 f   Rtt32:Mapping.obj
 0001:0002f760       _AcpiOsDeleteSemaphore     10030760 f   Acpica:osontime.obj
 0001:0002f760       _AcpiOsSignalSemaphore     10030760 f   Acpica:osontime.obj
 0001:0002f760       _AcpiExPciBarSpaceHandler  10030760 f   Acpica:exregion.obj
 0001:0002f760       _AcpiOsTerminate           10030760 f   Acpica:osontime.obj
 0001:0002f760       _AcpiOsSignal              10030760 f   Acpica:osontime.obj
 0001:0002f760       _AcpiOsInitialize          10030760 f   Acpica:osontime.obj
 0001:0002f760       _AcpiExCmosSpaceHandler    10030760 f   Acpica:exregion.obj
 0001:0002f760       __rtkFLTSwappingNeeded     10030760 f   Drvrt32:Fltnull.obj
 0001:0002f760       _AcpiEvCmosRegionSetup     10030760 f   Acpica:evrgnini.obj
 0001:0002f760       _AcpiOsWaitSemaphore       10030760 f   Acpica:osontime.obj
 0001:0002f760       _AcpiEvPciBarRegionSetup   10030760 f   Acpica:evrgnini.obj
 0001:0002f760       __rtkFLTDataSize           10030760 f   Drvrt32:Fltnull.obj
 0001:0002f770       _RTLockHeap                10030770 f   Rtt32:Valloc.obj
 0001:0002f780       _RTUnlockHeap              10030780 f   Rtt32:Valloc.obj
 0001:0002f790       _VirtualAlloc@16           10030790 f   Rtt32:Valloc.obj
 0001:0002fd70       _VirtualFree@12            10030d70 f   Rtt32:Valloc.obj
 0001:0002ff80       _VirtualProtect@16         10030f80 f   Rtt32:Valloc.obj
 0001:00030040       _GlobalMemoryStatus@4      10031040 f   Rtt32:Valloc.obj
 0001:00030200       __rttUefiTable             10031200 f   Rtt32:Uefitables.obj
 0001:00030310       @__rttSetMsr               10031310 f   Rtt32:Mpasm.obj
 0001:00030310       @__rttSetMsr@4             10031310     Rtt32:Mpasm.obj
 0001:0003031b       @__rttGetMsr               1003131b f   Rtt32:Mpasm.obj
 0001:0003031b       @__rttGetMsr@4             1003131b     Rtt32:Mpasm.obj
 0001:0003032a       __rttPause                 1003132a f   Rtt32:Mpasm.obj
 0001:0003032d       __rttMulDivRound           1003132d f   Rtt32:Mpasm.obj
 0001:00030343       __rttBits                  10031343 f   Rtt32:Mpasm.obj
 0001:0003034f       __rttMPLockedOr            1003134f f   Rtt32:Mpasm.obj
 0001:0003035b       __rttMPLockedNotAnd        1003135b f   Rtt32:Mpasm.obj
 0001:00030369       __rttGetTS                 10031369 f   Rtt32:Mpasm.obj
 0001:00030378       __rttAdjustTS              10031378 f   Rtt32:Mpasm.obj
 0001:00030393       @__rttGetApRegs@4          10031393     Rtt32:Mpasm.obj
 0001:00030393       @__rttGetApRegs            10031393 f   Rtt32:Mpasm.obj
 0001:000303dd       SetCr3                     100313dd f   Rtt32:Mpasm.obj
 0001:000303e1       SetLdtr                    100313e1 f   Rtt32:Mpasm.obj
 0001:000303e5       SynchTSC                   100313e5 f   Rtt32:Mpasm.obj
 0001:0003041d       __rttPauseHandler          1003141d f   Rtt32:Mpasm.obj
 0001:000305be       Halt                       100315be f   Rtt32:Mpasm.obj
 0001:000305e3       WaitUntilNewCPU            100315e3 f   Rtt32:Mpasm.obj
 0001:000305fe       __rttMoveToCPU             100315fe f   Rtt32:Mpasm.obj
 0001:00030640       _wsprintfA                 10031640 f   Rtt32:Wsprintf.obj
 0001:00030840       _IsProcessorFeaturePresent@4 10031840 f   Rtt32:Ispfp.obj
 0001:00030b50       _RTMPACPITableCreate       10031b50 f   Rtt32:Mpacpi.obj
 0001:000314c0       __rttbios_FarCall          100324c0 f   Rtt32:Bfcall.obj
 0001:00031500       _RTACPIIsValid             10032500 f   Rtt32:Acpi.obj
 0001:00031520       _RTACPIGetStructure        10032520 f   Rtt32:Acpi.obj
 0001:00031870       _RTPrinterStatus           10032870 f   Rtt32:Pport.obj
 0001:000319d0       _RTPrintByte               100329d0 f   Rtt32:Pport.obj
 0001:00031a90       __rttFSystemCallHandle     10032a90 f   Rtt32:Files.obj
 0001:00031ae0       __rttFSystemCallName       10032ae0 f   Rtt32:Files.obj
 0001:00031e80       _GetFileType@4             10032e80 f   Rtt32:Files.obj
 0001:00031ed0       _FindFirstFileA@8          10032ed0 f   Rtt32:Files.obj
 0001:00031f80       _FindNextFileA@8           10032f80 f   Rtt32:Files.obj
 0001:00032000       _CreateFileA@28            10033000 f   Rtt32:Files.obj
 0001:00032080       _FindClose@4               10033080 f   Rtt32:Files.obj
 0001:00032090       _FindFirstFileExA@24       10033090 f   Rtt32:Files.obj
 0001:000320c0       _SetFilePointerEx@20       100330c0 f   Rtt32:Files.obj
 0001:00032110       _GetFileInformationByHandleEx@16 10033110 f   Rtt32:Files.obj
 0001:000321f0       _RTGetFS                   100331f0 f   Rtt32:Fs0.obj
 0001:000321f8       _RTSetFS                   100331f8 f   Rtt32:Fs0.obj
 0001:00032210       _HeapAlloc@12              10033210 f   Rtt32:Heap.obj
 0001:00032770       _HeapFree@12               10033770 f   Rtt32:Heap.obj
 0001:000327f0       _HeapReAlloc@16            100337f0 f   Rtt32:Heap.obj
 0001:00032990       _HeapSize@12               10033990 f   Rtt32:Heap.obj
 0001:000329a0       _HeapCreate@12             100339a0 f   Rtt32:Heap.obj
 0001:000329f0       _GetProcessHeap@0          100339f0 f   Rtt32:Heap.obj
 0001:00032a40       _RTGetProcessPhysMemHeap   10033a40 f   Rtt32:Heap.obj
 0001:00032af0       CallName                   10033af0 f   Rtt32:Fdisp.obj
 0001:00032b00       GetFullPathNameA           10033b00 f   Rtt32:Fdisp.obj
 0001:00032b00       _GetFullPathNameA@16       10033b00     Rtt32:Fdisp.obj
 0001:00032b08       GetFileAttributesA         10033b08 f   Rtt32:Fdisp.obj
 0001:00032b08       _GetFileAttributesA@4      10033b08     Rtt32:Fdisp.obj
 0001:00032b10       _SetFileAttributesA@8      10033b10     Rtt32:Fdisp.obj
 0001:00032b10       SetFileAttributesA         10033b10 f   Rtt32:Fdisp.obj
 0001:00032b18       _DeleteFileA@4             10033b18     Rtt32:Fdisp.obj
 0001:00032b18       DeleteFileA                10033b18 f   Rtt32:Fdisp.obj
 0001:00032b20       _MoveFileA@8               10033b20     Rtt32:Fdisp.obj
 0001:00032b20       MoveFileA                  10033b20 f   Rtt32:Fdisp.obj
 0001:00032b28       GetTempFileNameA           10033b28 f   Rtt32:Fdisp.obj
 0001:00032b28       _GetTempFileNameA@16       10033b28     Rtt32:Fdisp.obj
 0001:00032b30       _CreateDirectoryA@8        10033b30     Rtt32:Fdisp.obj
 0001:00032b30       CreateDirectoryA           10033b30 f   Rtt32:Fdisp.obj
 0001:00032b38       RemoveDirectoryA           10033b38 f   Rtt32:Fdisp.obj
 0001:00032b38       _RemoveDirectoryA@4        10033b38     Rtt32:Fdisp.obj
 0001:00032b40       GetDriveTypeA              10033b40 f   Rtt32:Fdisp.obj
 0001:00032b40       _GetDriveTypeA@4           10033b40     Rtt32:Fdisp.obj
 0001:00032b48       GetDiskFreeSpaceA          10033b48 f   Rtt32:Fdisp.obj
 0001:00032b48       _GetDiskFreeSpaceA@20      10033b48     Rtt32:Fdisp.obj
 0001:00032b50       _GetVolumeInformationA@32  10033b50     Rtt32:Fdisp.obj
 0001:00032b50       GetVolumeInformationA      10033b50 f   Rtt32:Fdisp.obj
 0001:00032b58       SetVolumeLabelA            10033b58 f   Rtt32:Fdisp.obj
 0001:00032b58       _SetVolumeLabelA@8         10033b58     Rtt32:Fdisp.obj
 0001:00032b60       _ReadFile@20               10033b60     Rtt32:Fdisp.obj
 0001:00032b60       ReadFile                   10033b60 f   Rtt32:Fdisp.obj
 0001:00032b68       WriteFile                  10033b68 f   Rtt32:Fdisp.obj
 0001:00032b68       _WriteFile@20              10033b68     Rtt32:Fdisp.obj
 0001:00032b70       SetFilePointer             10033b70 f   Rtt32:Fdisp.obj
 0001:00032b70       _SetFilePointer@16         10033b70     Rtt32:Fdisp.obj
 0001:00032b78       _SetEndOfFile@4            10033b78     Rtt32:Fdisp.obj
 0001:00032b78       SetEndOfFile               10033b78 f   Rtt32:Fdisp.obj
 0001:00032b80       _FlushFileBuffers@4        10033b80     Rtt32:Fdisp.obj
 0001:00032b80       FlushFileBuffers           10033b80 f   Rtt32:Fdisp.obj
 0001:00032b88       GetFileSize                10033b88 f   Rtt32:Fdisp.obj
 0001:00032b88       _GetFileSize@8             10033b88     Rtt32:Fdisp.obj
 0001:00032b90       GetFileTime                10033b90 f   Rtt32:Fdisp.obj
 0001:00032b90       _GetFileTime@16            10033b90     Rtt32:Fdisp.obj
 0001:00032b98       _GetFileInformationByHandle@8 10033b98     Rtt32:Fdisp.obj
 0001:00032b98       GetFileInformationByHandle 10033b98 f   Rtt32:Fdisp.obj
 0001:00032ba0       _SetFileTime@16            10033ba0     Rtt32:Fdisp.obj
 0001:00032ba0       SetFileTime                10033ba0 f   Rtt32:Fdisp.obj
 0001:00032ba8       _DeviceIoControl@32        10033ba8     Rtt32:Fdisp.obj
 0001:00032ba8       DeviceIoControl            10033ba8 f   Rtt32:Fdisp.obj
 0001:00032bb0       CallHandle                 10033bb0 f   Rtt32:Fdisp.obj
 0001:00032bd0       _WideCharToMultiByte@32    10033bd0 f   Rtt32:Wchar.obj
 0001:00032e30       _MultiByteToWideChar@24    10033e30 f   Rtt32:Wchar.obj
 0001:00033070       _CreateFileW@28            10034070 f   Rtt32:Wchar.obj
 0001:00033120       _FindFirstFileW@8          10034120 f   Rtt32:Wchar.obj
 0001:000331f0       _FindNextFileW@8           100341f0 f   Rtt32:Wchar.obj
 0001:00033270       _GetModuleHandleW@4        10034270 f   Rtt32:Wchar.obj
 0001:000332e0       _GetModuleHandleExW@12     100342e0 f   Rtt32:Wchar.obj
 0001:00033380       _GetEnvironmentStringsW@0  10034380 f   Rtt32:Wchar.obj
 0001:000333e0       _FreeEnvironmentStringsW@4 100343e0 f   Rtt32:Wchar.obj
 0001:00033400       _IsValidLocale@8           10034400 f   Rtt32:Lcid.obj
 0001:00033400       _SetEnvironmentVariableW@8 10034400 f   Rtt32:Wchar.obj
 0001:00033410       _GetCommandLineW@0         10034410 f   Rtt32:Wchar.obj
 0001:00033420       _OutputDebugStringW@4      10034420 f   Rtt32:Wchar.obj
 0001:00033460       _FindFirstFileExW@24       10034460 f   Rtt32:Wchar.obj
 0001:00033490       _GetDateFormatW@24         10034490 f   Rtt32:Wchar.obj
 0001:00033530       _GetTimeFormatW@24         10034530 f   Rtt32:Wchar.obj
 0001:000335d0       _LoadLibraryExW@12         100345d0 f   Rtt32:Wchar.obj
 0001:00033630       _LoadLibraryW@4            10034630 f   Rtt32:Wchar.obj
 0001:00033650       _GetModuleFileNameW@12     10034650 f   Rtt32:Wchar.obj
 0001:000336b0       _FlsAlloc@4                100346b0 f   Rtt32:Fls.obj
 0001:000336c0       _FlsGetValue@4             100346c0 f   Rtt32:Fls.obj
 0001:000336d0       _FlsSetValue@8             100346d0 f   Rtt32:Fls.obj
 0001:000336f0       _FlsFree@4                 100346f0 f   Rtt32:Fls.obj
 0001:00033700       _SetErrorMode@4            10034700 f   Rtt32:Unsupported.obj
 0001:00033710       _InitializeCriticalSectionEx@12 10034710 f   Rtt32:Unsupported.obj
 0001:00033730       _RTLoadApp                 10034730 f   Rtt32:Dbg.obj
 0001:00033735       _RTRunApp                  10034735 f   Rtt32:Dbg.obj
 0001:0003373a       _RTReadDBGRegs             1003473a f   Rtt32:Dbg.obj
 0001:0003373f       _RTWriteDBGRegs            1003473f f   Rtt32:Dbg.obj
 0001:00033744       _RTDisablePageing          10034744 f   Rtt32:Dbg.obj
 0001:00033749       _RTGetCR2                  10034749 f   Rtt32:Dbg.obj
 0001:0003374e       _RTGetIDTR                 1003474e f   Rtt32:Dbg.obj
 0001:00033753       _RTSetIDTR                 10034753 f   Rtt32:Dbg.obj
 0001:00033758       _RTSetAppHeader            10034758 f   Rtt32:Dbg.obj
 0001:00033760       __imp__wsprintfA           10034760     Rtt32:401.OBJ
 0001:00033770       _LCMapStringW@24           10034770 f   Rtt32:Strings.obj
 0001:00033780       _GetStringTypeW@16         10034780 f   Rtt32:Strings.obj
 0001:00033790       _CompareStringW@24         10034790 f   Rtt32:Strings.obj
 0001:00033860       _lstrlenW@4                10034860 f   Rtt32:Strings.obj
 0001:00033880       _GetDateFormatA@24         10034880 f   Rtt32:Getdatef.obj
 0001:00033de0       _GetTimeFormatA@24         10034de0 f   Rtt32:Getdatef.obj
 0001:00034250       _AcpiTerminate             10035250 f   Acpica:utxface.obj
 0001:000342a0       _AcpiEvaluateObject        100352a0 f   Acpica:nsxfeval.obj
 0001:000344d0       _AcpiWalkNamespace         100354d0 f   Acpica:nsxfeval.obj
 0001:00034580       _AcpiInitializeSubsystem   10035580 f   Acpica:utxfinit.obj
 0001:00034660       _AcpiEnableSubsystem       10035660 f   Acpica:utxfinit.obj
 0001:00034700       _AcpiLoadTables            10035700 f   Acpica:tbxfload.obj
 0001:00034880       _AcpiAllocateRootTable     10035880 f   Acpica:tbxface.obj
 0001:000348a0       _AcpiInitializeTables      100358a0 f   Acpica:tbxface.obj
 0001:00034920       _AcpiGetTableByIndex       10035920 f   Acpica:tbxface.obj
 0001:000349b0       _AcpiOsGetRootPointer      100359b0 f   Acpica:osontime.obj
 0001:000349c0       _AcpiOsTableOverride       100359c0 f   Acpica:osontime.obj
 0001:000349c0       _AcpiOsPredefinedOverride  100359c0 f   Acpica:osontime.obj
 0001:000349e0       _AcpiOsPhysicalTableOverride 100359e0 f   Acpica:osontime.obj
 0001:000349f0       _AcpiOsGetTimer            100359f0 f   Acpica:osontime.obj
 0001:00034a10       _AcpiOsPrintf              10035a10 f   Acpica:osontime.obj
 0001:00034a30       _AcpiOsAllocate            10035a30 f   Acpica:osontime.obj
 0001:00034a60       _AcpiOsFree                10035a60 f   Acpica:osontime.obj
 0001:00034a80       _AcpiOsCreateSemaphore     10035a80 f   Acpica:osontime.obj
 0001:00034a90       _AcpiOsCreateLock          10035a90 f   Acpica:osontime.obj
 0001:00034ab0       _AcpiOsDeleteLock          10035ab0 f   Acpica:osontime.obj
 0001:00034ac0       _AcpiOsAcquireLock         10035ac0 f   Acpica:osontime.obj
 0001:00034ae0       _AcpiOsReleaseLock         10035ae0 f   Acpica:osontime.obj
 0001:00034af0       _AcpiOsInstallInterruptHandler 10035af0 f   Acpica:osontime.obj
 0001:00034b10       _AcpiOsRemoveInterruptHandler 10035b10 f   Acpica:osontime.obj
 0001:00034b30       _AcpiOsStall               10035b30 f   Acpica:osontime.obj
 0001:00034b50       _AcpiOsSleep               10035b50 f   Acpica:osontime.obj
 0001:00034b60       _AcpiOsReadPciConfiguration 10035b60 f   Acpica:osontime.obj
 0001:00034ba0       _AcpiOsWritePciConfiguration 10035ba0 f   Acpica:osontime.obj
 0001:00034be0       _AcpiOsReadPort            10035be0 f   Acpica:osontime.obj
 0001:00034c50       _AcpiOsWritePort           10035c50 f   Acpica:osontime.obj
 0001:00034cb0       _AcpiOsReadMemory          10035cb0 f   Acpica:osontime.obj
 0001:00034d40       _AcpiOsWriteMemory         10035d40 f   Acpica:osontime.obj
 0001:00034e00       _AcpiOsCreateCache         10035e00 f   Acpica:osontime.obj
 0001:00034e50       _AcpiOsDeleteCache         10035e50 f   Acpica:osontime.obj
 0001:00034e60       _AcpiOsAcquireObject       10035e60 f   Acpica:osontime.obj
 0001:00034ea0       _AcpiOsReleaseObject       10035ea0 f   Acpica:osontime.obj
 0001:00034eb0       _AcpiOsGetThreadId         10035eb0 f   Acpica:osontime.obj
 0001:00034ec0       _AcpiOsExecute             10035ec0 f   Acpica:osontime.obj
 0001:00034ed0       _AcpiOsDiv64By32           10035ed0 f   Acpica:osontime.obj
 0001:00034ef0       _AcpiOsShiftRight64        10035ef0 f   Acpica:osontime.obj
 0001:00034f00       _AcpiOsAcquireGlobalLock   10035f00 f   Acpica:osontime.obj
 0001:00034f40       _AcpiOsReleaseGlobalLock   10035f40 f   Acpica:osontime.obj
 0001:00034f70       _AcpiGetType               10035f70 f   Acpica:nsxfobj.obj
 0001:00034fe0       _AcpiGetParent             10035fe0 f   Acpica:nsxfobj.obj
 0001:00035060       _AcpiGetHandle             10036060 f   Acpica:nsxfname.obj
 0001:000350f0       _AcpiGetName               100360f0 f   Acpica:nsxfname.obj
 0001:000351a0       _AcpiGetIrqRoutingTable    100361a0 f   Acpica:rsxface.obj
 0001:00035220       _AcpiGetCurrentResources   10036220 f   Acpica:rsxface.obj
 0001:00035250       _AcpiUtMutexInitialize     10036250 f   Acpica:utmutex.obj
 0001:000352c0       _AcpiUtMutexTerminate      100362c0 f   Acpica:utmutex.obj
 0001:000353a0       _AcpiUtAcquireMutex        100363a0 f   Acpica:utmutex.obj
 0001:00035440       _AcpiUtReleaseMutex        10036440 f   Acpica:utmutex.obj
 0001:000354b0       _AcpiUtInitGlobals         100364b0 f   Acpica:utinit.obj
 0001:00035640       _AcpiUtSubsystemShutdown   10036640 f   Acpica:utinit.obj
 0001:000356c0       _AcpiError                 100366c0 f   Acpica:utxferror.obj
 0001:00035700       _AcpiException             10036700 f   Acpica:utxferror.obj
 0001:00035750       _AcpiWarning               10036750 f   Acpica:utxferror.obj
 0001:00035790       _AcpiInfo                  10036790 f   Acpica:utxferror.obj
 0001:000357c0       _AcpiBiosError             100367c0 f   Acpica:utxferror.obj
 0001:00035800       _AcpiBiosWarning           10036800 f   Acpica:utxferror.obj
 0001:00035840       _AcpiOsAllocateZeroed      10036840 f   Acpica:utalloc.obj
 0001:00035870       _AcpiUtCreateCaches        10036870 f   Acpica:utalloc.obj
 0001:000358f0       _AcpiUtDeleteCaches        100368f0 f   Acpica:utalloc.obj
 0001:00035960       _AcpiUtValidateBuffer      10036960 f   Acpica:utalloc.obj
 0001:000359a0       _AcpiUtInitializeBuffer    100369a0 f   Acpica:utalloc.obj
 0001:00035a10       _AcpiUtMemcmp              10036a10 f   Acpica:utclib.obj
 0001:00035a50       _AcpiUtMemcpy              10036a50 f   Acpica:utclib.obj
 0001:00035a80       _AcpiUtMemset              10036a80 f   Acpica:utclib.obj
 0001:00035ac0       _AcpiUtStrlen              10036ac0 f   Acpica:utclib.obj
 0001:00035ae0       _AcpiUtStrcpy              10036ae0 f   Acpica:utclib.obj
 0001:00035b10       _AcpiUtStrncpy             10036b10 f   Acpica:utclib.obj
 0001:00035b50       _AcpiUtStrcmp              10036b50 f   Acpica:utclib.obj
 0001:00035b80       _AcpiUtStrncmp             10036b80 f   Acpica:utclib.obj
 0001:00035bd0       _AcpiUtStrcat              10036bd0 f   Acpica:utclib.obj
 0001:00035c00       _AcpiUtStrtoul             10036c00 f   Acpica:utclib.obj
 0001:00035d80       _AcpiUtToUpper             10036d80 f   Acpica:utclib.obj
 0001:00035da0       _AcpiUtToLower             10036da0 f   Acpica:utclib.obj
 0001:00035dc0       _AcpiUtInitializeInterfaces 10036dc0 f   Acpica:utosi.obj
 0001:00035e10       _AcpiUtInterfaceTerminate  10036e10 f   Acpica:utosi.obj
 0001:00035e90       _AcpiUtGetInterface        10036e90 f   Acpica:utosi.obj
 0001:00035ed0       _AcpiUtOsiImplementation   10036ed0 f   Acpica:utosi.obj
 0001:00035fc0       _AcpiUtAddAddressRange     10036fc0 f   Acpica:utaddress.obj
 0001:00036050       _AcpiUtRemoveAddressRange  10037050 f   Acpica:utaddress.obj
 0001:000360b0       _AcpiUtDeleteAddressLists  100370b0 f   Acpica:utaddress.obj
 0001:000360f0       _AcpiUtGetRegionName       100370f0 f   Acpica:utdecode.obj
 0001:00036130       _AcpiUtGetEventName        10037130 f   Acpica:utdecode.obj
 0001:00036150       _AcpiUtGetTypeName         10037150 f   Acpica:utdecode.obj
 0001:00036170       _AcpiUtGetObjectTypeName   10037170 f   Acpica:utdecode.obj
 0001:00036190       _AcpiUtGetNodeName         10037190 f   Acpica:utdecode.obj
 0001:000361d0       _AcpiUtGetDescriptorName   100371d0 f   Acpica:utdecode.obj
 0001:00036200       _AcpiUtGetReferenceName    10037200 f   Acpica:utdecode.obj
 0001:00036240       _AcpiUtValidObjectType     10037240 f   Acpica:utdecode.obj
 0001:00036250       _AcpiUtDeleteInternalObjectList 10037250 f   Acpica:utdelete.obj
 0001:00036280       _AcpiUtUpdateObjectReference 10037280 f   Acpica:utdelete.obj
 0001:000367c0       _AcpiUtAddReference        100377c0 f   Acpica:utdelete.obj
 0001:000367e0       _AcpiUtRemoveReference     100377e0 f   Acpica:utdelete.obj
 0001:00036810       _AcpiExEnterInterpreter    10037810 f   Acpica:exutils.obj
 0001:00036840       _AcpiExExitInterpreter     10037840 f   Acpica:exutils.obj
 0001:00036870       _AcpiExTruncateFor32bitTable 10037870 f   Acpica:exutils.obj
 0001:000368b0       _AcpiExAcquireGlobalLock   100378b0 f   Acpica:exutils.obj
 0001:000368f0       _AcpiExReleaseGlobalLock   100378f0 f   Acpica:exutils.obj
 0001:00036930       _AcpiExEisaIdToString      10037930 f   Acpica:exutils.obj
 0001:000369d0       _AcpiIsValidSpaceId        100379d0 f   Acpica:exutils.obj
 0001:000369f0       _AcpiUtCopyIobjectToEobject 100379f0 f   Acpica:utcopy.obj
 0001:00036cc0       _AcpiUtCopyEobjectToIobject 10037cc0 f   Acpica:utcopy.obj
 0001:00036f40       _AcpiUtCopyIobjectToIobject 10037f40 f   Acpica:utcopy.obj
 0001:00037280       _AcpiUtCreateInternalObjectDbg 10038280 f   Acpica:utobject.obj
 0001:00037300       _AcpiUtCreatePackageObject 10038300 f   Acpica:utobject.obj
 0001:00037360       _AcpiUtCreateIntegerObject 10038360 f   Acpica:utobject.obj
 0001:00037390       _AcpiUtCreateBufferObject  10038390 f   Acpica:utobject.obj
 0001:00037410       _AcpiUtCreateStringObject  10038410 f   Acpica:utobject.obj
 0001:00037480       _AcpiUtValidInternalObject 10038480 f   Acpica:utobject.obj
 0001:000374a0       _AcpiUtAllocateObjectDescDbg 100384a0 f   Acpica:utobject.obj
 0001:000374e0       _AcpiUtDeleteObjectDesc    100384e0 f   Acpica:utobject.obj
 0001:00037520       _AcpiUtGetObjectSize       10038520 f   Acpica:utobject.obj
 0001:00037750       _AcpiNsEvaluate            10038750 f   Acpica:nseval.obj
 0001:000379a0       _AcpiNsExecModuleCodeList  100389a0 f   Acpica:nseval.obj
 0001:00037ad0       _AcpiUtPredefinedWarning   10038ad0 f   Acpica:uterror.obj
 0001:00037b20       _AcpiUtPredefinedInfo      10038b20 f   Acpica:uterror.obj
 0001:00037b70       _AcpiUtPredefinedBiosError 10038b70 f   Acpica:uterror.obj
 0001:00037bc0       _AcpiUtNamespaceError      10038bc0 f   Acpica:uterror.obj
 0001:00037c80       _AcpiUtMethodError         10038c80 f   Acpica:uterror.obj
 0001:00037d10       _AcpiNsPrintNodePathname   10038d10 f   Acpica:nsutils.obj
 0001:00037d80       _AcpiNsGetType             10038d80 f   Acpica:nsutils.obj
 0001:00037db0       _AcpiNsLocal               10038db0 f   Acpica:nsutils.obj
 0001:00037df0       _AcpiNsGetInternalNameLength 10038df0 f   Acpica:nsutils.obj
 0001:00037e70       _AcpiNsBuildInternalName   10038e70 f   Acpica:nsutils.obj
 0001:00037f40       _AcpiNsInternalizeName     10038f40 f   Acpica:nsutils.obj
 0001:00037fd0       _AcpiNsExternalizeName     10038fd0 f   Acpica:nsutils.obj
 0001:00038160       _AcpiNsValidateHandle      10039160 f   Acpica:nsutils.obj
 0001:00038190       _AcpiNsTerminate           10039190 f   Acpica:nsutils.obj
 0001:000381c0       _AcpiNsOpensScope          100391c0 f   Acpica:nsutils.obj
 0001:000381f0       _AcpiNsGetNode             100391f0 f   Acpica:nsutils.obj
 0001:000382a0       _AcpiUtCreateRwLock        100392a0 f   Acpica:utlock.obj
 0001:000382d0       _AcpiUtDeleteRwLock        100392d0 f   Acpica:utlock.obj
 0001:00038300       _AcpiUtAcquireReadLock     10039300 f   Acpica:utlock.obj
 0001:00038360       _AcpiUtReleaseReadLock     10039360 f   Acpica:utlock.obj
 0001:000383b0       _AcpiUtAcquireWriteLock    100393b0 f   Acpica:utlock.obj
 0001:000383d0       _AcpiUtReleaseWriteLock    100393d0 f   Acpica:utlock.obj
 0001:000383f0       _AcpiNsGetNextNode         100393f0 f   Acpica:nswalk.obj
 0001:00038410       _AcpiNsWalkNamespace       10039410 f   Acpica:nswalk.obj
 0001:00038570       _AcpiUtEvaluateObject      10039570 f   Acpica:uteval.obj
 0001:00038710       _AcpiUtEvaluateNumericObject 10039710 f   Acpica:uteval.obj
 0001:00038750       _AcpiUtExecute_HID         10039750 f   Acpica:utids.obj
 0001:00038800       _AcpiUtExecute_CID         10039800 f   Acpica:utids.obj
 0001:00038940       _AcpiNsAttachObject        10039940 f   Acpica:nsobject.obj
 0001:00038a20       _AcpiNsDetachObject        10039a20 f   Acpica:nsobject.obj
 0001:00038a90       _AcpiNsGetAttachedObject   10039a90 f   Acpica:nsobject.obj
 0001:00038ad0       _AcpiNsGetSecondaryObject  10039ad0 f   Acpica:nsobject.obj
 0001:00038af0       _AcpiNsRootInitialize      10039af0 f   Acpica:nsaccess.obj
 0001:00038d80       _AcpiNsLookup              10039d80 f   Acpica:nsaccess.obj
 0001:000390c0       _AcpiEvInitializeEvents    1003a0c0 f   Acpica:evevent.obj
 0001:00039120       _AcpiEvInstallXruptHandlers 1003a120 f   Acpica:evevent.obj
 0001:000391e0       _AcpiEvFixedEventDetect    1003a1e0 f   Acpica:evevent.obj
 0001:000392f0       _AcpiEvInstallRegionHandlers 1003a2f0 f   Acpica:evhandler.obj
 0001:00039350       _AcpiEvInstallSpaceHandler 1003a350 f   Acpica:evhandler.obj
 0001:00039670       _AcpiTbInitializeFacs      1003a670 f   Acpica:tbutils.obj
 0001:000396a0       _AcpiTbTablesLoaded        1003a6a0 f   Acpica:tbutils.obj
 0001:000396b0       _AcpiTbCheckDsdtHeader     1003a6b0 f   Acpica:tbutils.obj
 0001:00039720       _AcpiTbCopyDsdt            1003a720 f   Acpica:tbutils.obj
 0001:000397b0       _AcpiTbParseRootTable      1003a7b0 f   Acpica:tbutils.obj
 0001:00039980       _AcpiEnable                1003a980 f   Acpica:evxfevnt.obj
 0001:000399e0       _AcpiDisable               1003a9e0 f   Acpica:evxfevnt.obj
 0001:00039a30       _AcpiEnableEvent           1003aa30 f   Acpica:evxfevnt.obj
 0001:00039ab0       _AcpiDisableEvent          1003aab0 f   Acpica:evxfevnt.obj
 0001:00039b30       _AcpiHwSetMode             1003ab30 f   Acpica:hwacpi.obj
 0001:00039c10       _AcpiHwGetMode             1003ac10 f   Acpica:hwacpi.obj
 0001:00039c60       _AcpiEvAddressSpaceDispatch 1003ac60 f   Acpica:evregion.obj
 0001:00039e40       _AcpiEvDetachRegion        1003ae40 f   Acpica:evregion.obj
 0001:00039f90       _AcpiEvAttachRegion        1003af90 f   Acpica:evregion.obj
 0001:00039fc0       _AcpiEvExecuteRegMethod    1003afc0 f   Acpica:evregion.obj
 0001:0003a0c0       _AcpiEvExecuteRegMethods   1003b0c0 f   Acpica:evregion.obj
 0001:0003a230       _AcpiNsLoadTable           1003b230 f   Acpica:nsload.obj
 0001:0003a2c0       _AcpiTbInitTableDescriptor 1003b2c0 f   Acpica:tbdata.obj
 0001:0003a2f0       _AcpiTbAcquireTable        1003b2f0 f   Acpica:tbdata.obj
 0001:0003a350       _AcpiTbReleaseTable        1003b350 f   Acpica:tbdata.obj
 0001:0003a370       _AcpiTbAcquireTempTable    1003b370 f   Acpica:tbdata.obj
 0001:0003a400       _AcpiTbReleaseTempTable    1003b400 f   Acpica:tbdata.obj
 0001:0003a410       _AcpiTbValidateTable       1003b410 f   Acpica:tbdata.obj
 0001:0003a440       _AcpiTbInvalidateTable     1003b440 f   Acpica:tbdata.obj
 0001:0003a470       _AcpiTbValidateTempTable   1003b470 f   Acpica:tbdata.obj
 0001:0003a4a0       _AcpiTbVerifyTempTable     1003b4a0 f   Acpica:tbdata.obj
 0001:0003a560       _AcpiTbResizeRootTableList 1003b560 f   Acpica:tbdata.obj
 0001:0003a630       _AcpiTbGetNextRootIndex    1003b630 f   Acpica:tbdata.obj
 0001:0003a670       _AcpiTbTerminate           1003b670 f   Acpica:tbdata.obj
 0001:0003a6f0       _AcpiTbDeleteNamespaceByOwner 1003b6f0 f   Acpica:tbdata.obj
 0001:0003a780       _AcpiTbAllocateOwnerId     1003b780 f   Acpica:tbdata.obj
 0001:0003a7d0       _AcpiTbReleaseOwnerId      1003b7d0 f   Acpica:tbdata.obj
 0001:0003a820       _AcpiTbGetOwnerId          1003b820 f   Acpica:tbdata.obj
 0001:0003a870       _AcpiTbIsTableLoaded       1003b870 f   Acpica:tbdata.obj
 0001:0003a8b0       _AcpiTbSetTableLoadedFlag  1003b8b0 f   Acpica:tbdata.obj
 0001:0003a910       _AcpiTbInstallTableWithOverride 1003b910 f   Acpica:tbinstal.obj
 0001:0003a980       _AcpiTbInstallFixedTable   1003b980 f   Acpica:tbinstal.obj
 0001:0003aa30       _AcpiTbInstallStandardTable 1003ba30 f   Acpica:tbinstal.obj
 0001:0003ac80       _AcpiTbOverrideTable       1003bc80 f   Acpica:tbinstal.obj
 0001:0003ad70       _AcpiTbUninstallTable      1003bd70 f   Acpica:tbinstal.obj
 0001:0003ada0       _AcpiNsBuildExternalPath   1003bda0 f   Acpica:nsnames.obj
 0001:0003ae20       _AcpiNsGetExternalPathname 1003be20 f   Acpica:nsnames.obj
 0001:0003ae90       _AcpiNsGetPathnameLength   1003be90 f   Acpica:nsnames.obj
 0001:0003aee0       _AcpiNsHandleToPathname    1003bee0 f   Acpica:nsnames.obj
 0001:0003af40       _AcpiUtIsPciRootBridge     1003bf40 f   Acpica:utmisc.obj
 0001:0003af80       _AcpiUtDwordByteSwap       1003bf80 f   Acpica:utmisc.obj
 0001:0003afb0       _AcpiUtSetIntegerWidth     1003bfb0 f   Acpica:utmisc.obj
 0001:0003aff0       _AcpiUtCreateUpdateStateAndPush 1003bff0 f   Acpica:utmisc.obj
 0001:0003b030       _AcpiUtWalkPackageTree     1003c030 f   Acpica:utmisc.obj
 0001:0003b160       _AcpiPsGetNextPackageEnd   1003c160 f   Acpica:psargs.obj
 0001:0003b1e0       _AcpiPsGetNextNamestring   1003c1e0 f   Acpica:psargs.obj
 0001:0003b240       _AcpiPsGetNextNamepath     1003c240 f   Acpica:psargs.obj
 0001:0003b400       _AcpiPsGetNextSimpleArg    1003c400 f   Acpica:psargs.obj
 0001:0003b540       _AcpiPsGetNextArg          1003c540 f   Acpica:psargs.obj
 0001:0003baa0       _AcpiPsGetOpcodeSize       1003caa0 f   Acpica:psparse.obj
 0001:0003bac0       _AcpiPsPeekOpcode          1003cac0 f   Acpica:psparse.obj
 0001:0003bae0       _AcpiPsCompleteThisOp      1003cae0 f   Acpica:psparse.obj
 0001:0003bc90       _AcpiPsNextParseState      1003cc90 f   Acpica:psparse.obj
 0001:0003bdc0       _AcpiPsParseAml            1003cdc0 f   Acpica:psparse.obj
 0001:0003c030       _AcpiRsDecodeBitmask       1003d030 f   Acpica:rsutils.obj
 0001:0003c070       _AcpiRsMoveData            1003d070 f   Acpica:rsutils.obj
 0001:0003c130       _AcpiRsGetResourceSource   1003d130 f   Acpica:rsutils.obj
 0001:0003c200       _AcpiRsGetPrtMethodData    1003d200 f   Acpica:rsutils.obj
 0001:0003c240       _AcpiRsGetCrsMethodData    1003d240 f   Acpica:rsutils.obj
 0001:0003c280       _AcpiEvIsNotifyObject      1003d280 f   Acpica:evmisc.obj
 0001:0003c2a0       _AcpiEvQueueNotifyRequest  1003d2a0 f   Acpica:evmisc.obj
 0001:0003c3d0       _AcpiEvTerminate           1003d3d0 f   Acpica:evmisc.obj
 0001:0003c4a0       _AcpiFormatException       1003d4a0 f   Acpica:utexcep.obj
 0001:0003c4e0       _AcpiUtValidateException   1003d4e0 f   Acpica:utexcep.obj
 0001:0003c570       _AcpiUtStrtoul64           1003d570 f   Acpica:utstring.obj
 0001:0003c7a0       _AcpiUtValidAcpiChar       1003d7a0 f   Acpica:utstring.obj
 0001:0003c7d0       _AcpiUtValidAcpiName       1003d7d0 f   Acpica:utstring.obj
 0001:0003c800       _AcpiUtRepairName          1003d800 f   Acpica:utstring.obj
 0001:0003c860       _AcpiUtPushGenericState    1003d860 f   Acpica:utstate.obj
 0001:0003c870       _AcpiUtPopGenericState     1003d870 f   Acpica:utstate.obj
 0001:0003c880       _AcpiUtCreateGenericState  1003d880 f   Acpica:utstate.obj
 0001:0003c8a0       _AcpiUtCreateThreadState   1003d8a0 f   Acpica:utstate.obj
 0001:0003c8f0       _AcpiUtCreateUpdateState   1003d8f0 f   Acpica:utstate.obj
 0001:0003c910       _AcpiUtCreatePkgState      1003d910 f   Acpica:utstate.obj
 0001:0003c940       _AcpiUtCreateControlState  1003d940 f   Acpica:utstate.obj
 0001:0003c960       _AcpiUtDeleteGenericState  1003d960 f   Acpica:utstate.obj
 0001:0003c980       _AcpiExUnlinkMutex         1003d980 f   Acpica:exmutex.obj
 0001:0003c9c0       _AcpiExAcquireMutexObject  1003d9c0 f   Acpica:exmutex.obj
 0001:0003ca40       _AcpiExAcquireMutex        1003da40 f   Acpica:exmutex.obj
 0001:0003cb50       _AcpiExReleaseMutexObject  1003db50 f   Acpica:exmutex.obj
 0001:0003cbd0       _AcpiExReleaseMutex        1003dbd0 f   Acpica:exmutex.obj
 0001:0003cd10       _AcpiExReleaseAllMutexes   1003dd10 f   Acpica:exmutex.obj
 0001:0003cd70       _AcpiEvDeleteGpeBlock      1003dd70 f   Acpica:evgpeblk.obj
 0001:0003ce30       _AcpiEvCreateGpeBlock      1003de30 f   Acpica:evgpeblk.obj
 0001:0003d170       _AcpiUtHexToAsciiChar      1003e170 f   Acpica:uthex.obj
 0001:0003d190       _AcpiUtShortDivide         1003e190 f   Acpica:utmath.obj
 0001:0003d220       _AcpiUtDivide              1003e220 f   Acpica:utmath.obj
 0001:0003d390       _AcpiNsCheckReturnValue    1003e390 f   Acpica:nspredef.obj
 0001:0003d440       _AcpiNsCheckObjectType     1003e440 f   Acpica:nspredef.obj
 0001:0003d660       _AcpiExResolveNodeToValue  1003e660 f   Acpica:exresnte.obj
 0001:0003d890       _AcpiPsExecuteMethod       1003e890 f   Acpica:psxface.obj
 0001:0003db40       _AcpiNsCheckArgumentTypes  1003eb40 f   Acpica:nsarguments.obj
 0001:0003dc00       _AcpiNsCheckAcpiCompliance 1003ec00 f   Acpica:nsarguments.obj
 0001:0003dd00       _AcpiNsCheckArgumentCount  1003ed00 f   Acpica:nsarguments.obj
 0001:0003de10       _AcpiUtGetNextPredefinedMethod 1003ee10 f   Acpica:utpredef.obj
 0001:0003de30       _AcpiUtMatchPredefinedMethod 1003ee30 f   Acpica:utpredef.obj
 0001:0003de70       _AcpiUtGetExpectedReturnTypes 1003ee70 f   Acpica:utpredef.obj
 0001:0003ded0       _AcpiNsCreateNode          1003eed0 f   Acpica:nsalloc.obj
 0001:0003def0       _AcpiNsDeleteNode          1003eef0 f   Acpica:nsalloc.obj
 0001:0003df50       _AcpiNsRemoveNode          1003ef50 f   Acpica:nsalloc.obj
 0001:0003df90       _AcpiNsInstallNode         1003ef90 f   Acpica:nsalloc.obj
 0001:0003e000       _AcpiNsDeleteChildren      1003f000 f   Acpica:nsalloc.obj
 0001:0003e050       _AcpiNsDeleteNamespaceSubtree 1003f050 f   Acpica:nsalloc.obj
 0001:0003e0c0       _AcpiNsDeleteNamespaceByOwner 1003f0c0 f   Acpica:nsalloc.obj
 0001:0003e170       _AcpiDsScopeStackClear     1003f170 f   Acpica:dswscope.obj
 0001:0003e1a0       _AcpiDsScopeStackPush      1003f1a0 f   Acpica:dswscope.obj
 0001:0003e240       _AcpiDsScopeStackPop       1003f240 f   Acpica:dswscope.obj
 0001:0003e280       _AcpiNsSearchOneScope      1003f280 f   Acpica:nssearch.obj
 0001:0003e2c0       _AcpiNsSearchAndEnter      1003f2c0 f   Acpica:nssearch.obj
 0001:0003e420       _AcpiEvGpeInitialize       1003f420 f   Acpica:evgpeinit.obj
 0001:0003e570       _AcpiEvUpdateGpes          1003f570 f   Acpica:evgpeinit.obj
 0001:0003e640       _AcpiEvMatchGpeMethod      1003f640 f   Acpica:evgpeinit.obj
 0001:0003e730       _AcpiEvInitGlobalLockHandler 1003f730 f   Acpica:evglock.obj
 0001:0003e790       _AcpiEvRemoveGlobalLockHandler 1003f790 f   Acpica:evglock.obj
 0001:0003e830       _AcpiEvAcquireGlobalLock   1003f830 f   Acpica:evglock.obj
 0001:0003e930       _AcpiEvReleaseGlobalLock   1003f930 f   Acpica:evglock.obj
 0001:0003e9c0       _AcpiEvSciDispatch         1003f9c0 f   Acpica:evsci.obj
 0001:0003ea20       _AcpiEvGpeXruptHandler     1003fa20 f   Acpica:evsci.obj
 0001:0003ea30       _AcpiEvInstallSciHandler   1003fa30 f   Acpica:evsci.obj
 0001:0003ea80       _AcpiEvRemoveAllSciHandlers 1003fa80 f   Acpica:evsci.obj
 0001:0003eaf0       _AcpiReadBitRegister       1003faf0 f   Acpica:hwxface.obj
 0001:0003eb40       _AcpiWriteBitRegister      1003fb40 f   Acpica:hwxface.obj
 0001:0003ebf0       _AcpiHwValidateRegister    1003fbf0 f   Acpica:hwregs.obj
 0001:0003eca0       _AcpiHwRead                1003fca0 f   Acpica:hwregs.obj
 0001:0003ed10       _AcpiHwWrite               1003fd10 f   Acpica:hwregs.obj
 0001:0003ed70       _AcpiHwGetBitRegisterInfo  1003fd70 f   Acpica:hwregs.obj
 0001:0003eda0       _AcpiHwRegisterRead        1003fda0 f   Acpica:hwregs.obj
 0001:0003eea0       _AcpiHwRegisterWrite       1003fea0 f   Acpica:hwregs.obj
 0001:0003f070       _AcpiEvSystemMemoryRegionSetup 10040070 f   Acpica:evrgnini.obj
 0001:0003f0e0       _AcpiEvPciConfigRegionSetup 100400e0 f   Acpica:evrgnini.obj
 0001:0003f350       _AcpiEvIoSpaceRegionSetup  10040350 f   Acpica:evrgnini.obj
 0001:0003f350       _AcpiEvDefaultRegionSetup  10040350 f   Acpica:evrgnini.obj
 0001:0003f370       _AcpiEvInitializeRegion    10040370 f   Acpica:evrgnini.obj
 0001:0003f4b0       _AcpiExSystemMemorySpaceHandler 100404b0 f   Acpica:exregion.obj
 0001:0003f7c0       _AcpiExSystemIoSpaceHandler 100407c0 f   Acpica:exregion.obj
 0001:0003f820       _AcpiExPciConfigSpaceHandler 10040820 f   Acpica:exregion.obj
 0001:0003f890       _AcpiExDataTableSpaceHandler 10040890 f   Acpica:exregion.obj
 0001:0003f8e0       _AcpiTbPrintTableHeader    100408e0 f   Acpica:tbprint.obj
 0001:0003fa60       _AcpiTbVerifyChecksum      10040a60 f   Acpica:tbprint.obj
 0001:0003fac0       _AcpiTbChecksum            10040ac0 f   Acpica:tbprint.obj
 0001:0003fae0       _AcpiTbParseFadt           10040ae0 f   Acpica:tbfadt.obj
 0001:0003fb60       _AcpiTbCreateLocalFadt     10040b60 f   Acpica:tbfadt.obj
 0001:00040000       _AcpiHwReadPort            10041000 f   Acpica:hwvalid.obj
 0001:00040160       _AcpiHwWritePort           10041160 f   Acpica:hwvalid.obj
 0001:000401f0       _AcpiDsGetBufferFieldArguments 100411f0 f   Acpica:dsargs.obj
 0001:00040380       _AcpiDsGetBufferArguments  10041380 f   Acpica:dsargs.obj
 0001:000403d0       _AcpiDsGetPackageArguments 100413d0 f   Acpica:dsargs.obj
 0001:00040420       _AcpiDsGetRegionArguments  10041420 f   Acpica:dsargs.obj
 0001:00040480       _AcpiDsInitializeObjects   10041480 f   Acpica:dsinit.obj
 0001:00040610       _AcpiNsOneCompleteParse    10041610 f   Acpica:nsparse.obj
 0001:00040760       _AcpiNsParseTable          10041760 f   Acpica:nsparse.obj
 0001:00040790       _AcpiUtAllocateOwnerId     10041790 f   Acpica:utownerid.obj
 0001:00040890       _AcpiUtReleaseOwnerId      10041890 f   Acpica:utownerid.obj
 0001:00040930       _AcpiDsAutoSerializeMethod 10041930 f   Acpica:dsmethod.obj
 0001:00040a20       _AcpiDsMethodError         10041a20 f   Acpica:dsmethod.obj
 0001:00040a90       _AcpiDsBeginMethodExecution 10041a90 f   Acpica:dsmethod.obj
 0001:00040c90       _AcpiDsCallControlMethod   10041c90 f   Acpica:dsmethod.obj
 0001:00040de0       _AcpiDsRestartControlMethod 10041de0 f   Acpica:dsmethod.obj
 0001:00040e60       _AcpiDsTerminateControlMethod 10041e60 f   Acpica:dsmethod.obj
 0001:00040f80       _AcpiPsGetArg              10041f80 f   Acpica:pstree.obj
 0001:00040fd0       _AcpiPsAppendArg           10041fd0 f   Acpica:pstree.obj
 0001:00041060       _AcpiPsCreateScopeOp       10042060 f   Acpica:psutils.obj
 0001:00041080       _AcpiPsInitOp              10042080 f   Acpica:psutils.obj
 0001:000410a0       _AcpiPsAllocOp             100420a0 f   Acpica:psutils.obj
 0001:00041100       _AcpiPsFreeOp              10042100 f   Acpica:psutils.obj
 0001:00041130       _AcpiPsIsLeadingChar       10042130 f   Acpica:psutils.obj
 0001:00041150       _AcpiPsSetName             10042150 f   Acpica:psutils.obj
 0001:00041170       _AcpiPsDeleteParseTree     10042170 f   Acpica:pswalk.obj
 0001:000411c0       _AcpiPsGetOpcodeInfo       100421c0 f   Acpica:psopinfo.obj
 0001:00041220       _AcpiPsGetOpcodeName       10042220 f   Acpica:psopinfo.obj
 0001:00041230       _AcpiPsGetArgumentCount    10042230 f   Acpica:psopinfo.obj
 0001:00041250       _AcpiDsClearImplicitReturn 10042250 f   Acpica:dsutils.obj
 0001:00041280       _AcpiDsDoImplicitReturn    10042280 f   Acpica:dsutils.obj
 0001:000412e0       _AcpiDsIsResultUsed        100422e0 f   Acpica:dsutils.obj
 0001:000413d0       _AcpiDsDeleteResultIfNotUsed 100423d0 f   Acpica:dsutils.obj
 0001:00041430       _AcpiDsResolveOperands     10042430 f   Acpica:dsutils.obj
 0001:00041470       _AcpiDsClearOperands       10042470 f   Acpica:dsutils.obj
 0001:000414c0       _AcpiDsCreateOperand       100424c0 f   Acpica:dsutils.obj
 0001:00041700       _AcpiDsCreateOperands      10042700 f   Acpica:dsutils.obj
 0001:000417d0       _AcpiDsEvaluateNamePath    100427d0 f   Acpica:dsutils.obj
 0001:000418b0       _AcpiPsGetParentScope      100428b0 f   Acpica:psscope.obj
 0001:000418c0       _AcpiPsHasCompletedScope   100428c0 f   Acpica:psscope.obj
 0001:000418e0       _AcpiPsInitScope           100428e0 f   Acpica:psscope.obj
 0001:00041920       _AcpiPsPushScope           10042920 f   Acpica:psscope.obj
 0001:00041990       _AcpiPsPopScope            10042990 f   Acpica:psscope.obj
 0001:00041a00       _AcpiPsCleanupScope        10042a00 f   Acpica:psscope.obj
 0001:00041a30       _AcpiDsResultPop           10042a30 f   Acpica:dswstate.obj
 0001:00041ae0       _AcpiDsResultPush          10042ae0 f   Acpica:dswstate.obj
 0001:00041c80       _AcpiDsObjStackPush        10042c80 f   Acpica:dswstate.obj
 0001:00041ce0       _AcpiDsObjStackPop         10042ce0 f   Acpica:dswstate.obj
 0001:00041d40       _AcpiDsObjStackPopAndDelete 10042d40 f   Acpica:dswstate.obj
 0001:00041d90       _AcpiDsGetCurrentWalkState 10042d90 f   Acpica:dswstate.obj
 0001:00041da0       _AcpiDsPushWalkState       10042da0 f   Acpica:dswstate.obj
 0001:00041dc0       _AcpiDsPopWalkState        10042dc0 f   Acpica:dswstate.obj
 0001:00041de0       _AcpiDsCreateWalkState     10042de0 f   Acpica:dswstate.obj
 0001:00041e40       _AcpiDsInitAmlWalk         10042e40 f   Acpica:dswstate.obj
 0001:00041f50       _AcpiDsDeleteWalkState     10042f50 f   Acpica:dswstate.obj
 0001:00042020       _AcpiPsParseLoop           10043020 f   Acpica:psloop.obj
 0001:00042640       _AcpiUtWalkAmlResources    10043640 f   Acpica:utresrc.obj
 0001:00042720       _AcpiUtValidateResource    10043720 f   Acpica:utresrc.obj
 0001:00042860       _AcpiUtGetResourceType     10043860 f   Acpica:utresrc.obj
 0001:00042870       _AcpiUtGetResourceLength   10043870 f   Acpica:utresrc.obj
 0001:00042890       _AcpiUtGetResourceHeaderLength 10043890 f   Acpica:utresrc.obj
 0001:000428a0       _AcpiUtGetDescriptorLength 100438a0 f   Acpica:utresrc.obj
 0001:000428d0       _AcpiUtGetResourceEndTag   100438d0 f   Acpica:utresrc.obj
 0001:00042900       _AcpiRsCreateResourceList  10043900 f   Acpica:rscreate.obj
 0001:00042970       _AcpiRsCreatePciRoutingTable 10043970 f   Acpica:rscreate.obj
 0001:00042bd0       _AcpiEvWalkGpeList         10043bd0 f   Acpica:evgpeutil.obj
 0001:00042c50       _AcpiEvGetGpeXruptBlock    10043c50 f   Acpica:evgpeutil.obj
 0001:00042d30       _AcpiEvDeleteGpeXrupt      10043d30 f   Acpica:evgpeutil.obj
 0001:00042db0       _AcpiEvDeleteGpeHandlers   10043db0 f   Acpica:evgpeutil.obj
 0001:00042e50       _AcpiHwGetGpeRegisterBit   10043e50 f   Acpica:hwgpe.obj
 0001:00042e70       _AcpiHwLowSetGpe           10043e70 f   Acpica:hwgpe.obj
 0001:00042f20       _AcpiHwClearGpe            10043f20 f   Acpica:hwgpe.obj
 0001:00042f50       _AcpiHwDisableGpeBlock     10043f50 f   Acpica:hwgpe.obj
 0001:00042fc0       _AcpiExSystemWaitSemaphore 10043fc0 f   Acpica:exsystem.obj
 0001:00042fc0       _AcpiExSystemWaitMutex     10043fc0 f   Acpica:exsystem.obj
 0001:00043010       _AcpiExSystemDoStall       10044010 f   Acpica:exsystem.obj
 0001:00043050       _AcpiExSystemDoSleep       10044050 f   Acpica:exsystem.obj
 0001:00043090       _AcpiExSystemSignalEvent   10044090 f   Acpica:exsystem.obj
 0001:000430b0       _AcpiExSystemWaitEvent     100440b0 f   Acpica:exsystem.obj
 0001:000430d0       _AcpiExSystemResetEvent    100440d0 f   Acpica:exsystem.obj
 0001:00043110       _AcpiEvLowGetGpeInfo       10044110 f   Acpica:evgpe.obj
 0001:00043140       _AcpiEvGpeDetect           10044140 f   Acpica:evgpe.obj
 0001:00043330       _AcpiEvFinishGpe           10044330 f   Acpica:evgpe.obj
 0001:00043360       _AcpiEvGpeDispatch         10044360 f   Acpica:evgpe.obj
 0001:00043550       _AcpiNsComplexRepairs      10044550 f   Acpica:nsrepair2.obj
 0001:00043bf0       _AcpiNsCheckPackage        10044bf0 f   Acpica:nsprepkg.obj
 0001:00044200       _AcpiNsSimpleRepair        10045200 f   Acpica:nsrepair.obj
 0001:00044410       _AcpiNsRepairNullElement   10045410 f   Acpica:nsrepair.obj
 0001:00044480       _AcpiNsRemoveNullElements  10045480 f   Acpica:nsrepair.obj
 0001:000444d0       _AcpiNsWrapWithPackage     100454d0 f   Acpica:nsrepair.obj
 0001:00044510       _AcpiExReadDataFromField   10045510 f   Acpica:exfield.obj
 0001:00044740       _AcpiExWriteDataToField    10045740 f   Acpica:exfield.obj
 0001:00044960       _AcpiInstallFixedEventHandler 10045960 f   Acpica:evxface.obj
 0001:00044a20       _AcpiRemoveFixedEventHandler 10045a20 f   Acpica:evxface.obj
 0001:00044aa0       _AcpiHwDerivePciId         10045aa0 f   Acpica:hwpci.obj
 0001:00044cf0       _AcpiInstallAddressSpaceHandler 10045cf0 f   Acpica:evxfregn.obj
 0001:00044d90       _AcpiDsInitializeRegion    10045d90 f   Acpica:dsopcode.obj
 0001:00044db0       _AcpiDsEvalBufferFieldOperands 10045db0 f   Acpica:dsopcode.obj
 0001:000450c0       _AcpiDsEvalRegionOperands  100460c0 f   Acpica:dsopcode.obj
 0001:00045160       _AcpiDsEvalTableRegionOperands 10046160 f   Acpica:dsopcode.obj
 0001:00045250       _AcpiDsEvalDataObjectOperands 10046250 f   Acpica:dsopcode.obj
 0001:00045330       _AcpiDsEvalBankFieldOperands 10046330 f   Acpica:dsopcode.obj
 0001:000453c0       _AcpiDsMethodDataInit      100463c0 f   Acpica:dsmthdat.obj
 0001:00045440       _AcpiDsMethodDataDeleteAll 10046440 f   Acpica:dsmthdat.obj
 0001:00045490       _AcpiDsMethodDataInitArgs  10046490 f   Acpica:dsmthdat.obj
 0001:000454e0       _AcpiDsMethodDataGetNode   100464e0 f   Acpica:dsmthdat.obj
 0001:000455d0       _AcpiDsMethodDataGetValue  100465d0 f   Acpica:dsmthdat.obj
 0001:000456c0       _AcpiDsStoreObjectToLocal  100466c0 f   Acpica:dsmthdat.obj
 0001:00045810       _AcpiExResolveToValue      10046810 f   Acpica:exresolv.obj
 0001:00045aa0       _AcpiExResolveMultiple     10046aa0 f   Acpica:exresolv.obj
 0001:00045ce0       _AcpiDsBuildInternalBufferObj 10046ce0 f   Acpica:dsobject.obj
 0001:00045de0       _AcpiDsBuildInternalPackageObj 10046de0 f   Acpica:dsobject.obj
 0001:00046120       _AcpiDsCreateNode          10047120 f   Acpica:dsobject.obj
 0001:00046190       _AcpiDsInitObjectFromOp    10047190 f   Acpica:dsobject.obj
 0001:00046470       _AcpiExGetNameString       10047470 f   Acpica:exnames.obj
 0001:000467f0       _AcpiDsInitCallbacks       100477f0 f   Acpica:dswload.obj
 0001:000468a0       _AcpiDsLoad1BeginOp        100478a0 f   Acpica:dswload.obj
 0001:00046b40       _AcpiDsLoad1EndOp          10047b40 f   Acpica:dswload.obj
 0001:00046cc0       _AcpiPsBuildNamedOp        10047cc0 f   Acpica:psobject.obj
 0001:00046e00       _AcpiPsCreateOp            10047e00 f   Acpica:psobject.obj
 0001:00047030       _AcpiPsCompleteOp          10048030 f   Acpica:psobject.obj
 0001:00047260       _AcpiPsCompleteFinalOp     10048260 f   Acpica:psobject.obj
 0001:00047370       _AcpiDsGetPredicateValue   10048370 f   Acpica:dswexec.obj
 0001:000474f0       _AcpiDsExecBeginOp         100484f0 f   Acpica:dswexec.obj
 0001:00047610       _AcpiDsExecEndOp           10048610 f   Acpica:dswexec.obj
 0001:000479e0       _AcpiRsConvertAmlToResources 100489e0 f   Acpica:rslist.obj
 0001:00047ab0       _AcpiRsGetListLength       10048ab0 f   Acpica:rscalc.obj
 0001:00047d60       _AcpiRsGetPciRoutingTableLength 10048d60 f   Acpica:rscalc.obj
 0001:00047e50       _AcpiNsConvertToInteger    10048e50 f   Acpica:nsconvert.obj
 0001:00047f10       _AcpiNsConvertToString     10048f10 f   Acpica:nsconvert.obj
 0001:00047fc0       _AcpiNsConvertToBuffer     10048fc0 f   Acpica:nsconvert.obj
 0001:000480b0       _AcpiNsConvertToUnicode    100490b0 f   Acpica:nsconvert.obj
 0001:00048130       _AcpiNsConvertToResource   10049130 f   Acpica:nsconvert.obj
 0001:000481a0       _AcpiExAccessRegion        100491a0 f   Acpica:exfldio.obj
 0001:000483e0       _AcpiExWriteWithUpdateRule 100493e0 f   Acpica:exfldio.obj
 0001:000486f0       _AcpiExExtractFromField    100496f0 f   Acpica:exfldio.obj
 0001:00048940       _AcpiExInsertIntoField     10049940 f   Acpica:exfldio.obj
 0001:00048bc0       _AcpiExResolveOperands     10049bc0 f   Acpica:exresop.obj
 0001:000491a0       _AcpiExPrepCommonFieldObject 1004a1a0 f   Acpica:exprep.obj
 0001:00049290       _AcpiExPrepFieldValue      1004a290 f   Acpica:exprep.obj
 0001:00049500       _AcpiTbFindTable           1004a500 f   Acpica:tbfind.obj
 0001:00049640       _AcpiExStore               1004a640 f   Acpica:exstore.obj
 0001:000498f0       _AcpiExStoreObjectToNode   1004a8f0 f   Acpica:exstore.obj
 0001:00049a40       _AcpiDsLoad2BeginOp        1004aa40 f   Acpica:dswload2.obj
 0001:00049d60       _AcpiDsLoad2EndOp          1004ad60 f   Acpica:dswload2.obj
 0001:0004a0d0       _AcpiExCreateAlias         1004b0d0 f   Acpica:excreate.obj
 0001:0004a170       _AcpiExCreateEvent         1004b170 f   Acpica:excreate.obj
 0001:0004a1e0       _AcpiExCreateMutex         1004b1e0 f   Acpica:excreate.obj
 0001:0004a260       _AcpiExCreateRegion        1004b260 f   Acpica:excreate.obj
 0001:0004a340       _AcpiExCreateProcessor     1004b340 f   Acpica:excreate.obj
 0001:0004a3b0       _AcpiExCreatePowerResource 1004b3b0 f   Acpica:excreate.obj
 0001:0004a420       _AcpiExCreateMethod        1004b420 f   Acpica:excreate.obj
 0001:0004a4b0       _AcpiDsCreateBufferField   1004b4b0 f   Acpica:dsfield.obj
 0001:0004a5e0       _AcpiDsCreateField         1004b5e0 f   Acpica:dsfield.obj
 0001:0004a900       _AcpiDsInitFieldObjects    1004b900 f   Acpica:dsfield.obj
 0001:0004aa30       _AcpiDsCreateBankField     1004ba30 f   Acpica:dsfield.obj
 0001:0004ab20       _AcpiDsCreateIndexField    1004bb20 f   Acpica:dsfield.obj
 0001:0004abf0       _AcpiExOpcode_6A_0T_1R     1004bbf0 f   Acpica:exoparg6.obj
 0001:0004aef0       _AcpiExOpcode_3A_0T_0R     1004bef0 f   Acpica:exoparg3.obj
 0001:0004af70       _AcpiExOpcode_3A_1T_1R     1004bf70 f   Acpica:exoparg3.obj
 0001:0004b100       _AcpiExOpcode_2A_0T_0R     1004c100 f   Acpica:exoparg2.obj
 0001:0004b190       _AcpiExOpcode_2A_2T_1R     1004c190 f   Acpica:exoparg2.obj
 0001:0004b2a0       _AcpiExOpcode_2A_1T_1R     1004c2a0 f   Acpica:exoparg2.obj
 0001:0004b650       _AcpiExOpcode_2A_0T_1R     1004c650 f   Acpica:exoparg2.obj
 0001:0004b7b0       _AcpiExOpcode_0A_0T_1R     1004c7b0 f   Acpica:exoparg1.obj
 0001:0004b830       _AcpiExOpcode_1A_0T_0R     1004c830 f   Acpica:exoparg1.obj
 0001:0004b900       _AcpiExOpcode_1A_1T_0R     1004c900 f   Acpica:exoparg1.obj
 0001:0004b950       _AcpiExOpcode_1A_1T_1R     1004c950 f   Acpica:exoparg1.obj
 0001:0004bf60       _AcpiExOpcode_1A_0T_1R     1004cf60 f   Acpica:exoparg1.obj
 0001:0004c4a0       _AcpiExConvertToInteger    1004d4a0 f   Acpica:exconvrt.obj
 0001:0004c5a0       _AcpiExConvertToBuffer     1004d5a0 f   Acpica:exconvrt.obj
 0001:0004c640       _AcpiExConvertToString     1004d640 f   Acpica:exconvrt.obj
 0001:0004c8f0       _AcpiExConvertToTargetType 1004d8f0 f   Acpica:exconvrt.obj
 0001:0004ca20       _AcpiDsExecBeginControlOp  1004da20 f   Acpica:dscontrol.obj
 0001:0004cac0       _AcpiDsExecEndControlOp    1004dac0 f   Acpica:dscontrol.obj
 0001:0004cd40       _AcpiRsConvertAmlToResource 1004dd40 f   Acpica:rsmisc.obj
 0001:0004d250       _AcpiExDoDebugObject       1004e250 f   Acpica:exdebug.obj
 0001:0004d580       _AcpiExResolveObject       1004e580 f   Acpica:exstoren.obj
 0001:0004d670       _AcpiExStoreObjectToObject 1004e670 f   Acpica:exstoren.obj
 0001:0004d7a0       _AcpiExLoadTableOp         1004e7a0 f   Acpica:exconfig.obj
 0001:0004da30       _AcpiExLoadOp              1004ea30 f   Acpica:exconfig.obj
 0001:0004dcb0       _AcpiExUnloadTable         1004ecb0 f   Acpica:exconfig.obj
 0001:0004dd70       _AcpiExGetObjectReference  1004ed70 f   Acpica:exmisc.obj
 0001:0004de30       _AcpiExConcatTemplate      1004ee30 f   Acpica:exmisc.obj
 0001:0004dee0       _AcpiExDoConcatenate       1004eee0 f   Acpica:exmisc.obj
 0001:0004e090       _AcpiExDoMathOp            1004f090 f   Acpica:exmisc.obj
 0001:0004e1f0       _AcpiExDoLogicalNumericOp  1004f1f0 f   Acpica:exmisc.obj
 0001:0004e260       _AcpiExDoLogicalOp         1004f260 f   Acpica:exmisc.obj
 0001:0004e3d0       _AcpiRsGetAddressCommon    1004f3d0 f   Acpica:rsaddr.obj
 0001:0004e440       _AcpiUtDumpBuffer          1004f440 f   Acpica:utbuffer.obj
 0001:0004e5d0       _AcpiExStoreBufferToBuffer 1004f5d0 f   Acpica:exstorob.obj
 0001:0004e660       _AcpiExStoreStringToString 1004f660 f   Acpica:exstorob.obj
 0001:0004e700       __imp__QueryPerformanceCounter@4 1004f700     Rtt32:289.OBJ
 0001:0004e704       __imp__GetCurrentProcessId@0 1004f704     Rtt32:109.OBJ
 0001:0004e708       __imp__GetCurrentThreadId@0 1004f708     Rtt32:112.OBJ
 0001:0004e70c       __imp__GetSystemTimeAsFileTime@4 1004f70c     Rtt32:181.OBJ
 0001:0004e710       __imp__InitializeSListHead@4 1004f710     Rtt32:229.OBJ
 0001:0004e714       __imp__IsDebuggerPresent@0 1004f714     Rtt32:243.OBJ
 0001:0004e718       __imp__UnhandledExceptionFilter@4 1004f718     Rtt32:374.OBJ
 0001:0004e71c       __imp__SetUnhandledExceptionFilter@4 1004f71c     Rtt32:350.OBJ
 0001:0004e720       __imp__GetStartupInfoW@4   1004f720     Rtt32:169.OBJ
 0001:0004e724       __imp__GetModuleHandleW@4  1004f724     Rtt32:155.OBJ
 0001:0004e728       __imp__GetCurrentProcess@0 1004f728     Rtt32:108.OBJ
 0001:0004e72c       __imp__TerminateProcess@8  1004f72c     Rtt32:367.OBJ
 0001:0004e730       __imp__InterlockedPushEntrySList@8 1004f730     Rtt32:238.OBJ
 0001:0004e734       __imp__InterlockedFlushSList@4 1004f734     Rtt32:235.OBJ
 0001:0004e740       _RtlUnwind@16              1004f740 f   Rtt32:Except.obj
 0001:0004e830       _RTRaiseException          1004f830 f   Rtt32:Except.obj
 0001:0004eaa0       _RTKDebugVersion           1004faa0 f   Rtk32:Kernel.obj
 0001:0004eaa0       _RTFDefaultCriticalErrorHandler 1004faa0 f   RtfilesX:Rtfiles.obj
 0001:0004eaa0       _GetCurrentProcessId@0     1004faa0 f   Rtt32:System.obj
 0001:0004eab0       _UnhandledExceptionFilter@4 1004fab0 f   Rtt32:Except.obj
 0001:0004eac0       _SetUnhandledExceptionFilter@4 1004fac0 f   Rtt32:Except.obj
 0001:0004eae0       __imp__EnterCriticalSection@4 1004fae0     Rtt32:52.OBJ
 0001:0004eae4       __imp__LeaveCriticalSection@4 1004fae4     Rtt32:251.OBJ
 0001:0004eae8       __imp__DeleteCriticalSection@4 1004fae8     Rtt32:42.OBJ
 0001:0004eaec       __imp__InitializeCriticalSectionAndSpinCount@8 1004faec     Rtt32:227.OBJ
 0001:0004eaf0       __imp__TlsAlloc@0          1004faf0     Rtt32:368.OBJ
 0001:0004eaf4       __imp__TlsGetValue@4       1004faf4     Rtt32:370.OBJ
 0001:0004eaf8       __imp__TlsSetValue@8       1004faf8     Rtt32:371.OBJ
 0001:0004eafc       __imp__TlsFree@4           1004fafc     Rtt32:369.OBJ
 0001:0004eb00       __imp__FreeLibrary@4       1004fb00     Rtt32:90.OBJ
 0001:0004eb04       __imp__GetProcAddress@8    1004fb04     Rtt32:164.OBJ
 0001:0004eb08       __imp__LoadLibraryExW@12   1004fb08     Rtt32:254.OBJ
 0001:0004eb0c       __imp__ExitProcess@4       1004fb0c     Rtt32:58.OBJ
 0001:0004eb10       __imp__GetModuleHandleExW@12 1004fb10     Rtt32:154.OBJ
 0001:0004eb14       __imp__CreateThread@24     1004fb14     Rtt32:35.OBJ
 0001:0004eb18       __imp__ExitThread@4        1004fb18     Rtt32:59.OBJ
 0001:0004eb1c       __imp__ResumeThread@4      1004fb1c     Rtt32:309.OBJ
 0001:0004eb20       __imp__FreeLibraryAndExitThread@8 1004fb20     Rtt32:91.OBJ
 0001:0004eb24       __imp__GetModuleFileNameA@12 1004fb24     Rtt32:150.OBJ
 0001:0004eb28       __imp__GetModuleFileNameW@12 1004fb28     Rtt32:151.OBJ
 0001:0004eb2c       __imp__MultiByteToWideChar@24 1004fb2c     Rtt32:281.OBJ
 0001:0004eb30       __imp__WideCharToMultiByte@32 1004fb30     Rtt32:393.OBJ
 0001:0004eb34       __imp__IsProcessorFeaturePresent@4 1004fb34     Rtt32:244.OBJ
 0001:0004eb38       __imp__GetCurrentThread@0  1004fb38     Rtt32:111.OBJ
 0001:0004eb3c       __imp__GetACP@0            1004fb3c     Rtt32:94.OBJ
 0001:0004eb40       __imp__GetFileType@4       1004fb40     Rtt32:136.OBJ
 0001:0004eb44       __imp__GetDateFormatW@24   1004fb44     Rtt32:115.OBJ
 0001:0004eb48       __imp__GetTimeFormatW@24   1004fb48     Rtt32:196.OBJ
 0001:0004eb4c       __imp__CompareStringW@24   1004fb4c     Rtt32:15.OBJ
 0001:0004eb50       __imp__LCMapStringW@24     1004fb50     Rtt32:250.OBJ
 0001:0004eb54       __imp__GetLocaleInfoW@16   1004fb54     Rtt32:145.OBJ
 0001:0004eb58       __imp__IsValidLocale@8     1004fb58     Rtt32:246.OBJ
 0001:0004eb5c       __imp__GetUserDefaultLCID@0 1004fb5c     Rtt32:198.OBJ
 0001:0004eb60       __imp__EnumSystemLocalesW@8 1004fb60     Rtt32:56.OBJ
 0001:0004eb64       __imp__FindClose@4         1004fb64     Rtt32:66.OBJ
 0001:0004eb68       __imp__FindFirstFileExA@24 1004fb68     Rtt32:68.OBJ
 0001:0004eb6c       __imp__FindFirstFileExW@24 1004fb6c     Rtt32:69.OBJ
 0001:0004eb70       __imp__FindNextFileA@8     1004fb70     Rtt32:71.OBJ
 0001:0004eb74       __imp__FindNextFileW@8     1004fb74     Rtt32:72.OBJ
 0001:0004eb78       __imp__IsValidCodePage@4   1004fb78     Rtt32:245.OBJ
 0001:0004eb7c       __imp__GetOEMCP@0          1004fb7c     Rtt32:160.OBJ
 0001:0004eb80       __imp__GetCPInfo@8         1004fb80     Rtt32:104.OBJ
 0001:0004eb84       __imp__GetCommandLineA@0   1004fb84     Rtt32:96.OBJ
 0001:0004eb88       __imp__GetCommandLineW@0   1004fb88     Rtt32:97.OBJ
 0001:0004eb8c       __imp__GetEnvironmentStringsW@0 1004fb8c     Rtt32:123.OBJ
 0001:0004eb90       __imp__FreeEnvironmentStringsW@4 1004fb90     Rtt32:89.OBJ
 0001:0004eb94       __imp__SetEnvironmentVariableA@8 1004fb94     Rtt32:323.OBJ
 0001:0004eb98       __imp__SetEnvironmentVariableW@8 1004fb98     Rtt32:324.OBJ
 0001:0004eb9c       __imp__SetConsoleCtrlHandler@8 1004fb9c     Rtt32:314.OBJ
 0001:0004eba0       __imp__GetStringTypeW@16   1004fba0     Rtt32:174.OBJ
 0001:0004eba4       __imp__SetStdHandle@8      1004fba4     Rtt32:339.OBJ
 0001:0004eba8       __imp__WriteFile@20        1004fba8     Rtt32:400.OBJ
 0001:0004ebac       __imp__GetConsoleCP@0      1004fbac     Rtt32:98.OBJ
 0001:0004ebb0       __imp__GetConsoleMode@8    1004fbb0     Rtt32:100.OBJ
 0001:0004ebb4       __imp__SetFilePointerEx@20 1004fbb4     Rtt32:333.OBJ
 0001:0004ebb8       __imp__FlushFileBuffers@4  1004fbb8     Rtt32:82.OBJ
 0001:0004ebbc       __imp__EncodePointer@4     1004fbbc     Rtt32:51.OBJ
 0001:0004ebc0       __imp__DecodePointer@4     1004fbc0     Rtt32:41.OBJ
 0001:0004ebc4       __imp__OutputDebugStringW@4 1004fbc4     Rtt32:285.OBJ
 0001:0004ebc8       __imp__RaiseException@16   1004fbc8     Rtt32:292.OBJ
 0001:0004ebcc       __imp__CreateFileW@28      1004fbcc     Rtt32:23.OBJ
 0001:0004ebd0       __imp__WriteConsoleW@20    1004fbd0     Rtt32:399.OBJ
 0001:0004ebd4       __imp__GetTickCount64@0    1004fbd4     Rtt32:193.OBJ
 0001:0004ebd8       __imp__IsBadReadPtr@8      1004fbd8     Rtt32:240.OBJ
 0001:0004ebdc       __imp__IsBadWritePtr@8     1004fbdc     Rtt32:241.OBJ
 0001:0004ebe0       __imp__Sleep@4             1004fbe0     Rtt32:356.OBJ
 0001:0004ebe4       _InitializeSListHead@4     1004fbe4 f   Rtt32:Slist.obj
 0001:0004ebe4       InitializeSListHead        1004fbe4     Rtt32:Slist.obj
 0001:0004ebf8       _InterlockedFlushSList@4   1004fbf8 f   Rtt32:Slist.obj
 0001:0004ebf8       InterlockedFlushSList      1004fbf8     Rtt32:Slist.obj
 0001:0004ec1d       InterlockedPopEntrySList   1004fc1d     Rtt32:Slist.obj
 0001:0004ec1d       _InterlockedPopEntrySList@4 1004fc1d f   Rtt32:Slist.obj
 0001:0004ec40       _InterlockedPushEntrySList@8 1004fc40 f   Rtt32:Slist.obj
 0001:0004ec40       InterlockedPushEntrySList  1004fc40     Rtt32:Slist.obj
 0001:0004ec66       QueryDepthSList            1004fc66     Rtt32:Slist.obj
 0001:0004ec66       _QueryDepthSList@4         1004fc66 f   Rtt32:Slist.obj
 0001:0004ec74       _RaiseException@16         1004fc74 f   Rtt32:Raise.obj
 0001:0004ec74       RaiseException             1004fc74     Rtt32:Raise.obj
 0001:0004ec86       _RTCallXHandler            1004fc86 f   Rtt32:Raise.obj
 0001:0004eca0       _FreeLibraryAndExitThread@8 1004fca0 f   Rtt32:Freeandex.obj
 0001:0004ecc0       _GetACP@0                  1004fcc0 f   Rtt32:Cp.obj
 0001:0004ecd0       _GetCPInfo@8               1004fcd0 f   Rtt32:Cp.obj
 0001:0004ed00       _IsValidCodePage@4         1004fd00 f   Rtt32:Lcid.obj
 0001:0004ed10       _GetUserDefaultLCID@0      1004fd10 f   Rtt32:Lcid.obj
 0001:0004ed20       _GetLocaleInfoW@16         1004fd20 f   Rtt32:Lcid.obj
 0001:0004ed50       _EnumSystemLocalesW@8      1004fd50 f   Rtt32:Lcid.obj
 0001:0004ed70       _IsBadReadPtr@8            1004fd70 f   Rtt32:Isbad.obj
 0001:0004edb0       _IsBadWritePtr@8           1004fdb0 f   Rtt32:Isbad.obj
 0001:0004edf0       _GlobalAlloc@8             1004fdf0 f   Rtt32:Galloc.obj
 0001:0004ee10       _GlobalFree@4              1004fe10 f   Rtt32:Galloc.obj
 0001:0004ee30       _VariantClear@4            1004fe30 f   Rtt32:Variant.obj
 0001:0004ee40       _SysAllocStringLen@8       1004fe40 f   Rtt32:Variant.obj
 0001:0004ee90       _SysAllocStringByteLen@8   1004fe90 f   Rtt32:Variant.obj
 0001:0004eed0       _SysFreeString@4           1004fed0 f   Rtt32:Variant.obj
 0001:0004eef0       _ClearCommError@12         1004fef0 f   MyWin32API.obj
 0001:0004ef10       _SetupComm@12              1004ff10 f   MyWin32API.obj
 0001:0004ef30       _EscapeCommFunction@8      1004ff30 f   MyWin32API.obj
 0001:0004ef50       _GetCommProperties@8       1004ff50 f   MyWin32API.obj
 0001:0004ef70       _GetCommModemStatus@8      1004ff70 f   MyWin32API.obj
 0001:0004ef90       _GetCommState@8            1004ff90 f   MyWin32API.obj
 0001:0004efb0       _SetCommState@8            1004ffb0 f   MyWin32API.obj
 0001:0004efd0       _SetCommTimeouts@8         1004ffd0 f   MyWin32API.obj
 0001:0004eff0       _MessageBeep@4             1004fff0 f   MyWin32API.obj
 0001:0004f010       _PeekConsoleInputW@16      10050010 f   MyWin32API.obj
 0001:0004f030       _ScrollConsoleScreenBufferW@20 10050030 f   MyWin32API.obj
 0001:0004f0d0       _CoUninitialize@0          100500d0 f   MyWin32API.obj
 0001:0004f0e0       _CoInitialize@4            100500e0 f   MyWin32API.obj
 0001:0004f0f0       _closesocket@4             100500f0 f   MyWin32API.obj
 0001:0004f110       _WSACleanup@0              10050110 f   MyWin32API.obj
 0001:0004f130       _DllMain@12                10050130 f   Init.obj
 0001:0004f1f0       _FindUSBControllers        100501f0 f   Usbinit.obj
 0001:0004f870       ___local_stdio_printf_options 10050870 f i Usbinit.obj
 0001:0004f880       __vsnprintf_l              10050880 f i Usbinit.obj
 0001:0004f8d0       __vsprintf_l               100508d0 f i Usbinit.obj
 0001:0004f8f0       _sprintf                   100508f0 f i Usbinit.obj
 0001:0004fc2b       __DllMainCRTStartup@12     10050c2b f   Libcmt:dll_dllmain.obj
 0001:0004fc92       ___scrt_acquire_startup_lock 10050c92 f   Libcmt:utility.obj
 0001:0004fcc7       ___scrt_dllmain_after_initialize_c 10050cc7 f   Libcmt:utility.obj
 0001:0004fcf2       ___scrt_dllmain_before_initialize_c 10050cf2 f   Libcmt:utility.obj
 0001:0004fd00       ___scrt_dllmain_crt_thread_attach 10050d00 f   Libcmt:utility.obj
 0001:0004fd1f       ___scrt_dllmain_crt_thread_detach 10050d1f f   Libcmt:utility.obj
 0001:0004fd2c       ___scrt_dllmain_exception_filter 10050d2c f   Libcmt:utility.obj
 0001:0004fd5f       ___scrt_dllmain_uninitialize_c 10050d5f f   Libcmt:utility.obj
 0001:0004fd82       ___scrt_dllmain_uninitialize_critical 10050d82 f   Libcmt:utility.obj
 0001:0004fd8f       ___scrt_initialize_crt     10050d8f f   Libcmt:utility.obj
 0001:0004fdc8       ___scrt_initialize_onexit_tables 10050dc8 f   Libcmt:utility.obj
 0001:0004fe5f       ___scrt_is_nonwritable_in_current_image 10050e5f f   Libcmt:utility.obj
 0001:0004fee9       ___scrt_release_startup_lock 10050ee9 f   Libcmt:utility.obj
 0001:0004ff06       ___scrt_uninitialize_crt   10050f06 f   Libcmt:utility.obj
 0001:0004ff2e       __onexit                   10050f2e f   Libcmt:utility.obj
 0001:0004ff69       _atexit                    10050f69 f   Libcmt:utility.obj
 0001:0004ff7e       @__security_check_cookie@4 10050f7e f   Libcmt:_secchk_.obj
 0001:0004ff90       __aulldiv                  10050f90 f   Libcmt:ulldiv.obj
 0001:00050000       __aullrem                  10051000 f   Libcmt:ullrem.obj
 0001:00050080       __aullshr                  10051080 f   Libcmt:ullshr.obj
 0001:000500a0       __allshl                   100510a0 f   Libcmt:llshl.obj
 0001:000500c0       __allmul                   100510c0 f   Libcmt:llmul.obj
 0001:000500f4       ___security_init_cookie    100510f4 f   Libcmt:gs_support.obj
 0001:00050190       ?__scrt_initialize_type_info@@YAXXZ 10051190 f   Libcmt:tncleanup.obj
 0001:0005019c       ?__scrt_uninitialize_type_info@@YAXXZ 1005119c f   Libcmt:tncleanup.obj
 0001:000501a8       ___local_stdio_scanf_options 100511a8 f i Libcmt:default_local_stdio_options.obj
 0001:000501ae       ___scrt_initialize_default_local_stdio_options 100511ae f   Libcmt:default_local_stdio_options.obj
 0001:000501cb       ___scrt_get_dyn_tls_init_callback 100511cb f   Libcmt:dyn_tls_init.obj
 0001:000501d1       ___scrt_fastfail           100511d1 f   Libcmt:utility_desktop.obj
 0001:000502ec       __crt_debugger_hook        100512ec f   Libcmt:utility_desktop.obj
 0001:000502f4       __RTC_Initialize           100512f4 f   Libcmt:_initsect_.obj
 0001:0005031f       __RTC_Terminate            1005131f f   Libcmt:_initsect_.obj
 0001:0005034a       @_guard_check_icall@4      1005134a f i Libcmt:checkcfg.obj
 0001:00050350       __SEH_prolog4              10051350 f   Libcmt:_sehprolg4_.obj
 0001:00050396       __SEH_epilog4              10051396 f   Libcmt:_sehprolg4_.obj
 0001:000503ab       ___isa_available_init      100513ab f   Libcmt:_cpu_disp_.obj
 0001:00050545       __get_startup_argv_mode    10051545 f   Libcmt:argv_mode.obj
 0001:00050549       ___scrt_is_ucrt_dll_in_use 10051549 f   Libcmt:ucrt_detection.obj
 0001:00050555       ___raise_securityfailure   10051555 f   Libcmt:gs_report.obj
 0001:0005057d       ___report_gsfailure        1005157d f   Libcmt:gs_report.obj
 0001:00050680       _strchr                    10051680 f   libvcruntime:strchr.obj
 0001:000506ee       ___from_strstr_to_strchr   100516ee     libvcruntime:strchr.obj
 0001:000507b0       _strrchr                   100517b0 f   libvcruntime:strrchr.obj
 0001:000508f0       _memmove                   100518f0 f   libvcruntime:memmove.obj
 0001:00050e70       _strstr                    10051e70 f   libvcruntime:strstr.obj
 0001:00051120       __except_handler4          10052120 f   libvcruntime:_chandler4_.obj
 0001:00051286       ___vcrt_initialize         10052286 f   libvcruntime:initialization.obj
 0001:000512af       ___vcrt_thread_attach      100522af f   libvcruntime:initialization.obj
 0001:000512ba       ___vcrt_thread_detach      100522ba f   libvcruntime:initialization.obj
 0001:000512c5       ___vcrt_uninitialize       100522c5 f   libvcruntime:initialization.obj
 0001:000512e4       ___vcrt_uninitialize_critical 100522e4 f   libvcruntime:initialization.obj
 0001:000512ec       ___std_type_info_destroy_list 100522ec f   libvcruntime:std_type_info.obj
 0001:00051310       _memset                    10052310 f   libvcruntime:memset.obj
 0001:00051470       __local_unwind4            10052470 f   libvcruntime:_exsup4_.obj
 0001:00051546       __seh_longjmp_unwind4@4    10052546 f   libvcruntime:_exsup4_.obj
 0001:0005156e       @_EH4_CallFilterFunc@8     1005256e f   libvcruntime:_exsup4_.obj
 0001:00051585       @_EH4_TransferToHandler@8  10052585 f   libvcruntime:_exsup4_.obj
 0001:0005159e       @_EH4_GlobalUnwind2@8      1005259e f   libvcruntime:_exsup4_.obj
 0001:000515b7       @_EH4_LocalUnwind@16       100525b7 f   libvcruntime:_exsup4_.obj
 0001:000515ce       ___except_validate_context_record 100525ce f   libvcruntime:jbcxrval.obj
 0001:000515ce       @_guard_check_icall_nop@4  100525ce f   Libcmt:guard_support.obj
 0001:000515ce       ___except_validate_jump_buffer 100525ce f   libvcruntime:jbcxrval.obj
 0001:000515cf       ___vcrt_freefls@4          100525cf f   libvcruntime:per_thread_data.obj
 0001:000515eb       ___vcrt_freeptd            100525eb f   libvcruntime:per_thread_data.obj
 0001:00051621       ___vcrt_getptd_noexit      10052621 f   libvcruntime:per_thread_data.obj
 0001:000516b3       ___vcrt_initialize_ptd     100526b3 f   libvcruntime:per_thread_data.obj
 0001:000516e6       ___vcrt_uninitialize_ptd   100526e6 f   libvcruntime:per_thread_data.obj
 0001:00051701       ___vcrt_initialize_locks   10052701 f   libvcruntime:locks.obj
 0001:0005173d       ___vcrt_uninitialize_locks 1005273d f   libvcruntime:locks.obj
 0001:0005176c       ??$__crt_fast_encode_pointer@PAP6AXXZ@@YAPAP6AXXZQAP6AXXZ@Z 1005276c f i Libcmt:utility.obj
 0001:0005176c       ??$__crt_fast_encode_pointer@PAX@@YAPAXQAX@Z 1005276c f i libvcruntime:winapi_downlevel.obj
 0001:000518aa       ___vcrt_FlsAlloc           100528aa f   libvcruntime:winapi_downlevel.obj
 0001:000518e4       ___vcrt_FlsFree            100528e4 f   libvcruntime:winapi_downlevel.obj
 0001:0005191e       ___vcrt_FlsGetValue        1005291e f   libvcruntime:winapi_downlevel.obj
 0001:00051958       ___vcrt_FlsSetValue        10052958 f   libvcruntime:winapi_downlevel.obj
 0001:00051995       ___vcrt_InitializeCriticalSectionEx 10052995 f   libvcruntime:winapi_downlevel.obj
 0001:000519db       ___vcrt_initialize_winapi_thunks 100529db f   libvcruntime:winapi_downlevel.obj
 0001:00051a15       ___vcrt_uninitialize_winapi_thunks 10052a15 f   libvcruntime:winapi_downlevel.obj
 0001:00051a47       ___vcrt_initialize_pure_virtual_call_handler 10052a47 f   libvcruntime:purevirt_data.obj
 0001:00051a70       __global_unwind2           10052a70 f   libvcruntime:_exsup_.obj
 0001:00051ad5       __local_unwind2            10052ad5 f   libvcruntime:_exsup_.obj
 0001:00051b59       __abnormal_termination     10052b59 f   libvcruntime:_exsup_.obj
 0001:00051b7c       __NLG_Notify1              10052b7c f   libvcruntime:_exsup_.obj
 0001:00051b85       __NLG_Notify               10052b85 f   libvcruntime:_exsup_.obj
 0001:00051b9c       __NLG_Dispatch             10052b9c     libvcruntime:_exsup_.obj
 0001:00051b9c       __NLG_Dispatch2            10052b9c     libvcruntime:_exsup_.obj
 0001:00051ba4       __NLG_Call                 10052ba4 f   libvcruntime:_exsup_.obj
 0001:00051ba6       __NLG_Return2              10052ba6     libvcruntime:_exsup_.obj
 0001:00051d27       ??$count@D@formatting_buffer@__crt_stdio_output@@QBEIXZ 10052d27 f i libucrt:output.obj
 0001:00051d3f       ??$ensure_buffer_is_big_enough@D@formatting_buffer@__crt_stdio_output@@QAE_NI@Z 10052d3f f i libucrt:output.obj
 0001:00051dc5       ??$is_wide_character_specifier@D@__crt_stdio_output@@YA_N_KDW4length_modifier@0@@Z 10052dc5 f i libucrt:output.obj
 0001:00051dff       ??$scratch_data@D@formatting_buffer@__crt_stdio_output@@QAEPADXZ 10052dff f i libucrt:output.obj
 0001:00051e1d       ??$type_case_integer_parse_into_buffer@I@?$output_processor@DV?$string_output_adapter@D@__crt_stdio_output@@V?$standard_base@DV?$string_output_adapter@D@__crt_stdio_output@@@2@@__crt_stdio_output@@AAEXII_N@Z 10052e1d f i libucrt:output.obj
 0001:00051e8f       ??$type_case_integer_parse_into_buffer@_K@?$output_processor@DV?$string_output_adapter@D@__crt_stdio_output@@V?$standard_base@DV?$string_output_adapter@D@__crt_stdio_output@@@2@@__crt_stdio_output@@AAEX_KI_N@Z 10052e8f f i libucrt:output.obj
 0001:00051f16       ??$write_multiple_characters@V?$string_output_adapter@D@__crt_stdio_output@@D@__crt_stdio_output@@YAXABV?$string_output_adapter@D@0@DHQAH@Z 10052f16 f i libucrt:output.obj
 0001:00051f42       ??0?$common_data@D@__crt_stdio_output@@IAE@XZ 10052f42 f i libucrt:output.obj
 0001:00051f89       ??0?$output_adapter_data@DV?$string_output_adapter@D@__crt_stdio_output@@@__crt_stdio_output@@IAE@ABV?$string_output_adapter@D@1@_KQBDQAU__crt_locale_pointers@@QAD@Z 10052f89 f i libucrt:output.obj
 0001:00051fc5       ??0_LocaleUpdate@@QAE@QAU__crt_locale_pointers@@@Z 10052fc5 f i libucrt:output.obj
 0001:00052048       ??1formatting_buffer@__crt_stdio_output@@QAE@XZ 10053048 f i libucrt:output.obj
 0001:00052062       ??4?$__crt_unique_heap_ptr@DU__crt_internal_free_policy@@@@QAEAAV0@$$QAV0@@Z 10053062 f i libucrt:output.obj
 0001:00052086       ?crop_zeroes@__crt_stdio_output@@YAXPADQAU__crt_locale_pointers@@@Z 10053086 f i libucrt:output.obj
 0001:000520dd       ?find_next_state@?$output_processor@DV?$string_output_adapter@D@__crt_stdio_output@@V?$standard_base@DV?$string_output_adapter@D@__crt_stdio_output@@@2@@__crt_stdio_output@@ABE?AW4state@2@DW432@@Z 100530dd f i libucrt:output.obj
 0001:0005210f       ?force_decimal_point@__crt_stdio_output@@YAXPADQAU__crt_locale_pointers@@@Z 1005310f f i libucrt:output.obj
 0001:0005216b       ?parse_int_from_format_string@?$output_processor@DV?$string_output_adapter@D@__crt_stdio_output@@V?$standard_base@DV?$string_output_adapter@D@__crt_stdio_output@@@2@@__crt_stdio_output@@AAE_NQAH@Z 1005316b f i libucrt:output.obj
 0001:000521e3       ?process@?$output_processor@DV?$string_output_adapter@D@__crt_stdio_output@@V?$standard_base@DV?$string_output_adapter@D@__crt_stdio_output@@@2@@__crt_stdio_output@@QAEHXZ 100531e3 f i libucrt:output.obj
 0001:000522ff       ?state_case_flag@?$output_processor@DV?$string_output_adapter@D@__crt_stdio_output@@V?$standard_base@DV?$string_output_adapter@D@__crt_stdio_output@@@2@@__crt_stdio_output@@AAE_NXZ 100532ff f i libucrt:output.obj
 0001:0005233c       ?state_case_normal@?$output_processor@DV?$string_output_adapter@D@__crt_stdio_output@@V?$standard_base@DV?$string_output_adapter@D@__crt_stdio_output@@@2@@__crt_stdio_output@@AAE_NXZ 1005333c f i libucrt:output.obj
 0001:0005235b       ?state_case_normal_common@?$output_processor@DV?$string_output_adapter@D@__crt_stdio_output@@V?$standard_base@DV?$string_output_adapter@D@__crt_stdio_output@@@2@@__crt_stdio_output@@AAE_NXZ 1005335b f i libucrt:output.obj
 0001:00052385       ?state_case_normal_tchar@?$output_processor@DV?$string_output_adapter@D@__crt_stdio_output@@V?$standard_base@DV?$string_output_adapter@D@__crt_stdio_output@@@2@@__crt_stdio_output@@AAE_ND@Z 10053385 f i libucrt:output.obj
 0001:000523e1       ?state_case_precision@?$output_processor@DV?$string_output_adapter@D@__crt_stdio_output@@V?$standard_base@DV?$string_output_adapter@D@__crt_stdio_output@@@2@@__crt_stdio_output@@AAE_NXZ 100533e1 f i libucrt:output.obj
 0001:00052409       ?state_case_size@?$output_processor@DV?$string_output_adapter@D@__crt_stdio_output@@V?$standard_base@DV?$string_output_adapter@D@__crt_stdio_output@@@2@@__crt_stdio_output@@AAE_NXZ 10053409 f i libucrt:output.obj
 0001:00052572       ?state_case_type@?$output_processor@DV?$string_output_adapter@D@__crt_stdio_output@@V?$standard_base@DV?$string_output_adapter@D@__crt_stdio_output@@@2@@__crt_stdio_output@@AAE_NXZ 10053572 f i libucrt:output.obj
 0001:000527a2       ?state_case_width@?$output_processor@DV?$string_output_adapter@D@__crt_stdio_output@@V?$standard_base@DV?$string_output_adapter@D@__crt_stdio_output@@@2@@__crt_stdio_output@@AAE_NXZ 100537a2 f i libucrt:output.obj
 0001:000527cd       ?to_integer_size@__crt_stdio_output@@YAIW4length_modifier@1@@Z 100537cd f i libucrt:output.obj
 0001:00052829       ?type_case_Z@?$output_processor@DV?$string_output_adapter@D@__crt_stdio_output@@V?$standard_base@DV?$string_output_adapter@D@__crt_stdio_output@@@2@@__crt_stdio_output@@AAE_NXZ 10053829 f i libucrt:output.obj
 0001:0005288c       ?type_case_a@?$output_processor@DV?$string_output_adapter@D@__crt_stdio_output@@V?$standard_base@DV?$string_output_adapter@D@__crt_stdio_output@@@2@@__crt_stdio_output@@AAE_NXZ 1005388c f i libucrt:output.obj
 0001:000529ea       ?type_case_c_tchar@?$output_processor@DV?$string_output_adapter@D@__crt_stdio_output@@V?$standard_base@DV?$string_output_adapter@D@__crt_stdio_output@@@2@@__crt_stdio_output@@AAE_ND@Z 100539ea f i libucrt:output.obj
 0001:00052a7a       ?type_case_integer@?$output_processor@DV?$string_output_adapter@D@__crt_stdio_output@@V?$standard_base@DV?$string_output_adapter@D@__crt_stdio_output@@@2@@__crt_stdio_output@@AAE_NI_N@Z 10053a7a f i libucrt:output.obj
 0001:00052bc8       ?type_case_n@?$output_processor@DV?$string_output_adapter@D@__crt_stdio_output@@V?$standard_base@DV?$string_output_adapter@D@__crt_stdio_output@@@2@@__crt_stdio_output@@AAE_NXZ 10053bc8 f i libucrt:output.obj
 0001:00052c3c       ?type_case_o@?$output_processor@DV?$string_output_adapter@D@__crt_stdio_output@@V?$standard_base@DV?$string_output_adapter@D@__crt_stdio_output@@@2@@__crt_stdio_output@@AAE_NXZ 10053c3c f i libucrt:output.obj
 0001:00052c5b       ?type_case_p@?$output_processor@DV?$string_output_adapter@D@__crt_stdio_output@@V?$standard_base@DV?$string_output_adapter@D@__crt_stdio_output@@@2@@__crt_stdio_output@@AAE_NXZ 10053c5b f i libucrt:output.obj
 0001:00052c73       ?type_case_s@?$output_processor@DV?$string_output_adapter@D@__crt_stdio_output@@V?$standard_base@DV?$string_output_adapter@D@__crt_stdio_output@@@2@@__crt_stdio_output@@AAE_NXZ 10053c73 f i libucrt:output.obj
 0001:00052ce6       ?validate@?$c_string_character_source@D@__crt_strtox@@QBE_NXZ 10053ce6 f i libucrt:atox.obj
 0001:00052ce6       ?validate@?$string_output_adapter@D@__crt_stdio_output@@QBE_NXZ 10053ce6 f i libucrt:output.obj
 0001:00052d01       ?write_character@?$string_output_adapter@D@__crt_stdio_output@@QBE_NDQAH@Z 10053d01 f i libucrt:output.obj
 0001:00052d43       ?write_stored_string_tchar@?$output_processor@DV?$string_output_adapter@D@__crt_stdio_output@@V?$standard_base@DV?$string_output_adapter@D@__crt_stdio_output@@@2@@__crt_stdio_output@@AAE_ND@Z 10053d43 f i libucrt:output.obj
 0001:00052dec       ?write_string@?$string_output_adapter@D@__crt_stdio_output@@QBEXQBDHQAHAAV__crt_deferred_errno_cache@@@Z 10053dec f i libucrt:output.obj
 0001:00052e53       ___stdio_common_vsprintf   10053e53 f   libucrt:output.obj
 0001:000530ff       ___acrt_initialize_thread_local_exit_callback 100540ff f   libucrt:exit.obj
 0001:0005310e       __cexit                    1005410e f   libucrt:exit.obj
 0001:0005311d       __exit                     1005411d f   libucrt:exit.obj
 0001:00053133       __is_c_termination_complete 10054133 f   libucrt:exit.obj
 0001:00053139       _exit                      10054139 f   libucrt:exit.obj
 0001:00053150       _strpbrk                   10054150 f   libucrt:strpbrk.obj
 0001:00053190       _strncpy                   10054190 f   libucrt:strncpy.obj
 0001:00053412       __beginthreadex            10054412 f   libucrt:thread.obj
 0001:00053497       __endthreadex              10054497 f   libucrt:thread.obj
 0001:00053590       _qsort                     10054590 f   libucrt:qsort.obj
 0001:00053922       __initterm                 10054922 f   libucrt:initterm.obj
 0001:0005397e       __initterm_e               1005497e f   libucrt:initterm.obj
 0001:000539c3       __seh_filter_dll           100549c3 f   libucrt:exception_filter.obj
 0001:000539e3       __seh_filter_exe           100549e3 f   libucrt:exception_filter.obj
 0001:00053e01       ___acrt_allocate_buffer_for_argv 10054e01 f   libucrt:argv_parsing.obj
 0001:00053e50       __configure_narrow_argv    10054e50 f   libucrt:argv_parsing.obj
 0001:00053fb4       ??$uninitialize@A6AXAAPAPAD@Z@?$dual_state_global@PAPAD@__crt_state_management@@QAEXA6AXAAPAPAD@Z@Z 10054fb4 f i libucrt:environment_initialization.obj
 0001:00053fb4       ??$uninitialize@A6AXAAPAPA_W@Z@?$dual_state_global@PAPA_W@__crt_state_management@@QAEXA6AXAAPAPA_W@Z@Z 10054fb4 f i libucrt:environment_initialization.obj
 0001:0005402a       ___dcrt_uninitialize_environments_nolock 1005502a f   libucrt:environment_initialization.obj
 0001:00054061       __initialize_narrow_environment 10055061 f   libucrt:environment_initialization.obj
 0001:00054108       ??$__crt_fast_encode_pointer@P6AHXZ@@YAP6AHXZQ6AHXZ@Z 10055108 f i libucrt:onexit.obj
 0001:00054386       __crt_atexit               10055386 f   libucrt:onexit.obj
 0001:0005439c       __execute_onexit_table     1005539c f   libucrt:onexit.obj
 0001:000543cb       __initialize_onexit_table  100553cb f   libucrt:onexit.obj
 0001:00054408       __register_onexit_function 10055408 f   libucrt:onexit.obj
 0001:00054549       ___acrt_initialize         10055549 f   libucrt:initialization.obj
 0001:0005455b       ___acrt_thread_attach      1005555b f   libucrt:initialization.obj
 0001:00054566       ___acrt_thread_detach      10055566 f   libucrt:initialization.obj
 0001:0005456e       ___acrt_uninitialize       1005556e f   libucrt:initialization.obj
 0001:00054580       ___acrt_uninitialize_critical 10055580 f   libucrt:initialization.obj
 0001:00054592       _terminate                 10055592 f   libucrt:terminate.obj
 0001:000545ce       _strcpy_s                  100555ce f   libucrt:strcpy_s.obj
 0001:00054628       _abort                     10055628 f   libucrt:abort.obj
 0001:0005466c       __calloc_base              1005566c f   libucrt:calloc_base.obj
 0001:000546c9       ??$is_overflow_condition@K@__crt_strtox@@YA_NIK@Z 100556c9 f i libucrt:atox.obj
 0001:000546fa       ??$parse_integer@KV?$c_string_character_source@D@__crt_strtox@@@__crt_strtox@@YAKQAU__crt_locale_pointers@@V?$c_string_character_source@D@0@H_N@Z 100556fa f i libucrt:atox.obj
 0001:00054923       ?unget@?$c_string_character_source@D@__crt_strtox@@QAEXD@Z 10055923 f i libucrt:atox.obj
 0001:0005494b       __chvalidchk_l             1005594b f i libucrt:atox.obj
 0001:00054975       __ischartype_l             10055975 f i libucrt:atox.obj
 0001:000549a8       ___acrt_call_reportfault   100559a8 f   libucrt:invalid_parameter.obj
 0001:00054ae3       ___acrt_initialize_invalid_parameter_handler 10055ae3 f   libucrt:invalid_parameter.obj
 0001:00054af2       __invalid_parameter        10055af2 f   libucrt:invalid_parameter.obj
 0001:00054b6d       __invalid_parameter_noinfo 10055b6d f   libucrt:invalid_parameter.obj
 0001:00054b7d       __invoke_watson            10055b7d f   libucrt:invalid_parameter.obj
 0001:00054bb1       __isdigit_l                10055bb1 f i libucrt:_ctype.obj
 0001:00054be9       _isdigit                   10055be9 f i libucrt:_ctype.obj
 0001:00054d7d       __tolower_l                10055d7d f   libucrt:tolower_toupper.obj
 0001:00054d97       _tolower                   10055d97 f   libucrt:tolower_toupper.obj
 0001:00054dc7       ___acrt_errno_from_os_error 10055dc7 f   libucrt:errno.obj
 0001:00054e0a       ___acrt_errno_map_os_error 10055e0a f   libucrt:errno.obj
 0001:00054e2d       ___doserrno                10055e2d f   libucrt:errno.obj
 0001:00054e40       __errno                    10055e40 f   libucrt:errno.obj
 0001:00054e53       ??$make_c_string_character_source@DPAPAD@__crt_strtox@@YA?AV?$c_string_character_source@D@0@QBDQAPAD@Z 10055e53 f i libucrt:strtox.obj
 0001:00054e6e       _strtol                    10055e6e f   libucrt:strtox.obj
 0001:00054e9a       __mbtowc_l                 10055e9a f   libucrt:mbtowc.obj
 0001:00054f94       _mbtowc                    10055f94 f   libucrt:mbtowc.obj
 0001:00054fae       __wctomb_s_l               10055fae f   libucrt:wctomb.obj
 0001:000550cf       _wctomb_s                  100560cf f   libucrt:wctomb.obj
 0001:000550ec       _strnlen                   100560ec f   libucrt:strnlen.obj
 0001:0005520e       _wcsnlen                   1005620e f   libucrt:strnlen.obj
 0001:000556d3       ___acrt_freeptd            100566d3 f   libucrt:per_thread_data.obj
 0001:000556ff       ___acrt_getptd             100566ff f   libucrt:per_thread_data.obj
 0001:000557b3       ___acrt_getptd_head        100567b3 f   libucrt:per_thread_data.obj
 0001:0005584d       ___acrt_getptd_noexit      1005684d f   libucrt:per_thread_data.obj
 0001:00055900       ___acrt_initialize_ptd     10056900 f   libucrt:per_thread_data.obj
 0001:0005592c       ___acrt_uninitialize_ptd   1005692c f   libucrt:per_thread_data.obj
 0001:00055946       ___acrt_update_locale_info 10056946 f   libucrt:locale_update.obj
 0001:00055973       ___acrt_update_multibyte_info 10056973 f   libucrt:locale_update.obj
 0001:000559a0       ?__acrt_fp_classify@@YA?AW4__acrt_fp_class@@ABN@Z 100569a0 f i libucrt:cvt.obj
 0001:00055a06       ?__acrt_fp_is_negative@@YA_NABN@Z 10056a06 f i libucrt:cvt.obj
 0001:00056274       ___acrt_fp_format          10057274 f   libucrt:cvt.obj
 0001:000563be       __fileno                   100573be f   libucrt:fileno.obj
 0001:000563e4       ___acrt_initialize_stdio   100573e4 f   libucrt:_file.obj
 0001:000564ac       ___acrt_uninitialize_stdio 100574ac f   libucrt:_file.obj
 0001:000564f8       __lock_file                100574f8 f   libucrt:_file.obj
 0001:0005650c       __unlock_file              1005750c f   libucrt:_file.obj
 0001:00056520       __get_printf_count_output  10057520 f   libucrt:printf_count_output.obj
 0001:00056599       ___acrt_set_locale_changed 10057599 f   libucrt:wsetlocale.obj
 0001:000565a4       ___acrt_uninitialize_locale 100575a4 f   libucrt:wsetlocale.obj
 0001:00056737       ___acrt_initialize_lowio   10057737 f   libucrt:ioinit.obj
 0001:0005678d       ___acrt_uninitialize_lowio 1005778d f   libucrt:ioinit.obj
 0001:000567b9       ___acrt_initialize_locks   100577b9 f   libucrt:locks.obj
 0001:000567fa       ___acrt_lock               100577fa f   libucrt:locks.obj
 0001:00056811       ___acrt_uninitialize_locks 10057811 f   libucrt:locks.obj
 0001:00056842       ___acrt_unlock             10057842 f   libucrt:locks.obj
 0001:00056859       ___acrt_get_begin_thread_init_policy 10057859 f   libucrt:win_policies.obj
 0001:0005689e       ___acrt_get_process_end_policy 1005789e f   libucrt:win_policies.obj
 0001:00056a4f       ___acrt_AppPolicyGetProcessTerminationMethodInternal@4 10057a4f f   libucrt:winapi_thunks.obj
 0001:00056aa6       ___acrt_AppPolicyGetThreadInitializationTypeInternal@4 10057aa6 f   libucrt:winapi_thunks.obj
 0001:00056afd       ___acrt_FlsAlloc@4         10057afd f   libucrt:winapi_thunks.obj
 0001:00056b53       ___acrt_FlsFree@4          10057b53 f   libucrt:winapi_thunks.obj
 0001:00056ba9       ___acrt_FlsGetValue@4      10057ba9 f   libucrt:winapi_thunks.obj
 0001:00056bff       ___acrt_FlsSetValue@8      10057bff f   libucrt:winapi_thunks.obj
 0001:00056c58       ___acrt_InitializeCriticalSectionEx@12 10057c58 f   libucrt:winapi_thunks.obj
 0001:00056cba       ___acrt_LCMapStringEx@36   10057cba f   libucrt:winapi_thunks.obj
 0001:00056d2e       ___acrt_LocaleNameToLCID@8 10057d2e f   libucrt:winapi_thunks.obj
 0001:00056d76       ___acrt_RoInitialize@4     10057d76 f   libucrt:winapi_thunks.obj
 0001:00056dc8       ___acrt_RoUninitialize@0   10057dc8 f   libucrt:winapi_thunks.obj
 0001:00056e11       ___acrt_initialize_winapi_thunks 10057e11 f   libucrt:winapi_thunks.obj
 0001:00056e4d       ___acrt_uninitialize_winapi_thunks 10057e4d f   libucrt:winapi_thunks.obj
 0001:00057339       ___acrt_expand_narrow_argv_wildcards 10058339 f   libucrt:argv_wildcards.obj
 0001:00057864       ___acrt_initialize_multibyte 10058864 f   libucrt:mbctype.obj
 0001:000578b1       ___acrt_update_thread_multibyte_data 100588b1 f   libucrt:mbctype.obj
 0001:000578c5       __setmbcp_nolock           100588c5 f   libucrt:mbctype.obj
 0001:00057b0f       __ismbblead                10058b0f f   libucrt:ismbbyte.obj
 0001:00057b27       ___acrt_initialize_command_line 10058b27 f   libucrt:argv_data.obj
 0001:00057b40       ___acrt_uninitialize_command_line 10058b40 f   libucrt:argv_data.obj
 0001:00057b7a       ___dcrt_get_narrow_environment_from_os 10058b7a f   libucrt:get_environment_from_os.obj
 0001:00057bfd       ___acrt_initialize_heap    10058bfd f   libucrt:heap_handle.obj
 0001:00057c0e       ___acrt_uninitialize_heap  10058c0e f   libucrt:heap_handle.obj
 0001:00057c18       ___acrt_execute_initializers 10058c18 f   libucrt:shared_initialization.obj
 0001:00057c9b       ___acrt_execute_uninitializers 10058c9b f   libucrt:shared_initialization.obj
 0001:00057ce8       ?initialize@?$dual_state_global@PAU__crt_locale_data@@@__crt_state_management@@QAEXQAU__crt_locale_data@@@Z 10058ce8 f i libucrt:initialization.obj
 0001:00057ce8       ?initialize@?$dual_state_global@PAPAD@__crt_state_management@@QAEXQAPAD@Z 10058ce8 f i libucrt:environment_initialization.obj
 0001:00057ce8       ?initialize@?$dual_state_global@P6AHPAU_exception@@@Z@__crt_state_management@@QAEXQ6AHPAU_exception@@@Z@Z 10058ce8 f i libucrt:matherr.obj
 0001:00057ce8       ?initialize@?$dual_state_global@P6AHI@Z@__crt_state_management@@QAEXQ6AHI@Z@Z 10058ce8 f i libucrt:new_handler.obj
 0001:00057ce8       ?initialize@?$dual_state_global@P6AXH@Z@__crt_state_management@@QAEXQ6AXH@Z@Z 10058ce8 f i libucrt:signal.obj
 0001:00057ce8       ?initialize@?$dual_state_global@PAU__crt_multibyte_data@@@__crt_state_management@@QAEXQAU__crt_multibyte_data@@@Z 10058ce8 f i libucrt:mbctype.obj
 0001:00057d19       ___acrt_initialize_new_handler 10058d19 f   libucrt:new_handler.obj
 0001:00057d2d       __callnewh                 10058d2d f   libucrt:new_handler.obj
 0001:00057d71       __query_new_handler        10058d71 f   libucrt:new_handler.obj
 0001:00057e87       ___acrt_get_sigabrt_handler 10058e87 f   libucrt:signal.obj
 0001:00057eb0       ___acrt_initialize_signal_handlers 10058eb0 f   libucrt:signal.obj
 0001:00057eeb       ___fpecode                 10058eeb f   libucrt:signal.obj
 0001:00057ef4       _raise                     10058ef4 f   libucrt:signal.obj
 0001:000580f5       ___acrt_has_user_matherr   100590f5 f   libucrt:matherr.obj
 0001:0005810e       ___acrt_initialize_user_matherr 1005910e f   libucrt:matherr.obj
 0001:00058122       ___acrt_invoke_user_matherr 10059122 f   libucrt:matherr.obj
 0001:0005816b       __query_new_mode           1005916b f   libucrt:new_mode.obj
 0001:00058171       ___pctype_func             10059171 f   libucrt:ctype.obj
 0001:00058197       __isctype_l                10059197 f   libucrt:isctype.obj
 0001:00058269       __isleadbyte_l             10059269 f i libucrt:_wctype.obj
 0001:000584b4       ___acrt_LCMapStringA       100594b4 f   libucrt:lcmapstringa.obj
 0001:000584ff       __freea_crt                100594ff f i libucrt:lcmapstringa.obj
 0001:0005851f       ___acrt_add_locale_ref     1005951f f   libucrt:locale_refcounting.obj
 0001:0005859c       ___acrt_free_locale        1005959c f   libucrt:locale_refcounting.obj
 0001:000586e6       ___acrt_locale_add_lc_time_reference 100596e6 f   libucrt:locale_refcounting.obj
 0001:0005870f       ___acrt_locale_free_lc_time_if_unreferenced 1005970f f   libucrt:locale_refcounting.obj
 0001:0005873f       ___acrt_locale_release_lc_time_reference 1005973f f   libucrt:locale_refcounting.obj
 0001:00058768       ___acrt_release_locale_ref 10059768 f   libucrt:locale_refcounting.obj
 0001:000587e9       ___acrt_update_thread_locale_data 100597e9 f   libucrt:locale_refcounting.obj
 0001:00058860       __updatetlocinfoEx_nolock  10059860 f   libucrt:locale_refcounting.obj
 0001:000588b0       ___acrt_fp_strflt_to_string 100598b0 f   libucrt:_fptostr.obj
 0001:00058970       ?divide@__crt_strtox@@YA_KAAUbig_integer@1@ABU21@@Z 10059970 f i libucrt:cfout.obj
 0001:00058e1e       ___acrt_fltout             10059e1e f   libucrt:cfout.obj
 0001:0005a27a       __fcloseall                1005b27a f   libucrt:closeall.obj
 0001:0005a510       ___acrt_stdio_flush_nolock 1005b510 f   libucrt:fflush.obj
 0001:0005a573       __fflush_nolock            1005b573 f   libucrt:fflush.obj
 0001:0005a5ba       __flushall                 1005b5ba f   libucrt:fflush.obj
 0001:0005a5c3       ___acrt_stdio_free_buffer_nolock 1005b5c3 f   libucrt:_freebuf.obj
 0001:0005a601       __isatty                   1005b601 f   libucrt:isatty.obj
 0001:0005a657       ___acrt_locale_free_monetary 1005b657 f   libucrt:initmon.obj
 0001:0005a755       ___acrt_locale_free_numeric 1005b755 f   libucrt:initnum.obj
 0001:0005a7fa       ___acrt_locale_free_time   1005b7fa f   libucrt:inittime.obj
 0001:0005a8de       _wcsncmp                   1005b8de f   libucrt:wcsncmp.obj
 0001:0005a918       ___acrt_GetStringTypeA     1005b918 f   libucrt:getstringtypea.obj
 0001:0005aa31       ___acrt_lowio_create_handle_array 1005ba31 f   libucrt:osfinfo.obj
 0001:0005aaab       ___acrt_lowio_destroy_handle_array 1005baab f   libucrt:osfinfo.obj
 0001:0005aae0       ___acrt_lowio_ensure_fh_exists 1005bae0 f   libucrt:osfinfo.obj
 0001:0005ab74       ___acrt_lowio_lock_fh      1005bb74 f   libucrt:osfinfo.obj
 0001:0005ab97       ___acrt_lowio_unlock_fh    1005bb97 f   libucrt:osfinfo.obj
 0001:0005abba       __free_osfhnd              1005bbba f   libucrt:osfinfo.obj
 0001:0005ac4b       __get_osfhandle            1005bc4b f   libucrt:osfinfo.obj
 0001:0005ad71       ___acrt_DownlevelLocaleNameToLCID 1005bd71 f   libucrt:lcidtoname_downlevel.obj
 0001:0005ae4e       _strncpy_s                 1005be4e f   libucrt:strncpy_s.obj
 0001:0005ae59       __mbsdec                   1005be59 f   libucrt:mbsdec.obj
 0001:0005ae70       __mbsdec_l                 1005be70 f   libucrt:mbsdec.obj
 0001:0005af0c       ___strncnt                 1005bf0c f   libucrt:strncnt.obj
 0001:0005af28       _fegetenv                  1005bf28 f   libucrt:fegetenv.obj
 0001:0005af45       _fesetenv                  1005bf45 f   libucrt:fesetenv.obj
 0001:0005af92       _feholdexcept              1005bf92 f   libucrt:feholdexcept.obj
 0001:0005aff0       _log10                     1005bff0 f   libucrt:log10.obj
 0001:0005b030       __CIlog10                  1005c030 f   libucrt:log10.obj
 0001:0005b06b       __CIlog10_default          1005c06b f   libucrt:log10.obj
 0001:0005b07f       __log10_default            1005c07f     libucrt:log10.obj
 0001:0005b140       _ceil                      1005c140 f   libucrt:ceil_pentium4.obj
 0001:0005b180       __ceil_pentium4            1005c180 f   libucrt:ceil_pentium4.obj
 0001:0005b7fe       __write                    1005c7fe f   libucrt:write.obj
 0001:0005b8e6       __write_nolock             1005c8e6 f   libucrt:write.obj
 0001:0005bb76       __lseeki64_nolock          1005cb76 f   libucrt:lseek.obj
 0001:0005bb91       __fclose_nolock            1005cb91 f   libucrt:fclose.obj
 0001:0005bc07       _fclose                    1005cc07 f   libucrt:fclose.obj
 0001:0005bd18       __commit                   1005cd18 f   libucrt:commit.obj
 0001:0005bd97       __query_app_type           1005cd97 f   libucrt:report_runtime_error.obj
 0001:0005c100       ___acrt_fenv_get_control   1005d100 f   libucrt:_fenvutils.obj
 0001:0005c182       ___acrt_fenv_get_status    1005d182 f   libucrt:_fenvutils.obj
 0001:0005c241       ___acrt_fenv_set_control   1005d241 f   libucrt:_fenvutils.obj
 0001:0005c2ab       ___acrt_fenv_set_status    1005d2ab f   libucrt:_fenvutils.obj
 0001:0005c3a7       __clearfp                  1005d3a7 f   libucrt:ieee87.obj
 0001:0005c487       ___acrt_initialize_sse2    1005d487 f   libucrt:mathfcns.obj
 0001:0005c4a0       __CIlog10_pentium4         1005d4a0 f   libucrt:log10_pentium4.obj
 0001:0005c4b8       __log10_pentium4           1005d4b8     libucrt:log10_pentium4.obj
 0001:0005c741       __fFEXP                    1005d741     libucrt:87tran.obj
 0001:0005c798       __rtinfpopse               1005d798     libucrt:87tran.obj
 0001:0005c79a       __rtinfnpopse              1005d79a     libucrt:87tran.obj
 0001:0005c7aa       __fFLN                     1005d7aa     libucrt:87tran.obj
 0001:0005c85f       __rtinfpop                 1005d85f     libucrt:87tran.obj
 0001:0005c861       __rtinfnpop                1005d861     libucrt:87tran.obj
 0001:0005c87e       __ffexpm1                  1005d87e     libucrt:87tran.obj
 0001:0005c930       __trandisp1                1005d930 f   libucrt:87disp.obj
 0001:0005c997       __trandisp2                1005d997 f   libucrt:87disp.obj
 0001:0005ca23       __rttospopde               1005da23     libucrt:87disp.obj
 0001:0005ca28       __rttospop                 1005da28     libucrt:87disp.obj
 0001:0005ca2a       __rtnospop                 1005da2a     libucrt:87disp.obj
 0001:0005ca2c       __rttosnpop                1005da2c     libucrt:87disp.obj
 0001:0005ca2d       __rtnospopde               1005da2d     libucrt:87disp.obj
 0001:0005ca34       __rtzeropop                1005da34     libucrt:87disp.obj
 0001:0005ca36       __rtzeronpop               1005da36     libucrt:87disp.obj
 0001:0005ca3b       __rtzerospop               1005da3b     libucrt:87disp.obj
 0001:0005ca48       __rtonepop                 1005da48     libucrt:87disp.obj
 0001:0005ca4a       __rtonenpop                1005da4a     libucrt:87disp.obj
 0001:0005ca4f       __tosnan1                  1005da4f     libucrt:87disp.obj
 0001:0005ca7a       __nosnan2                  1005da7a     libucrt:87disp.obj
 0001:0005ca7c       __tosnan2                  1005da7c     libucrt:87disp.obj
 0001:0005caa4       __nan2                     1005daa4     libucrt:87disp.obj
 0001:0005cae3       __rtindfpop                1005dae3     libucrt:87disp.obj
 0001:0005cae5       __rtindfnpop               1005dae5     libucrt:87disp.obj
 0001:0005caf6       __rttosnpopde              1005daf6     libucrt:87disp.obj
 0001:0005cb00       __rtatan2inf               1005db00     libucrt:87disp.obj
 0001:0005cb1d       __rtchsifneg               1005db1d     libucrt:87disp.obj
 0001:0005cb30       __twoToTOS                 1005db30 f   libucrt:common.obj
 0001:0005cb45       __load_CW                  1005db45 f   libucrt:common.obj
 0001:0005cb5c       __convertTOStoQNaN         1005db5c f   libucrt:common.obj
 0001:0005cb75       __fload_withFB             1005db75 f   libucrt:common.obj
 0001:0005cbb8       __checkTOS_withFB          1005dbb8 f   libucrt:common.obj
 0001:0005cbce       __fast_exit                1005dbce f   libucrt:common.obj
 0001:0005cbdb       __math_exit                1005dbdb f   libucrt:common.obj
 0001:0005cc05       __check_overflow_exit      1005dc05 f   libucrt:common.obj
 0001:0005cc19       __check_range_exit         1005dc19 f   libucrt:common.obj
 0001:0005ccc0       __startTwoArgErrorHandling 1005dcc0 f   libucrt:genexcep.obj
 0001:0005ccd7       __startOneArgErrorHandling 1005dcd7 f   libucrt:genexcep.obj
 0001:0005cd13       ___libm_error_support      1005dd13 f   libucrt:libm_error.obj
 0001:0005cf2b       __ceil_default             1005df2b f   libucrt:ceil.obj
 0001:0005cfe4       __putwch_nolock            1005dfe4 f   libucrt:putwch.obj
 0001:0005d09a       __close                    1005e09a f   libucrt:close.obj
 0001:0005d129       __close_nolock             1005e129 f   libucrt:close.obj
 0001:0005d1c5       ?__acrt_stdio_free_stream@@YAXV__crt_stdio_stream@@@Z 1005e1c5 f   libucrt:stream.obj
 0001:0005d200       ___ascii_strnicmp          1005e200 f   libucrt:_strnicm.obj
 0001:0005d261       __clrfp                    1005e261 f   libucrt:fpctrl.obj
 0001:0005d274       __ctrlfp                   1005e274 f   libucrt:fpctrl.obj
 0001:0005d2a0       __set_statfp               1005e2a0 f   libucrt:fpctrl.obj
 0001:0005d2fb       __statfp                   1005e2fb f   libucrt:fpctrl.obj
 0001:0005d30d       __d_inttype                1005e30d f   libucrt:powhlp.obj
 0001:0005d377       __powhlp                   1005e377 f   libucrt:powhlp.obj
 0001:0005d4a2       __87except                 1005e4a2 f   libucrt:87except.obj
 0001:0005d5ad       __frnd                     1005e5ad f   libucrt:frnd.obj
 0001:0005d5c3       __errcode                  1005e5c3 f   libucrt:fpexcept.obj
 0001:0005d5f7       __except1                  1005e5f7 f   libucrt:fpexcept.obj
 0001:0005d6c5       __handle_exc               1005e6c5 f   libucrt:fpexcept.obj
 0001:0005d8b2       __raise_exc                1005e8b2 f   libucrt:fpexcept.obj
 0001:0005d8d5       __raise_exc_ex             1005e8d5 f   libucrt:fpexcept.obj
 0001:0005dbc6       __set_errno_from_matherr   1005ebc6 f   libucrt:fpexcept.obj
 0001:0005dbf5       __umatherr                 1005ebf5 f   libucrt:fpexcept.obj
 0001:0005dc97       __decomp                   1005ec97 f   libucrt:util.obj
 0001:0005dd6b       __set_exp                  1005ed6b f   libucrt:util.obj
 0001:0005dd9a       __sptype                   1005ed9a f   libucrt:util.obj
 0001:0005de17       ___dcrt_lowio_ensure_console_output_initialized 1005ee17 f   libucrt:initcon.obj
 0001:0005de36       ___dcrt_terminate_console_output 1005ee36 f   libucrt:initcon.obj
 0001:0005de4d       ___dcrt_write_console_w    1005ee4d f   libucrt:initcon.obj
 0001:0005dea2       __fpclass                  1005eea2 f   libucrt:ieeemisc.obj
 0001:0005df50       __FindPESection            1005ef50 f   Libcmt:pesect.obj
 0001:0005dfa0       __IsNonwritableInCurrentImage 1005efa0 f   Libcmt:pesect.obj
 0001:0005e060       __ValidateImageBase        1005f060 f   Libcmt:pesect.obj
 0001:0005e0a0       __aulldvrm                 1005f0a0 f   Libcmt:ulldvrm.obj
 0001:0005e140       __SEH_prolog4_GS           1005f140 f   Libcmt:_sehprolg4gs_.obj
 0001:0005e189       __SEH_epilog4_GS           1005f189 f   Libcmt:_sehprolg4gs_.obj
 0001:0005e1a0       __alldvrm                  1005f1a0 f   Libcmt:lldvrm.obj
 0001:0005e280       __alloca_probe_16          1005f280 f   Libcmt:alloca16.obj
 0001:0005e296       __alloca_probe_8           1005f296     Libcmt:alloca16.obj
 0001:0005e2b0       __ftol2_sse                1005f2b0 f   Libcmt:_ftol2_.obj
 0001:0005e2b9       __ftol2_pentium4           1005f2b9 f   Libcmt:_ftol2_.obj
 0001:0005e2cc       __ftol2_sse_excpt          1005f2cc f   Libcmt:_ftol2_.obj
 0001:0005e2f0       __ftol2                    1005f2f0 f   Libcmt:_ftol2_.obj
 0001:0005e370       __chkstk                   1005f370 f   Libcmt:chkstk.obj
 0001:0005e370       __alloca_probe             1005f370 f   Libcmt:chkstk.obj
 0001:0005e3a0       _memcpy                    1005f3a0 f   libvcruntime:memcpy.obj
 0002:00000000       ___guard_check_icall_fptr  10060000     Libcmt:guard_support.obj
 0002:00000004       ___xc_a                    10060004     Libcmt:initializers.obj
 0002:00000008       ___xc_z                    10060008     Libcmt:initializers.obj
 0002:0000000c       ___xi_a                    1006000c     Libcmt:initializers.obj
 0002:00000010       ___acrt_stdio_initializer  10060010     libucrt:stdio_initializer.obj
 0002:00000014       ___acrt_multibyte_initializer 10060014     libucrt:multibyte_initializer.obj
 0002:00000018       ___acrt_tran_sse2_initializer 10060018     libucrt:sse2_initializer.obj
 0002:0000001c       ___xi_z                    1006001c     Libcmt:initializers.obj
 0002:00000020       ___xp_a                    10060020     Libcmt:initializers.obj
 0002:00000024       ___acrt_locale_terminator  10060024     libucrt:locale_initializer.obj
 0002:00000028       ___dcrt_console_output_terminator 10060028     libucrt:console_output_initializer.obj
 0002:0000002c       ___acrt_stdio_terminator   1006002c     libucrt:stdio_initializer.obj
 0002:00000030       ___xp_z                    10060030     Libcmt:initializers.obj
 0002:00000034       ___xt_a                    10060034     Libcmt:initializers.obj
 0002:00000038       ___xt_z                    10060038     Libcmt:initializers.obj
 0002:000003c8       _RTFDrvIDE                 100603c8     RtfilesX:Drvide.obj
 0002:00000480       _RTFDrvUSB                 10060480     RtfilesX:Drvusb.obj
 0002:000004b0       _RTFDrvAHCI                100604b0     RtfilesX:Drvahci.obj
 0002:000006b0       _RTFilesFileSystem         100606b0     RtfilesX:Rtfw32.obj
 0002:00000728       __rtfUnicodeMap437         10060728     RtfilesX:Ut437.obj
 0002:00000828       __rtfUpper437              10060828     RtfilesX:Up437.obj
 0002:000008a8       _RTFBasicDataPartition     100608a8     RtfilesX:Rtfgpt.obj
 0002:000008b8       _RTFEFISystemPartition     100608b8     RtfilesX:Rtfgpt.obj
 0002:00000f04       __rtkIsInPrimQ             10060f04     Rtk32:Kernel.obj
 0002:00000f48       __rtkIsInTimeQ             10060f48     Rtk32:Kernel.obj
 0002:00000fc4       __rttCodePage437           10060fc4     Rtt32:Conin.obj
 0002:00002dd8       _RTLPTFileSystem           10062dd8     Rtt32:W32lpt.obj
 0002:00002e50       _RTConsoleFileSystem       10062e50     Rtt32:Confiles.obj
 0002:00002f88       __rtfUnicodeMap1252        10062f88     Rtt32:Cpansi.obj
 0002:00003088       __rtfUpper1252             10063088     Rtt32:Cpansi.obj
 0002:00003110       __pDefaultRawDllMain       10063110     Libcmt:dll_dllmain.obj
 0002:00003110       __pRawDllMain              10063110     Libcmt:dll_dllmain.obj
 0002:0000312c       ??_C@_1BC@DNHGCMLG@?$AAa?$AAd?$AAv?$AAa?$AAp?$AAi?$AA3?$AA2?$AA?$AA@ 1006312c     libvcruntime:winapi_downlevel.obj
 0002:00003140       ??_C@_1DM@KHCHBNEB@?$AAa?$AAp?$AAi?$AA?9?$AAm?$AAs?$AA?9?$AAw?$AAi?$AAn?$AA?9?$AAc?$AAo?$AAr?$AAe?$AA?9?$AAf?$AAi?$AAb?$AAe?$AAr?$AAs?$AA?9?$AAl?$AA1?$AA?9?$AA1?$AA?9?$AA1?$AA?$AA@ 10063140     libvcruntime:winapi_downlevel.obj
 0002:0000317c       ??_C@_1DK@LPPGFMPP@?$AAa?$AAp?$AAi?$AA?9?$AAm?$AAs?$AA?9?$AAw?$AAi?$AAn?$AA?9?$AAc?$AAo?$AAr?$AAe?$AA?9?$AAs?$AAy?$AAn?$AAc?$AAh?$AA?9?$AAl?$AA1?$AA?9?$AA2?$AA?9?$AA0?$AA?$AA@ 1006317c     libvcruntime:winapi_downlevel.obj
 0002:000031b8       ??_C@_1BC@GDMECMAK@?$AAk?$AAe?$AAr?$AAn?$AAe?$AAl?$AA3?$AA2?$AA?$AA@ 100631b8     libvcruntime:winapi_downlevel.obj
 0002:000031d4       ??_C@_08KNHFBNJ@FlsAlloc?$AA@ 100631d4     libvcruntime:winapi_downlevel.obj
 0002:000031e8       ??_C@_07PEJMOBNF@FlsFree?$AA@ 100631e8     libvcruntime:winapi_downlevel.obj
 0002:000031f8       ??_C@_0M@GDNOONDI@FlsGetValue?$AA@ 100631f8     libvcruntime:winapi_downlevel.obj
 0002:0000320c       ??_C@_0M@JCPCPOEF@FlsSetValue?$AA@ 1006320c     libvcruntime:winapi_downlevel.obj
 0002:00003220       ??_C@_0BM@HCFOFFN@InitializeCriticalSectionEx?$AA@ 10063220     libvcruntime:winapi_downlevel.obj
 0002:000033d0       ??_C@_08EHJDFFNH@__based?$CI?$AA@ 100633d0     libvcruntime:undname.obj
 0002:000033dc       ??_C@_07KOLFKCDI@__cdecl?$AA@ 100633dc     libvcruntime:undname.obj
 0002:000033e4       ??_C@_08GHMPAG@__pascal?$AA@ 100633e4     libvcruntime:undname.obj
 0002:000033f0       ??_C@_09IFJBGAPI@__stdcall?$AA@ 100633f0     libvcruntime:undname.obj
 0002:000033fc       ??_C@_0L@NPHFGOKO@__thiscall?$AA@ 100633fc     libvcruntime:undname.obj
 0002:00003408       ??_C@_0L@JMKHOMEK@__fastcall?$AA@ 10063408     libvcruntime:undname.obj
 0002:00003414       ??_C@_0N@BCKKPABJ@__vectorcall?$AA@ 10063414     libvcruntime:undname.obj
 0002:00003424       ??_C@_09HIJEGCPM@__clrcall?$AA@ 10063424     libvcruntime:undname.obj
 0002:00003430       ??_C@_06GHPCKEAG@__eabi?$AA@ 10063430     libvcruntime:undname.obj
 0002:00003438       ??_C@_07JOMMBBKO@__ptr64?$AA@ 10063438     libvcruntime:undname.obj
 0002:00003440       ??_C@_0L@PILCLIHE@__restrict?$AA@ 10063440     libvcruntime:undname.obj
 0002:0000344c       ??_C@_0M@GFIIJFMG@__unaligned?$AA@ 1006344c     libvcruntime:undname.obj
 0002:00003458       ??_C@_09DHDLOLLB@restrict?$CI?$AA@ 10063458     libvcruntime:undname.obj
 0002:00003462       ??_C@_00CNPNBAHC@?$AA@     10063462     libvcruntime:undname.obj
 0002:00003464       ??_C@_04NIHEBCM@?5new?$AA@ 10063464     libvcruntime:undname.obj
 0002:0000346c       ??_C@_07FPCDHGMM@?5delete?$AA@ 1006346c     libvcruntime:undname.obj
 0002:00003474       ??_C@_01NEMOKFLO@?$DN?$AA@ 10063474     libvcruntime:undname.obj
 0002:00003478       ??_C@_02GPIOPFAK@?$DO?$DO?$AA@ 10063478     libvcruntime:undname.obj
 0002:0000347c       ??_C@_02FODMEDOG@?$DM?$DM?$AA@ 1006347c     libvcruntime:undname.obj
 0002:00003480       ??_C@_01DCLJPIOD@?$CB?$AA@ 10063480     libvcruntime:undname.obj
 0002:00003484       ??_C@_02EGOFBIJA@?$DN?$DN?$AA@ 10063484     libvcruntime:undname.obj
 0002:00003488       ??_C@_02FDNJECIE@?$CB?$DN?$AA@ 10063488     libvcruntime:undname.obj
 0002:0000348c       ??_C@_02GPECMEKF@?$FL?$FN?$AA@ 1006348c     libvcruntime:undname.obj
 0002:00003490       ??_C@_08LHJFAFGD@operator?$AA@ 10063490     libvcruntime:undname.obj
 0002:0000349c       ??_C@_02HBOOOICD@?9?$DO?$AA@ 1006349c     libvcruntime:undname.obj
 0002:000034a0       ??_C@_01NBENCBCI@?$CK?$AA@ 100634a0     libvcruntime:undname.obj
 0002:000034a4       ??_C@_02ECNGHCIF@?$CL?$CL?$AA@ 100634a4     libvcruntime:undname.obj
 0002:000034a8       ??_C@_02BAABKJLB@?9?9?$AA@ 100634a8     libvcruntime:undname.obj
 0002:000034ac       ??_C@_01JOAMLHOP@?9?$AA@   100634ac     libvcruntime:undname.obj
 0002:000034b0       ??_C@_01MIFGBAGJ@?$CL?$AA@ 100634b0     libvcruntime:undname.obj
 0002:000034b4       ??_C@_01HNPIGOCE@?$CG?$AA@ 100634b4     libvcruntime:undname.obj
 0002:000034b8       ??_C@_03MNHNFDLC@?9?$DO?$CK?$AA@ 100634b8     libvcruntime:undname.obj
 0002:000034bc       ??_C@_01KMDKNFGN@?1?$AA@   100634bc     libvcruntime:undname.obj
 0002:000034c0       ??_C@_01FGNFDNOH@?$CF?$AA@ 100634c0     libvcruntime:undname.obj
 0002:000034c4       ??_C@_01MNNFJEPP@?$DM?$AA@ 100634c4     libvcruntime:undname.obj
 0002:000034c8       ??_C@_02EHCHHCKH@?$DM?$DN?$AA@ 100634c8     libvcruntime:undname.obj
 0002:000034cc       ??_C@_01PPODPGHN@?$DO?$AA@ 100634cc     libvcruntime:undname.obj
 0002:000034d0       ??_C@_02EEKDKGMJ@?$DO?$DN?$AA@ 100634d0     libvcruntime:undname.obj
 0002:000034d4       ??_C@_01IHBHIGKO@?0?$AA@   100634d4     libvcruntime:undname.obj
 0002:000034d8       ??_C@_02HCKGKOFO@?$CI?$CJ?$AA@ 100634d8     libvcruntime:undname.obj
 0002:000034dc       ??_C@_01PJKLJHI@?$HO?$AA@  100634dc     libvcruntime:undname.obj
 0002:000034e0       ??_C@_01JKBOJNNK@?$FO?$AA@ 100634e0     libvcruntime:undname.obj
 0002:000034e4       ??_C@_01DNKMNLPK@?$HM?$AA@ 100634e4     libvcruntime:undname.obj
 0002:000034e8       ??_C@_02PPKAJPJL@?$CG?$CG?$AA@ 100634e8     libvcruntime:undname.obj
 0002:000034ec       ??_C@_02NONPIBCD@?$HM?$HM?$AA@ 100634ec     libvcruntime:undname.obj
 0002:000034f0       ??_C@_02FPIMKNGF@?$CK?$DN?$AA@ 100634f0     libvcruntime:undname.obj
 0002:000034f4       ??_C@_02FOEOMHFC@?$CL?$DN?$AA@ 100634f4     libvcruntime:undname.obj
 0002:000034f8       ??_C@_02FKMDLLOA@?9?$DN?$AA@ 100634f8     libvcruntime:undname.obj
 0002:000034fc       ??_C@_02FJEHGPIO@?1?$DN?$AA@ 100634fc     libvcruntime:undname.obj
 0002:00003500       ??_C@_02FENAOKFI@?$CF?$DN?$AA@ 10063500     libvcruntime:undname.obj
 0002:00003504       ??_C@_03IKFCCPFF@?$DO?$DO?$DN?$AA@ 10063504     libvcruntime:undname.obj
 0002:00003508       ??_C@_03CDNPDDLA@?$DM?$DM?$DN?$AA@ 10063508     libvcruntime:undname.obj
 0002:0000350c       ??_C@_02FGJGFEAB@?$CG?$DN?$AA@ 1006350c     libvcruntime:undname.obj
 0002:00003510       ??_C@_02DHLNPPGH@?$HM?$DN?$AA@ 10063510     libvcruntime:undname.obj
 0002:00003514       ??_C@_02MHEGNOJ@?$FO?$DN?$AA@ 10063514     libvcruntime:undname.obj
 0002:00003518       ??_C@_09IFPLHPGF@?$GAvftable?8?$AA@ 10063518     libvcruntime:undname.obj
 0002:00003524       ??_C@_09BLBHBJP@?$GAvbtable?8?$AA@ 10063524     libvcruntime:undname.obj
 0002:00003530       ??_C@_07FEEIOKP@?$GAvcall?8?$AA@ 10063530     libvcruntime:undname.obj
 0002:00003538       ??_C@_08LLFFHHDJ@?$GAtypeof?8?$AA@ 10063538     libvcruntime:undname.obj
 0002:00003544       ??_C@_0BF@KDPPACIK@?$GAlocal?5static?5guard?8?$AA@ 10063544     libvcruntime:undname.obj
 0002:0000355c       ??_C@_08OBABFOLI@?$GAstring?8?$AA@ 1006355c     libvcruntime:undname.obj
 0002:00003568       ??_C@_0BD@JDLKDPAB@?$GAvbase?5destructor?8?$AA@ 10063568     libvcruntime:undname.obj
 0002:0000357c       ??_C@_0BN@DEGPLNFK@?$GAvector?5deleting?5destructor?8?$AA@ 1006357c     libvcruntime:undname.obj
 0002:0000359c       ??_C@_0BO@OBMKPJIG@?$GAdefault?5constructor?5closure?8?$AA@ 1006359c     libvcruntime:undname.obj
 0002:000035bc       ??_C@_0BN@IMDCHIKM@?$GAscalar?5deleting?5destructor?8?$AA@ 100635bc     libvcruntime:undname.obj
 0002:000035dc       ??_C@_0BO@PFGOCPJJ@?$GAvector?5constructor?5iterator?8?$AA@ 100635dc     libvcruntime:undname.obj
 0002:000035fc       ??_C@_0BN@LFPFMEDL@?$GAvector?5destructor?5iterator?8?$AA@ 100635fc     libvcruntime:undname.obj
 0002:0000361c       ??_C@_0CE@IKBNEHA@?$GAvector?5vbase?5constructor?5iterat@ 1006361c     libvcruntime:undname.obj
 0002:00003640       ??_C@_0BL@NILFHHPC@?$GAvirtual?5displacement?5map?8?$AA@ 10063640     libvcruntime:undname.obj
 0002:0000365c       ??_C@_0CB@JONCMFFK@?$GAeh?5vector?5constructor?5iterator?8@ 1006365c     libvcruntime:undname.obj
 0002:00003680       ??_C@_0CA@GCEOPDGL@?$GAeh?5vector?5destructor?5iterator?8?$AA@ 10063680     libvcruntime:undname.obj
 0002:000036a0       ??_C@_0CH@OOJPLCPH@?$GAeh?5vector?5vbase?5constructor?5ite@ 100636a0     libvcruntime:undname.obj
 0002:000036c8       ??_C@_0BL@LLKPOHJI@?$GAcopy?5constructor?5closure?8?$AA@ 100636c8     libvcruntime:undname.obj
 0002:000036e4       ??_C@_0BA@KBCDOMBN@?$GAudt?5returning?8?$AA@ 100636e4     libvcruntime:undname.obj
 0002:000036f4       ??_C@_03KLGMFNMG@?$GAEH?$AA@ 100636f4     libvcruntime:undname.obj
 0002:000036f8       ??_C@_05KHLCHHI@?$GARTTI?$AA@ 100636f8     libvcruntime:undname.obj
 0002:00003700       ??_C@_0BA@KKLDJDLB@?$GAlocal?5vftable?8?$AA@ 10063700     libvcruntime:undname.obj
 0002:00003710       ??_C@_0CE@IIHCMGGL@?$GAlocal?5vftable?5constructor?5closu@ 10063710     libvcruntime:undname.obj
 0002:00003734       ??_C@_06FHBGPFGH@?5new?$FL?$FN?$AA@ 10063734     libvcruntime:undname.obj
 0002:0000373c       ??_C@_09LBNFPBCA@?5delete?$FL?$FN?$AA@ 1006373c     libvcruntime:undname.obj
 0002:00003748       ??_C@_0P@HJKNJFNN@?$GAomni?5callsig?8?$AA@ 10063748     libvcruntime:undname.obj
 0002:00003758       ??_C@_0BL@CNOONJFP@?$GAplacement?5delete?5closure?8?$AA@ 10063758     libvcruntime:undname.obj
 0002:00003774       ??_C@_0BN@CKNJLHMB@?$GAplacement?5delete?$FL?$FN?5closure?8?$AA@ 10063774     libvcruntime:undname.obj
 0002:00003794       ??_C@_0CG@CFDHKGGD@?$GAmanaged?5vector?5constructor?5iter@ 10063794     libvcruntime:undname.obj
 0002:000037bc       ??_C@_0CF@IMGKMJNO@?$GAmanaged?5vector?5destructor?5itera@ 100637bc     libvcruntime:undname.obj
 0002:000037e4       ??_C@_0CG@HLDDJMAG@?$GAeh?5vector?5copy?5constructor?5iter@ 100637e4     libvcruntime:undname.obj
 0002:0000380c       ??_C@_0CM@FCBBDIGB@?$GAeh?5vector?5vbase?5copy?5constructo@ 1006380c     libvcruntime:undname.obj
 0002:00003838       ??_C@_0BL@CLIPGLGB@?$GAdynamic?5initializer?5for?5?8?$AA@ 10063838     libvcruntime:undname.obj
 0002:00003854       ??_C@_0CB@PDBIFEP@?$GAdynamic?5atexit?5destructor?5for?5?8@ 10063854     libvcruntime:undname.obj
 0002:00003878       ??_C@_0CD@CGAJBKEJ@?$GAvector?5copy?5constructor?5iterato@ 10063878     libvcruntime:undname.obj
 0002:0000389c       ??_C@_0CJ@GJELGAMM@?$GAvector?5vbase?5copy?5constructor?5i@ 1006389c     libvcruntime:undname.obj
 0002:000038c8       ??_C@_0CL@FGIJHLCE@?$GAmanaged?5vector?5copy?5constructor@ 100638c8     libvcruntime:undname.obj
 0002:000038f4       ??_C@_0BM@PMGGMLDN@?$GAlocal?5static?5thread?5guard?8?$AA@ 100638f4     libvcruntime:undname.obj
 0002:00003910       ??_C@_0N@BDNMDMOL@operator?5?$CC?$CC?5?$AA@ 10063910     libvcruntime:undname.obj
 0002:00003920       ??_C@_0BC@DAFEJGAK@?5Type?5Descriptor?8?$AA@ 10063920     libvcruntime:undname.obj
 0002:00003934       ??_C@_0BM@LDKODKLH@?5Base?5Class?5Descriptor?5at?5?$CI?$AA@ 10063934     libvcruntime:undname.obj
 0002:00003950       ??_C@_0BD@LGICGFMM@?5Base?5Class?5Array?8?$AA@ 10063950     libvcruntime:undname.obj
 0002:00003964       ??_C@_0BN@MECKDCOJ@?5Class?5Hierarchy?5Descriptor?8?$AA@ 10063964     libvcruntime:undname.obj
 0002:00003984       ??_C@_0BK@CFCOFLF@?5Complete?5Object?5Locator?8?$AA@ 10063984     libvcruntime:undname.obj
 0002:000039a0       _standard_lookup_table     100639a0     libucrt:output.obj
 0002:000039fc       ??_C@_1O@CEDCILHN@?$AA?$CI?$AAn?$AAu?$AAl?$AAl?$AA?$CJ?$AA?$AA@ 100639fc     libucrt:output.obj
 0002:00003a0c       ??_C@_06OJHGLDPL@?$CInull?$CJ?$AA@ 10063a0c     libucrt:output.obj
 0002:00003a14       ??_C@_1BI@BGOHAHKC@?$AAm?$AAs?$AAc?$AAo?$AAr?$AAe?$AAe?$AA?4?$AAd?$AAl?$AAl?$AA?$AA@ 10063a14     libucrt:exit.obj
 0002:00003a2c       ??_C@_0P@MIGLKIOC@CorExitProcess?$AA@ 10063a2c     libucrt:exit.obj
 0002:00003a40       ___acrt_exception_action_table 10063a40     libucrt:exception_filter.obj
 0002:00003ad0       ___acrt_signal_action_table_count 10063ad0     libucrt:exception_filter.obj
 0002:00003ad4       ___acrt_signal_action_first_fpe_index 10063ad4     libucrt:exception_filter.obj
 0002:00003ad8       ___acrt_signal_action_fpe_count 10063ad8     libucrt:exception_filter.obj
 0002:00003cb8       ??_C@_03OEIAHPBN@INF?$AA@  10063cb8     libucrt:cvt.obj
 0002:00003cbc       ??_C@_03OJHLLCGB@inf?$AA@  10063cbc     libucrt:cvt.obj
 0002:00003cc0       ??_C@_03LKNCIKJB@NAN?$AA@  10063cc0     libucrt:cvt.obj
 0002:00003cc4       ??_C@_03LHCJEHON@nan?$AA@  10063cc4     libucrt:cvt.obj
 0002:00003cc8       ??_C@_09OFJJIMPC@NAN?$CISNAN?$CJ?$AA@ 10063cc8     libucrt:cvt.obj
 0002:00003cd4       ??_C@_09IPFBKMDL@nan?$CIsnan?$CJ?$AA@ 10063cd4     libucrt:cvt.obj
 0002:00003ce0       ??_C@_08IKHNHAJ@NAN?$CIIND?$CJ?$AA@ 10063ce0     libucrt:cvt.obj
 0002:00003cec       ??_C@_08OFCDMILK@nan?$CIind?$CJ?$AA@ 10063cec     libucrt:cvt.obj
 0002:00003cf8       ??_C@_05KLBDPFGC@e?$CL000?$AA@ 10063cf8     libucrt:cvt.obj
 0002:00003d00       ??_C@_03KOEHGMDN@Sun?$AA@  10063d00     libucrt:nlsdata.obj
 0002:00003d04       ??_C@_03PDAGKDH@Mon?$AA@   10063d04     libucrt:nlsdata.obj
 0002:00003d08       ??_C@_03NAGEINEP@Tue?$AA@  10063d08     libucrt:nlsdata.obj
 0002:00003d0c       ??_C@_03MHOMLAJA@Wed?$AA@  10063d0c     libucrt:nlsdata.obj
 0002:00003d10       ??_C@_03IOFIKPDN@Thu?$AA@  10063d10     libucrt:nlsdata.obj
 0002:00003d14       ??_C@_03IDIOELNC@Fri?$AA@  10063d14     libucrt:nlsdata.obj
 0002:00003d18       ??_C@_03FEFJNEK@Sat?$AA@   10063d18     libucrt:nlsdata.obj
 0002:00003d1c       ??_C@_06OOPIFAJ@Sunday?$AA@ 10063d1c     libucrt:nlsdata.obj
 0002:00003d24       ??_C@_06JLEDEDGH@Monday?$AA@ 10063d24     libucrt:nlsdata.obj
 0002:00003d2c       ??_C@_07BAAGCFCM@Tuesday?$AA@ 10063d2c     libucrt:nlsdata.obj
 0002:00003d34       ??_C@_09DLIGFAKA@Wednesday?$AA@ 10063d34     libucrt:nlsdata.obj
 0002:00003d40       ??_C@_08HACCIKIA@Thursday?$AA@ 10063d40     libucrt:nlsdata.obj
 0002:00003d4c       ??_C@_06JECMNKMI@Friday?$AA@ 10063d4c     libucrt:nlsdata.obj
 0002:00003d54       ??_C@_08INBOOONO@Saturday?$AA@ 10063d54     libucrt:nlsdata.obj
 0002:00003d60       ??_C@_03JIHJHPIE@Jan?$AA@  10063d60     libucrt:nlsdata.obj
 0002:00003d64       ??_C@_03HJBDCHOM@Feb?$AA@  10063d64     libucrt:nlsdata.obj
 0002:00003d68       ??_C@_03ODNJBKGA@Mar?$AA@  10063d68     libucrt:nlsdata.obj
 0002:00003d6c       ??_C@_03LEOLGMJP@Apr?$AA@  10063d6c     libucrt:nlsdata.obj
 0002:00003d70       ??_C@_03CNMDKL@May?$AA@    10063d70     libucrt:nlsdata.obj
 0002:00003d74       ??_C@_03IDFGHECI@Jun?$AA@  10063d74     libucrt:nlsdata.obj
 0002:00003d78       ??_C@_03LBGABGKK@Jul?$AA@  10063d78     libucrt:nlsdata.obj
 0002:00003d7c       ??_C@_03IFJFEIGA@Aug?$AA@  10063d7c     libucrt:nlsdata.obj
 0002:00003d80       ??_C@_03GGCAPAJC@Sep?$AA@  10063d80     libucrt:nlsdata.obj
 0002:00003d84       ??_C@_03BMAOKBAD@Oct?$AA@  10063d84     libucrt:nlsdata.obj
 0002:00003d88       ??_C@_03JPJOFNIA@Nov?$AA@  10063d88     libucrt:nlsdata.obj
 0002:00003d8c       ??_C@_03MKABNOCG@Dec?$AA@  10063d8c     libucrt:nlsdata.obj
 0002:00003d90       ??_C@_07CGJPFGJA@January?$AA@ 10063d90     libucrt:nlsdata.obj
 0002:00003d98       ??_C@_08GNJGEPFN@February?$AA@ 10063d98     libucrt:nlsdata.obj
 0002:00003da4       ??_C@_05HPCKOFNC@March?$AA@ 10063da4     libucrt:nlsdata.obj
 0002:00003dac       ??_C@_05DMJDNLEJ@April?$AA@ 10063dac     libucrt:nlsdata.obj
 0002:00003db4       ??_C@_04CNLMGBGM@June?$AA@ 10063db4     libucrt:nlsdata.obj
 0002:00003dbc       ??_C@_04MIEPOIFP@July?$AA@ 10063dbc     libucrt:nlsdata.obj
 0002:00003dc4       ??_C@_06LBBHFDDG@August?$AA@ 10063dc4     libucrt:nlsdata.obj
 0002:00003dcc       ??_C@_09BHHEALKD@September?$AA@ 10063dcc     libucrt:nlsdata.obj
 0002:00003dd8       ??_C@_07JJNFCEND@October?$AA@ 10063dd8     libucrt:nlsdata.obj
 0002:00003de0       ??_C@_08HCHEGEOA@November?$AA@ 10063de0     libucrt:nlsdata.obj
 0002:00003dec       ??_C@_08EDHMEBNP@December?$AA@ 10063dec     libucrt:nlsdata.obj
 0002:00003df8       ??_C@_02DEDBPAFC@AM?$AA@   10063df8     libucrt:nlsdata.obj
 0002:00003dfc       ??_C@_02CJNFDJBF@PM?$AA@   10063dfc     libucrt:nlsdata.obj
 0002:00003e00       ??_C@_08BPBNCDIB@MM?1dd?1yy?$AA@ 10063e00     libucrt:nlsdata.obj
 0002:00003e0c       ??_C@_0BE@CKGJFCPC@dddd?0?5MMMM?5dd?0?5yyyy?$AA@ 10063e0c     libucrt:nlsdata.obj
 0002:00003e20       ??_C@_08JCCMCCIL@HH?3mm?3ss?$AA@ 10063e20     libucrt:nlsdata.obj
 0002:00003e2c       ??_C@_17MBGCMIPB@?$AAS?$AAu?$AAn?$AA?$AA@ 10063e2c     libucrt:nlsdata.obj
 0002:00003e34       ??_C@_17KBOMKBF@?$AAM?$AAo?$AAn?$AA?$AA@ 10063e34     libucrt:nlsdata.obj
 0002:00003e3c       ??_C@_17BMKGEGOJ@?$AAT?$AAu?$AAe?$AA?$AA@ 10063e3c     libucrt:nlsdata.obj
 0002:00003e44       ??_C@_17CJEDCEPE@?$AAW?$AAe?$AAd?$AA?$AA@ 10063e44     libucrt:nlsdata.obj
 0002:00003e4c       ??_C@_17PDPHAADD@?$AAT?$AAh?$AAu?$AA?$AA@ 10063e4c     libucrt:nlsdata.obj
 0002:00003e54       ??_C@_17HFOLPPLP@?$AAF?$AAr?$AAi?$AA?$AA@ 10063e54     libucrt:nlsdata.obj
 0002:00003e5c       ??_C@_17GGIBDPIH@?$AAS?$AAa?$AAt?$AA?$AA@ 10063e5c     libucrt:nlsdata.obj
 0002:00003e64       ??_C@_1O@IHNHDHPB@?$AAS?$AAu?$AAn?$AAd?$AAa?$AAy?$AA?$AA@ 10063e64     libucrt:nlsdata.obj
 0002:00003e74       ??_C@_1O@MMNBFLIA@?$AAM?$AAo?$AAn?$AAd?$AAa?$AAy?$AA?$AA@ 10063e74     libucrt:nlsdata.obj
 0002:00003e84       ??_C@_1BA@ENFBFFEK@?$AAT?$AAu?$AAe?$AAs?$AAd?$AAa?$AAy?$AA?$AA@ 10063e84     libucrt:nlsdata.obj
 0002:00003e94       ??_C@_1BE@EBOGMDOH@?$AAW?$AAe?$AAd?$AAn?$AAe?$AAs?$AAd?$AAa?$AAy?$AA?$AA@ 10063e94     libucrt:nlsdata.obj
 0002:00003ea8       ??_C@_1BC@HHMNLIHE@?$AAT?$AAh?$AAu?$AAr?$AAs?$AAd?$AAa?$AAy?$AA?$AA@ 10063ea8     libucrt:nlsdata.obj
 0002:00003ebc       ??_C@_1O@PDICJHAG@?$AAF?$AAr?$AAi?$AAd?$AAa?$AAy?$AA?$AA@ 10063ebc     libucrt:nlsdata.obj
 0002:00003ecc       ??_C@_1BC@ENMNNPAJ@?$AAS?$AAa?$AAt?$AAu?$AAr?$AAd?$AAa?$AAy?$AA?$AA@ 10063ecc     libucrt:nlsdata.obj
 0002:00003ee0       ??_C@_17DKNBKCHM@?$AAJ?$AAa?$AAn?$AA?$AA@ 10063ee0     libucrt:nlsdata.obj
 0002:00003ee8       ??_C@_17LMDJEKJN@?$AAF?$AAe?$AAb?$AA?$AA@ 10063ee8     libucrt:nlsdata.obj
 0002:00003ef0       ??_C@_17CKNLEDEC@?$AAM?$AAa?$AAr?$AA?$AA@ 10063ef0     libucrt:nlsdata.obj
 0002:00003ef8       ??_C@_17LFPOIHDD@?$AAA?$AAp?$AAr?$AA?$AA@ 10063ef8     libucrt:nlsdata.obj
 0002:00003f00       ??_C@_17PNNKMEED@?$AAM?$AAa?$AAy?$AA?$AA@ 10063f00     libucrt:nlsdata.obj
 0002:00003f08       ??_C@_17KCJGOCPB@?$AAJ?$AAu?$AAn?$AA?$AA@ 10063f08     libucrt:nlsdata.obj
 0002:00003f10       ??_C@_17IJPCKHK@?$AAJ?$AAu?$AAl?$AA?$AA@ 10063f10     libucrt:nlsdata.obj
 0002:00003f18       ??_C@_17ICPELBCN@?$AAA?$AAu?$AAg?$AA?$AA@ 10063f18     libucrt:nlsdata.obj
 0002:00003f20       ??_C@_17HCHCOKMG@?$AAS?$AAe?$AAp?$AA?$AA@ 10063f20     libucrt:nlsdata.obj
 0002:00003f28       ??_C@_17FNLKOI@?$AAO?$AAc?$AAt?$AA?$AA@ 10063f28     libucrt:nlsdata.obj
 0002:00003f30       ??_C@_17BBDMLCIG@?$AAN?$AAo?$AAv?$AA?$AA@ 10063f30     libucrt:nlsdata.obj
 0002:00003f38       ??_C@_17EGKACKIF@?$AAD?$AAe?$AAc?$AA?$AA@ 10063f38     libucrt:nlsdata.obj
 0002:00003f40       ??_C@_1BA@EFMEIEBA@?$AAJ?$AAa?$AAn?$AAu?$AAa?$AAr?$AAy?$AA?$AA@ 10063f40     libucrt:nlsdata.obj
 0002:00003f50       ??_C@_1BC@JGDDFFAM@?$AAF?$AAe?$AAb?$AAr?$AAu?$AAa?$AAr?$AAy?$AA?$AA@ 10063f50     libucrt:nlsdata.obj
 0002:00003f64       ??_C@_1M@IKEENEDF@?$AAM?$AAa?$AAr?$AAc?$AAh?$AA?$AA@ 10063f64     libucrt:nlsdata.obj
 0002:00003f70       ??_C@_1M@GJNLMHFD@?$AAA?$AAp?$AAr?$AAi?$AAl?$AA?$AA@ 10063f70     libucrt:nlsdata.obj
 0002:00003f7c       ??_C@_19EPFLPGAP@?$AAJ?$AAu?$AAn?$AAe?$AA?$AA@ 10063f7c     libucrt:nlsdata.obj
 0002:00003f88       ??_C@_19BIFMLPCD@?$AAJ?$AAu?$AAl?$AAy?$AA?$AA@ 10063f88     libucrt:nlsdata.obj
 0002:00003f94       ??_C@_1O@PAHLKOAC@?$AAA?$AAu?$AAg?$AAu?$AAs?$AAt?$AA?$AA@ 10063f94     libucrt:nlsdata.obj
 0002:00003fa4       ??_C@_1BE@DKAAMBJL@?$AAS?$AAe?$AAp?$AAt?$AAe?$AAm?$AAb?$AAe?$AAr?$AA?$AA@ 10063fa4     libucrt:nlsdata.obj
 0002:00003fb8       ??_C@_1BA@EPANDLNG@?$AAO?$AAc?$AAt?$AAo?$AAb?$AAe?$AAr?$AA?$AA@ 10063fb8     libucrt:nlsdata.obj
 0002:00003fc8       ??_C@_1BC@BGLIFPF@?$AAN?$AAo?$AAv?$AAe?$AAm?$AAb?$AAe?$AAr?$AA?$AA@ 10063fc8     libucrt:nlsdata.obj
 0002:00003fdc       ??_C@_1BC@FEMKIFH@?$AAD?$AAe?$AAc?$AAe?$AAm?$AAb?$AAe?$AAr?$AA?$AA@ 10063fdc     libucrt:nlsdata.obj
 0002:00003ff0       ??_C@_15ODEHAHHF@?$AAA?$AAM?$AA?$AA@ 10063ff0     libucrt:nlsdata.obj
 0002:00003ff8       ??_C@_15CLMNNGEL@?$AAP?$AAM?$AA?$AA@ 10063ff8     libucrt:nlsdata.obj
 0002:00004000       ??_C@_1BC@IEBCMHCM@?$AAM?$AAM?$AA?1?$AAd?$AAd?$AA?1?$AAy?$AAy?$AA?$AA@ 10064000     libucrt:nlsdata.obj
 0002:00004014       ??_C@_1CI@KNAKOEBC@?$AAd?$AAd?$AAd?$AAd?$AA?0?$AA?5?$AAM?$AAM?$AAM?$AAM?$AA?5?$AAd?$AAd?$AA?0?$AA?5?$AAy?$AAy?$AAy?$AAy?$AA?$AA@ 10064014     libucrt:nlsdata.obj
 0002:0000403c       ??_C@_1BC@GDGBMEMK@?$AAH?$AAH?$AA?3?$AAm?$AAm?$AA?3?$AAs?$AAs?$AA?$AA@ 1006403c     libucrt:nlsdata.obj
 0002:00004050       ??_C@_1M@BMHNFIME@?$AAe?$AAn?$AA?9?$AAU?$AAS?$AA?$AA@ 10064050     libucrt:nlsdata.obj
 0002:00004060       ___lc_time_c               10064060     libucrt:nlsdata.obj
 0002:00004218       ??_C@_1EA@JGEFHKEI@?$AAa?$AAp?$AAi?$AA?9?$AAm?$AAs?$AA?9?$AAw?$AAi?$AAn?$AA?9?$AAc?$AAo?$AAr?$AAe?$AA?9?$AAd?$AAa?$AAt?$AAe?$AAt?$AAi?$AAm?$AAe?$AA?9?$AAl?$AA1?$AA?9?$AA1?$AA?9?$AA1?$AA?$AA@ 10064218     libucrt:winapi_thunks.obj
 0002:00004258       ??_C@_1DI@IJCEHOCB@?$AAa?$AAp?$AAi?$AA?9?$AAm?$AAs?$AA?9?$AAw?$AAi?$AAn?$AA?9?$AAc?$AAo?$AAr?$AAe?$AA?9?$AAf?$AAi?$AAl?$AAe?$AA?9?$AAl?$AA1?$AA?9?$AA2?$AA?9?$AA2?$AA?$AA@ 10064258     libucrt:winapi_thunks.obj
 0002:00004290       ??_C@_1EI@MPIAOHOC@?$AAa?$AAp?$AAi?$AA?9?$AAm?$AAs?$AA?9?$AAw?$AAi?$AAn?$AA?9?$AAc?$AAo?$AAr?$AAe?$AA?9?$AAl?$AAo?$AAc?$AAa?$AAl?$AAi?$AAz?$AAa?$AAt?$AAi?$AAo?$AAn?$AA?9?$AAl?$AA1?$AA?9@ 10064290     libucrt:winapi_thunks.obj
 0002:000042d8       ??_C@_1FK@FPHCKFIE@?$AAa?$AAp?$AAi?$AA?9?$AAm?$AAs?$AA?9?$AAw?$AAi?$AAn?$AA?9?$AAc?$AAo?$AAr?$AAe?$AA?9?$AAl?$AAo?$AAc?$AAa?$AAl?$AAi?$AAz?$AAa?$AAt?$AAi?$AAo?$AAn?$AA?9?$AAo?$AAb?$AAs@ 100642d8     libucrt:winapi_thunks.obj
 0002:00004338       ??_C@_1EM@DILCGIIO@?$AAa?$AAp?$AAi?$AA?9?$AAm?$AAs?$AA?9?$AAw?$AAi?$AAn?$AA?9?$AAc?$AAo?$AAr?$AAe?$AA?9?$AAp?$AAr?$AAo?$AAc?$AAe?$AAs?$AAs?$AAt?$AAh?$AAr?$AAe?$AAa?$AAd?$AAs?$AA?9?$AAl@ 10064338     libucrt:winapi_thunks.obj
 0002:00004384       ??_C@_1DM@LNCGDDPN@?$AAa?$AAp?$AAi?$AA?9?$AAm?$AAs?$AA?9?$AAw?$AAi?$AAn?$AA?9?$AAc?$AAo?$AAr?$AAe?$AA?9?$AAs?$AAt?$AAr?$AAi?$AAn?$AAg?$AA?9?$AAl?$AA1?$AA?9?$AA1?$AA?9?$AA0?$AA?$AA@ 10064384     libucrt:winapi_thunks.obj
 0002:000043c0       ??_C@_1DO@FPAPJEMD@?$AAa?$AAp?$AAi?$AA?9?$AAm?$AAs?$AA?9?$AAw?$AAi?$AAn?$AA?9?$AAc?$AAo?$AAr?$AAe?$AA?9?$AAs?$AAy?$AAs?$AAi?$AAn?$AAf?$AAo?$AA?9?$AAl?$AA1?$AA?9?$AA2?$AA?9?$AA1?$AA?$AA@ 100643c0     libucrt:winapi_thunks.obj
 0002:00004400       ??_C@_1DK@NDHNAHIO@?$AAa?$AAp?$AAi?$AA?9?$AAm?$AAs?$AA?9?$AAw?$AAi?$AAn?$AA?9?$AAc?$AAo?$AAr?$AAe?$AA?9?$AAw?$AAi?$AAn?$AAr?$AAt?$AA?9?$AAl?$AA1?$AA?9?$AA1?$AA?9?$AA0?$AA?$AA@ 10064400     libucrt:winapi_thunks.obj
 0002:0000443c       ??_C@_1DM@KGHDGBCM@?$AAa?$AAp?$AAi?$AA?9?$AAm?$AAs?$AA?9?$AAw?$AAi?$AAn?$AA?9?$AAc?$AAo?$AAr?$AAe?$AA?9?$AAx?$AAs?$AAt?$AAa?$AAt?$AAe?$AA?9?$AAl?$AA2?$AA?9?$AA1?$AA?9?$AA0?$AA?$AA@ 1006443c     libucrt:winapi_thunks.obj
 0002:00004478       ??_C@_1EO@IJIOEFOH@?$AAa?$AAp?$AAi?$AA?9?$AAm?$AAs?$AA?9?$AAw?$AAi?$AAn?$AA?9?$AAr?$AAt?$AAc?$AAo?$AAr?$AAe?$AA?9?$AAn?$AAt?$AAu?$AAs?$AAe?$AAr?$AA?9?$AAw?$AAi?$AAn?$AAd?$AAo?$AAw?$AA?9@ 10064478     libucrt:winapi_thunks.obj
 0002:000044c8       ??_C@_1FG@HHGEKANL@?$AAa?$AAp?$AAi?$AA?9?$AAm?$AAs?$AA?9?$AAw?$AAi?$AAn?$AA?9?$AAs?$AAe?$AAc?$AAu?$AAr?$AAi?$AAt?$AAy?$AA?9?$AAs?$AAy?$AAs?$AAt?$AAe?$AAm?$AAf?$AAu?$AAn?$AAc?$AAt?$AAi@ 100644c8     libucrt:winapi_thunks.obj
 0002:00004520       ??_C@_1EG@DBIOJECG@?$AAe?$AAx?$AAt?$AA?9?$AAm?$AAs?$AA?9?$AAw?$AAi?$AAn?$AA?9?$AAn?$AAt?$AAu?$AAs?$AAe?$AAr?$AA?9?$AAd?$AAi?$AAa?$AAl?$AAo?$AAg?$AAb?$AAo?$AAx?$AA?9?$AAl?$AA1?$AA?9?$AA1@ 10064520     libucrt:winapi_thunks.obj
 0002:00004568       ??_C@_1EO@FIHMJCLF@?$AAe?$AAx?$AAt?$AA?9?$AAm?$AAs?$AA?9?$AAw?$AAi?$AAn?$AA?9?$AAn?$AAt?$AAu?$AAs?$AAe?$AAr?$AA?9?$AAw?$AAi?$AAn?$AAd?$AAo?$AAw?$AAs?$AAt?$AAa?$AAt?$AAi?$AAo?$AAn?$AA?9@ 10064568     libucrt:winapi_thunks.obj
 0002:000045b8       ??_C@_1M@OAIMIKLP@?$AAn?$AAt?$AAd?$AAl?$AAl?$AA?$AA@ 100645b8     libucrt:winapi_thunks.obj
 0002:000045c8       ??_C@_1EG@DPGNFKGC@?$AAa?$AAp?$AAi?$AA?9?$AAm?$AAs?$AA?9?$AAw?$AAi?$AAn?$AA?9?$AAa?$AAp?$AAp?$AAm?$AAo?$AAd?$AAe?$AAl?$AA?9?$AAr?$AAu?$AAn?$AAt?$AAi?$AAm?$AAe?$AA?9?$AAl?$AA1?$AA?9?$AA1@ 100645c8     libucrt:winapi_thunks.obj
 0002:00004610       ??_C@_1O@BCCLBEOE@?$AAu?$AAs?$AAe?$AAr?$AA3?$AA2?$AA?$AA@ 10064610     libucrt:winapi_thunks.obj
 0002:00004620       ??_C@_1BA@PFFKHIOG@?$AAa?$AAp?$AAi?$AA?9?$AAm?$AAs?$AA?9?$AA?$AA@ 10064620     libucrt:winapi_thunks.obj
 0002:00004630       ??_C@_1BA@IAIFMGEF@?$AAe?$AAx?$AAt?$AA?9?$AAm?$AAs?$AA?9?$AA?$AA@ 10064630     libucrt:winapi_thunks.obj
 0002:00004670       ??_C@_0O@KKBNKAPF@LCMapStringEx?$AA@ 10064670     libucrt:winapi_thunks.obj
 0002:00004688       ??_C@_0BB@HBDEELFH@LocaleNameToLCID?$AA@ 10064688     libucrt:winapi_thunks.obj
 0002:000046a0       ??_C@_0N@PPOMPGGK@RoInitialize?$AA@ 100646a0     libucrt:winapi_thunks.obj
 0002:000046b4       ??_C@_0P@LLFHBIJD@RoUninitialize?$AA@ 100646b4     libucrt:winapi_thunks.obj
 0002:000046c8       ??_C@_0CF@OJOFEIGO@AppPolicyGetProcessTerminationMe@ 100646c8     libucrt:winapi_thunks.obj
 0002:000046f4       ??_C@_0CF@NNDFDCOC@AppPolicyGetThreadInitialization@ 100646f4     libucrt:winapi_thunks.obj
 0002:0000472c       ??_C@_1M@HPNHIDJI@?$AAj?$AAa?$AA?9?$AAJ?$AAP?$AA?$AA@ 1006472c     libucrt:mbctype.obj
 0002:00004738       ??_C@_1M@BIBDDEMK@?$AAz?$AAh?$AA?9?$AAC?$AAN?$AA?$AA@ 10064738     libucrt:mbctype.obj
 0002:00004744       ??_C@_1M@JLOOOEGK@?$AAk?$AAo?$AA?9?$AAK?$AAR?$AA?$AA@ 10064744     libucrt:mbctype.obj
 0002:00004750       ??_C@_1M@CLNBBOPM@?$AAz?$AAh?$AA?9?$AAT?$AAW?$AA?$AA@ 10064750     libucrt:mbctype.obj
 0002:00004760       ___newctype                10064760     libucrt:ctype.obj
 0002:00004a60       ___newclmap                10064a60     libucrt:ctype.obj
 0002:00004be0       ___newcumap                10064be0     libucrt:ctype.obj
 0002:00004d60       ?large_power_data@?1??multiply_by_power_of_ten@__crt_strtox@@YA_NAAUbig_integer@2@I@Z@4QBIB 10064d60     libucrt:cfout.obj
 0002:00005668       ?large_power_indices@?1??multiply_by_power_of_ten@__crt_strtox@@YA_NAAUbig_integer@2@I@Z@4QBUunpack_index@?1??12@YA_N0I@Z@B 10065668     libucrt:cfout.obj
 0002:00005700       ?small_powers_of_ten@?1??multiply_by_power_of_ten@__crt_strtox@@YA_NAAUbig_integer@2@I@Z@4QBIB 10065700     libucrt:cfout.obj
 0002:00005724       ??_C@_01GBGANLPD@0?$AA@    10065724     libucrt:cfout.obj
 0002:00005728       ??_C@_05DNEBIAHO@1?$CDINF?$AA@ 10065728     libucrt:cfout.obj
 0002:00005730       ??_C@_06IMKFLFPG@1?$CDQNAN?$AA@ 10065730     libucrt:cfout.obj
 0002:00005738       ??_C@_06PGGFOGJG@1?$CDSNAN?$AA@ 10065738     libucrt:cfout.obj
 0002:00005740       ??_C@_05PHHOCPM@1?$CDIND?$AA@ 10065740     libucrt:cfout.obj
 0002:00005748       ??_C@_15PJPFLCCM@?$AAu?$AAk?$AA?$AA@ 10065748     libucrt:get_qualified_locale.obj
 0002:00005e70       ??_C@_15EMKDOKLE@?$AAa?$AAr?$AA?$AA@ 10065e70     libucrt:lcidtoname_downlevel.obj
 0002:00005e78       ??_C@_15KNPADPLH@?$AAb?$AAg?$AA?$AA@ 10065e78     libucrt:lcidtoname_downlevel.obj
 0002:00005e80       ??_C@_15EDMHLDMO@?$AAc?$AAa?$AA?$AA@ 10065e80     libucrt:lcidtoname_downlevel.obj
 0002:00005e88       ??_C@_1O@BPEAJADD@?$AAz?$AAh?$AA?9?$AAC?$AAH?$AAS?$AA?$AA@ 10065e88     libucrt:lcidtoname_downlevel.obj
 0002:00005e98       ??_C@_15LJNHCMNK@?$AAc?$AAs?$AA?$AA@ 10065e98     libucrt:lcidtoname_downlevel.obj
 0002:00005ea0       ??_C@_15FOMCIDHG@?$AAd?$AAa?$AA?$AA@ 10065ea0     libucrt:lcidtoname_downlevel.obj
 0002:00005ea8       ??_C@_15NBKABECB@?$AAd?$AAe?$AA?$AA@ 10065ea8     libucrt:lcidtoname_downlevel.obj
 0002:00005eb0       ??_C@_15GHPEIIAO@?$AAe?$AAl?$AA?$AA@ 10065eb0     libucrt:lcidtoname_downlevel.obj
 0002:00005eb8       ??_C@_15MNPNEAIF@?$AAe?$AAn?$AA?$AA@ 10065eb8     libucrt:lcidtoname_downlevel.obj
 0002:00005ec0       ??_C@_15GPIOMPMH@?$AAe?$AAs?$AA?$AA@ 10065ec0     libucrt:lcidtoname_downlevel.obj
 0002:00005ec8       ??_C@_15NGLOAKJC@?$AAf?$AAi?$AA?$AA@ 10065ec8     libucrt:lcidtoname_downlevel.obj
 0002:00005ed0       ??_C@_15FBKGNKAM@?$AAf?$AAr?$AA?$AA@ 10065ed0     libucrt:lcidtoname_downlevel.obj
 0002:00005ed8       ??_C@_15KGGCNEFK@?$AAh?$AAe?$AA?$AA@ 10065ed8     libucrt:lcidtoname_downlevel.obj
 0002:00005ee0       ??_C@_15PGHLIDMF@?$AAh?$AAu?$AA?$AA@ 10065ee0     libucrt:lcidtoname_downlevel.obj
 0002:00005ee8       ??_C@_15BIEMAPLM@?$AAi?$AAs?$AA?$AA@ 10065ee8     libucrt:lcidtoname_downlevel.obj
 0002:00005ef0       ??_C@_15IFJLDHAF@?$AAi?$AAt?$AA?$AA@ 10065ef0     libucrt:lcidtoname_downlevel.obj
 0002:00005ef8       ??_C@_15GEMIOCAG@?$AAj?$AAa?$AA?$AA@ 10065ef8     libucrt:lcidtoname_downlevel.obj
 0002:00005f00       ??_C@_15EPELEGJA@?$AAk?$AAo?$AA?$AA@ 10065f00     libucrt:lcidtoname_downlevel.obj
 0002:00005f08       ??_C@_15NDDHIMN@?$AAn?$AAl?$AA?$AA@ 10065f08     libucrt:lcidtoname_downlevel.obj
 0002:00005f10       ??_C@_15BPIGNHCD@?$AAn?$AAo?$AA?$AA@ 10065f10     libucrt:lcidtoname_downlevel.obj
 0002:00005f18       ??_C@_15DEOPBLCG@?$AAp?$AAl?$AA?$AA@ 10065f18     libucrt:lcidtoname_downlevel.obj
 0002:00005f20       ??_C@_15KBECGEFG@?$AAp?$AAt?$AA?$AA@ 10065f20     libucrt:lcidtoname_downlevel.obj
 0002:00005f28       ??_C@_15GLJCBFMD@?$AAr?$AAo?$AA?$AA@ 10065f28     libucrt:lcidtoname_downlevel.obj
 0002:00005f30       ??_C@_15FEDGKCDI@?$AAr?$AAu?$AA?$AA@ 10065f30     libucrt:lcidtoname_downlevel.obj
 0002:00005f38       ??_C@_15GLKMLLHM@?$AAh?$AAr?$AA?$AA@ 10065f38     libucrt:lcidtoname_downlevel.obj
 0002:00005f40       ??_C@_15CPKMFBDB@?$AAs?$AAk?$AA?$AA@ 10065f40     libucrt:lcidtoname_downlevel.obj
 0002:00005f48       ??_C@_15BAAIOGMK@?$AAs?$AAq?$AA?$AA@ 10065f48     libucrt:lcidtoname_downlevel.obj
 0002:00005f50       ??_C@_15INNPNOHD@?$AAs?$AAv?$AA?$AA@ 10065f50     libucrt:lcidtoname_downlevel.obj
 0002:00005f58       ??_C@_15CABMMOGH@?$AAt?$AAh?$AA?$AA@ 10065f58     libucrt:lcidtoname_downlevel.obj
 0002:00005f60       ??_C@_15BPLIHJJM@?$AAt?$AAr?$AA?$AA@ 10065f60     libucrt:lcidtoname_downlevel.obj
 0002:00005f68       ??_C@_15NEOEKKDJ@?$AAu?$AAr?$AA?$AA@ 10065f68     libucrt:lcidtoname_downlevel.obj
 0002:00005f70       ??_C@_15NFICGAJK@?$AAi?$AAd?$AA?$AA@ 10065f70     libucrt:lcidtoname_downlevel.obj
 0002:00005f78       ??_C@_15HPJPHDM@?$AAb?$AAe?$AA?$AA@ 10065f78     libucrt:lcidtoname_downlevel.obj
 0002:00005f80       ??_C@_15LCHLGJII@?$AAs?$AAl?$AA?$AA@ 10065f80     libucrt:lcidtoname_downlevel.obj
 0002:00005f88       ??_C@_15PCFJPHHO@?$AAe?$AAt?$AA?$AA@ 10065f88     libucrt:lcidtoname_downlevel.obj
 0002:00005f90       ??_C@_15HPFPGODN@?$AAl?$AAv?$AA?$AA@ 10065f90     libucrt:lcidtoname_downlevel.obj
 0002:00005f98       ??_C@_15NFFGKGLG@?$AAl?$AAt?$AA?$AA@ 10065f98     libucrt:lcidtoname_downlevel.obj
 0002:00005fa0       ??_C@_15BDAKCCHN@?$AAf?$AAa?$AA?$AA@ 10065fa0     libucrt:lcidtoname_downlevel.obj
 0002:00005fa8       ??_C@_15NFGIAIAJ@?$AAv?$AAi?$AA?$AA@ 10065fa8     libucrt:lcidtoname_downlevel.obj
 0002:00005fb0       ??_C@_15LMKNDMHN@?$AAh?$AAy?$AA?$AA@ 10065fb0     libucrt:lcidtoname_downlevel.obj
 0002:00005fb8       ??_C@_15IJBHMCFL@?$AAa?$AAz?$AA?$AA@ 10065fb8     libucrt:lcidtoname_downlevel.obj
 0002:00005fc0       ??_C@_15EKOFJABL@?$AAe?$AAu?$AA?$AA@ 10065fc0     libucrt:lcidtoname_downlevel.obj
 0002:00005fc8       ??_C@_15BGHADCNK@?$AAm?$AAk?$AA?$AA@ 10065fc8     libucrt:lcidtoname_downlevel.obj
 0002:00005fd0       ??_C@_15JDNICKHM@?$AAa?$AAf?$AA?$AA@ 10065fd0     libucrt:lcidtoname_downlevel.obj
 0002:00005fd8       ??_C@_15KPJEDBKD@?$AAk?$AAa?$AA?$AA@ 10065fd8     libucrt:lcidtoname_downlevel.obj
 0002:00005fe0       ??_C@_15PDNFFFEO@?$AAf?$AAo?$AA?$AA@ 10065fe0     libucrt:lcidtoname_downlevel.obj
 0002:00005fe8       ??_C@_15OMLEGLOC@?$AAh?$AAi?$AA?$AA@ 10065fe8     libucrt:lcidtoname_downlevel.obj
 0002:00005ff0       ??_C@_15IDNNENKK@?$AAm?$AAs?$AA?$AA@ 10065ff0     libucrt:lcidtoname_downlevel.obj
 0002:00005ff8       ??_C@_15MACJNBMH@?$AAk?$AAk?$AA?$AA@ 10065ff8     libucrt:lcidtoname_downlevel.obj
 0002:00006000       ??_C@_15DKDJEOND@?$AAk?$AAy?$AA?$AA@ 10066000     libucrt:lcidtoname_downlevel.obj
 0002:00006008       ??_C@_15DFGDLJBG@?$AAs?$AAw?$AA?$AA@ 10066008     libucrt:lcidtoname_downlevel.obj
 0002:00006010       ??_C@_15BBFAICNG@?$AAu?$AAz?$AA?$AA@ 10066010     libucrt:lcidtoname_downlevel.obj
 0002:00006018       ??_C@_15DKNDCGEA@?$AAt?$AAt?$AA?$AA@ 10066018     libucrt:lcidtoname_downlevel.obj
 0002:00006020       ??_C@_15MGIFMDPL@?$AAp?$AAa?$AA?$AA@ 10066020     libucrt:lcidtoname_downlevel.obj
 0002:00006028       ??_C@_15HCNDBBA@?$AAg?$AAu?$AA?$AA@ 10066028     libucrt:lcidtoname_downlevel.obj
 0002:00006030       ??_C@_15FNBEIBON@?$AAt?$AAa?$AA?$AA@ 10066030     libucrt:lcidtoname_downlevel.obj
 0002:00006038       ??_C@_15NCHGBGLK@?$AAt?$AAe?$AA?$AA@ 10066038     libucrt:lcidtoname_downlevel.obj
 0002:00006040       ??_C@_15PHPHCBPF@?$AAk?$AAn?$AA?$AA@ 10066040     libucrt:lcidtoname_downlevel.obj
 0002:00006048       ??_C@_15DLGBCKMP@?$AAm?$AAr?$AA?$AA@ 10066048     libucrt:lcidtoname_downlevel.obj
 0002:00006050       ??_C@_15EABBLBFF@?$AAs?$AAa?$AA?$AA@ 10066050     libucrt:lcidtoname_downlevel.obj
 0002:00006058       ??_C@_15CBKOMCOI@?$AAm?$AAn?$AA?$AA@ 10066058     libucrt:lcidtoname_downlevel.obj
 0002:00006060       ??_C@_15CKDMCJAF@?$AAg?$AAl?$AA?$AA@ 10066060     libucrt:lcidtoname_downlevel.obj
 0002:00006068       ??_C@_17CNJFBPG@?$AAk?$AAo?$AAk?$AA?$AA@ 10066068     libucrt:lcidtoname_downlevel.obj
 0002:00006070       ??_C@_17FFBJICPL@?$AAs?$AAy?$AAr?$AA?$AA@ 10066070     libucrt:lcidtoname_downlevel.obj
 0002:00006078       ??_C@_17KPNDCPAF@?$AAd?$AAi?$AAv?$AA?$AA@ 10066078     libucrt:lcidtoname_downlevel.obj
 0002:00006080       ??_C@_11LOCGONAA@?$AA?$AA@ 10066080     libucrt:lcidtoname_downlevel.obj
 0002:00006084       ??_C@_1M@OKAHONE@?$AAa?$AAr?$AA?9?$AAS?$AAA?$AA?$AA@ 10066084     libucrt:lcidtoname_downlevel.obj
 0002:00006090       ??_C@_1M@FFFIGIGK@?$AAb?$AAg?$AA?9?$AAB?$AAG?$AA?$AA@ 10066090     libucrt:lcidtoname_downlevel.obj
 0002:0000609c       ??_C@_1M@BJNKEDC@?$AAc?$AAa?$AA?9?$AAE?$AAS?$AA?$AA@ 1006609c     libucrt:lcidtoname_downlevel.obj
 0002:000060a8       ??_C@_1M@IJJHFJHA@?$AAc?$AAs?$AA?9?$AAC?$AAZ?$AA?$AA@ 100660a8     libucrt:lcidtoname_downlevel.obj
 0002:000060b4       ??_C@_1M@CLPEOBGI@?$AAd?$AAa?$AA?9?$AAD?$AAK?$AA?$AA@ 100660b4     libucrt:lcidtoname_downlevel.obj
 0002:000060c0       ??_C@_1M@MCMADGCB@?$AAd?$AAe?$AA?9?$AAD?$AAE?$AA?$AA@ 100660c0     libucrt:lcidtoname_downlevel.obj
 0002:000060cc       ??_C@_1M@OOCKEMAM@?$AAe?$AAl?$AA?9?$AAG?$AAR?$AA?$AA@ 100660cc     libucrt:lcidtoname_downlevel.obj
 0002:000060d8       ??_C@_1M@DDNJFGID@?$AAf?$AAi?$AA?9?$AAF?$AAI?$AA?$AA@ 100660d8     libucrt:lcidtoname_downlevel.obj
 0002:000060e4       ??_C@_1M@GLIPPMAC@?$AAf?$AAr?$AA?9?$AAF?$AAR?$AA?$AA@ 100660e4     libucrt:lcidtoname_downlevel.obj
 0002:000060f0       ??_C@_1M@GFMCHPE@?$AAh?$AAe?$AA?9?$AAI?$AAL?$AA?$AA@ 100660f0     libucrt:lcidtoname_downlevel.obj
 0002:000060fc       ??_C@_1M@MHLPGNKM@?$AAh?$AAu?$AA?9?$AAH?$AAU?$AA?$AA@ 100660fc     libucrt:lcidtoname_downlevel.obj
 0002:00006108       ??_C@_1M@LPDDNNPN@?$AAi?$AAs?$AA?9?$AAI?$AAS?$AA?$AA@ 10066108     libucrt:lcidtoname_downlevel.obj
 0002:00006114       ??_C@_1M@MADIPODN@?$AAi?$AAt?$AA?9?$AAI?$AAT?$AA?$AA@ 10066114     libucrt:lcidtoname_downlevel.obj
 0002:00006120       ??_C@_1M@IHBJJGG@?$AAn?$AAl?$AA?9?$AAN?$AAL?$AA?$AA@ 10066120     libucrt:lcidtoname_downlevel.obj
 0002:0000612c       ??_C@_1M@EANAGDL@?$AAn?$AAb?$AA?9?$AAN?$AAO?$AA?$AA@ 1006612c     libucrt:lcidtoname_downlevel.obj
 0002:00006138       ??_C@_1M@NEIEMEGP@?$AAp?$AAl?$AA?9?$AAP?$AAL?$AA?$AA@ 10066138     libucrt:lcidtoname_downlevel.obj
 0002:00006144       ??_C@_1M@BOCFIGEP@?$AAp?$AAt?$AA?9?$AAB?$AAR?$AA?$AA@ 10066144     libucrt:lcidtoname_downlevel.obj
 0002:00006150       ??_C@_1M@IMPFOPBG@?$AAr?$AAo?$AA?9?$AAR?$AAO?$AA?$AA@ 10066150     libucrt:lcidtoname_downlevel.obj
 0002:0000615c       ??_C@_1M@IDNNEJMM@?$AAr?$AAu?$AA?9?$AAR?$AAU?$AA?$AA@ 1006615c     libucrt:lcidtoname_downlevel.obj
 0002:00006168       ??_C@_1M@LILEEOGM@?$AAh?$AAr?$AA?9?$AAH?$AAR?$AA?$AA@ 10066168     libucrt:lcidtoname_downlevel.obj
 0002:00006174       ??_C@_1M@FKIFEHPB@?$AAs?$AAk?$AA?9?$AAS?$AAK?$AA?$AA@ 10066174     libucrt:lcidtoname_downlevel.obj
 0002:00006180       ??_C@_1M@LJMAMNPJ@?$AAs?$AAq?$AA?9?$AAA?$AAL?$AA?$AA@ 10066180     libucrt:lcidtoname_downlevel.obj
 0002:0000618c       ??_C@_1M@GIAKDKJK@?$AAs?$AAv?$AA?9?$AAS?$AAE?$AA?$AA@ 1006618c     libucrt:lcidtoname_downlevel.obj
 0002:00006198       ??_C@_1M@MKJKIKCL@?$AAt?$AAh?$AA?9?$AAT?$AAH?$AA?$AA@ 10066198     libucrt:lcidtoname_downlevel.obj
 0002:000061a4       ??_C@_1M@MFLCCMPB@?$AAt?$AAr?$AA?9?$AAT?$AAR?$AA?$AA@ 100661a4     libucrt:lcidtoname_downlevel.obj
 0002:000061b0       ??_C@_1M@OIJHDKJN@?$AAu?$AAr?$AA?9?$AAP?$AAK?$AA?$AA@ 100661b0     libucrt:lcidtoname_downlevel.obj
 0002:000061bc       ??_C@_1M@LHIPCIEK@?$AAi?$AAd?$AA?9?$AAI?$AAD?$AA?$AA@ 100661bc     libucrt:lcidtoname_downlevel.obj
 0002:000061c8       ??_C@_1M@MFMOBGI@?$AAu?$AAk?$AA?9?$AAU?$AAA?$AA?$AA@ 100661c8     libucrt:lcidtoname_downlevel.obj
 0002:000061d4       ??_C@_1M@OBGLJIPL@?$AAb?$AAe?$AA?9?$AAB?$AAY?$AA?$AA@ 100661d4     libucrt:lcidtoname_downlevel.obj
 0002:000061e0       ??_C@_1M@BCFAJEAD@?$AAs?$AAl?$AA?9?$AAS?$AAI?$AA?$AA@ 100661e0     libucrt:lcidtoname_downlevel.obj
 0002:000061ec       ??_C@_1M@FKFFEDDN@?$AAe?$AAt?$AA?9?$AAE?$AAE?$AA?$AA@ 100661ec     libucrt:lcidtoname_downlevel.obj
 0002:000061f8       ??_C@_1M@KGKKAACI@?$AAl?$AAv?$AA?9?$AAL?$AAV?$AA?$AA@ 100661f8     libucrt:lcidtoname_downlevel.obj
 0002:00006204       ??_C@_1M@IFGBIJO@?$AAl?$AAt?$AA?9?$AAL?$AAT?$AA?$AA@ 10066204     libucrt:lcidtoname_downlevel.obj
 0002:00006210       ??_C@_1M@FGEAHEDM@?$AAf?$AAa?$AA?9?$AAI?$AAR?$AA?$AA@ 10066210     libucrt:lcidtoname_downlevel.obj
 0002:0000621c       ??_C@_1M@KBMAIBFN@?$AAv?$AAi?$AA?9?$AAV?$AAN?$AA?$AA@ 1006621c     libucrt:lcidtoname_downlevel.obj
 0002:00006228       ??_C@_1M@GPCBKDJK@?$AAh?$AAy?$AA?9?$AAA?$AAM?$AA?$AA@ 10066228     libucrt:lcidtoname_downlevel.obj
 0002:00006234       ??_C@_1BG@BECMDDJB@?$AAa?$AAz?$AA?9?$AAA?$AAZ?$AA?9?$AAL?$AAa?$AAt?$AAn?$AA?$AA@ 10066234     libucrt:lcidtoname_downlevel.obj
 0002:0000624c       ??_C@_1M@MAOFCAEA@?$AAe?$AAu?$AA?9?$AAE?$AAS?$AA?$AA@ 1006624c     libucrt:lcidtoname_downlevel.obj
 0002:00006258       ??_C@_1M@IGHABKPI@?$AAm?$AAk?$AA?9?$AAM?$AAK?$AA?$AA@ 10066258     libucrt:lcidtoname_downlevel.obj
 0002:00006264       ??_C@_1M@IAIGNEJG@?$AAt?$AAn?$AA?9?$AAZ?$AAA?$AA?$AA@ 10066264     libucrt:lcidtoname_downlevel.obj
 0002:00006270       ??_C@_1M@IIJCOJFA@?$AAx?$AAh?$AA?9?$AAZ?$AAA?$AA?$AA@ 10066270     libucrt:lcidtoname_downlevel.obj
 0002:0000627c       ??_C@_1M@LGPJHNJH@?$AAz?$AAu?$AA?9?$AAZ?$AAA?$AA?$AA@ 1006627c     libucrt:lcidtoname_downlevel.obj
 0002:00006288       ??_C@_1M@HOKAOIO@?$AAa?$AAf?$AA?9?$AAZ?$AAA?$AA?$AA@ 10066288     libucrt:lcidtoname_downlevel.obj
 0002:00006294       ??_C@_1M@DPCLHLIE@?$AAk?$AAa?$AA?9?$AAG?$AAE?$AA?$AA@ 10066294     libucrt:lcidtoname_downlevel.obj
 0002:000062a0       ??_C@_1M@BLKMHJBI@?$AAf?$AAo?$AA?9?$AAF?$AAO?$AA?$AA@ 100662a0     libucrt:lcidtoname_downlevel.obj
 0002:000062ac       ??_C@_1M@LGGJAPPB@?$AAh?$AAi?$AA?9?$AAI?$AAN?$AA?$AA@ 100662ac     libucrt:lcidtoname_downlevel.obj
 0002:000062b8       ??_C@_1M@FIKPIHFE@?$AAm?$AAt?$AA?9?$AAM?$AAT?$AA?$AA@ 100662b8     libucrt:lcidtoname_downlevel.obj
 0002:000062c4       ??_C@_1M@HEGGPBFA@?$AAs?$AAe?$AA?9?$AAN?$AAO?$AA?$AA@ 100662c4     libucrt:lcidtoname_downlevel.obj
 0002:000062d0       ??_C@_1M@EIBJEEPA@?$AAm?$AAs?$AA?9?$AAM?$AAY?$AA?$AA@ 100662d0     libucrt:lcidtoname_downlevel.obj
 0002:000062dc       ??_C@_1M@FHLBGMPP@?$AAk?$AAk?$AA?9?$AAK?$AAZ?$AA?$AA@ 100662dc     libucrt:lcidtoname_downlevel.obj
 0002:000062e8       ??_C@_1M@NGJJLCGI@?$AAk?$AAy?$AA?9?$AAK?$AAG?$AA?$AA@ 100662e8     libucrt:lcidtoname_downlevel.obj
 0002:000062f4       ??_C@_1M@GIENNBFC@?$AAs?$AAw?$AA?9?$AAK?$AAE?$AA?$AA@ 100662f4     libucrt:lcidtoname_downlevel.obj
 0002:00006300       ??_C@_1BG@NDGMJIMJ@?$AAu?$AAz?$AA?9?$AAU?$AAZ?$AA?9?$AAL?$AAa?$AAt?$AAn?$AA?$AA@ 10066300     libucrt:lcidtoname_downlevel.obj
 0002:00006318       ??_C@_1M@IDCCIHBC@?$AAt?$AAt?$AA?9?$AAR?$AAU?$AA?$AA@ 10066318     libucrt:lcidtoname_downlevel.obj
 0002:00006324       ??_C@_1M@LOICPMOJ@?$AAb?$AAn?$AA?9?$AAI?$AAN?$AA?$AA@ 10066324     libucrt:lcidtoname_downlevel.obj
 0002:00006330       ??_C@_1M@KPKKNEAH@?$AAp?$AAa?$AA?9?$AAI?$AAN?$AA?$AA@ 10066330     libucrt:lcidtoname_downlevel.obj
 0002:0000633c       ??_C@_1M@PJGPPBOG@?$AAg?$AAu?$AA?9?$AAI?$AAN?$AA?$AA@ 1006633c     libucrt:lcidtoname_downlevel.obj
 0002:00006348       ??_C@_1M@KMKMOPHI@?$AAt?$AAa?$AA?9?$AAI?$AAN?$AA?$AA@ 10066348     libucrt:lcidtoname_downlevel.obj
 0002:00006354       ??_C@_1M@KFEHEPAC@?$AAt?$AAe?$AA?9?$AAI?$AAN?$AA?$AA@ 10066354     libucrt:lcidtoname_downlevel.obj
 0002:00006360       ??_C@_1M@CDCLMGHI@?$AAk?$AAn?$AA?9?$AAI?$AAN?$AA?$AA@ 10066360     libucrt:lcidtoname_downlevel.obj
 0002:0000636c       ??_C@_1M@MIODLDKF@?$AAm?$AAl?$AA?9?$AAI?$AAN?$AA?$AA@ 1006636c     libucrt:lcidtoname_downlevel.obj
 0002:00006378       ??_C@_1M@PBIEACPO@?$AAm?$AAr?$AA?9?$AAI?$AAN?$AA?$AA@ 10066378     libucrt:lcidtoname_downlevel.obj
 0002:00006384       ??_C@_1M@NIDEAGPH@?$AAs?$AAa?$AA?9?$AAI?$AAN?$AA?$AA@ 10066384     libucrt:lcidtoname_downlevel.obj
 0002:00006390       ??_C@_1M@FHIHCBIO@?$AAm?$AAn?$AA?9?$AAM?$AAN?$AA?$AA@ 10066390     libucrt:lcidtoname_downlevel.obj
 0002:0000639c       ??_C@_1M@JAIJPENP@?$AAc?$AAy?$AA?9?$AAG?$AAB?$AA?$AA@ 1006639c     libucrt:lcidtoname_downlevel.obj
 0002:000063a8       ??_C@_1M@PHGFBEPN@?$AAg?$AAl?$AA?9?$AAE?$AAS?$AA?$AA@ 100663a8     libucrt:lcidtoname_downlevel.obj
 0002:000063b4       ??_C@_1O@KPIPDNCP@?$AAk?$AAo?$AAk?$AA?9?$AAI?$AAN?$AA?$AA@ 100663b4     libucrt:lcidtoname_downlevel.obj
 0002:000063c4       ??_C@_1O@KNHJLDJA@?$AAs?$AAy?$AAr?$AA?9?$AAS?$AAY?$AA?$AA@ 100663c4     libucrt:lcidtoname_downlevel.obj
 0002:000063d4       ??_C@_1O@MKEKBLAH@?$AAd?$AAi?$AAv?$AA?9?$AAM?$AAV?$AA?$AA@ 100663d4     libucrt:lcidtoname_downlevel.obj
 0002:000063e4       ??_C@_1O@OHDCKDDF@?$AAq?$AAu?$AAz?$AA?9?$AAB?$AAO?$AA?$AA@ 100663e4     libucrt:lcidtoname_downlevel.obj
 0002:000063f4       ??_C@_1M@LEPJNLFD@?$AAn?$AAs?$AA?9?$AAZ?$AAA?$AA?$AA@ 100663f4     libucrt:lcidtoname_downlevel.obj
 0002:00006400       ??_C@_1M@OMLEIIJB@?$AAm?$AAi?$AA?9?$AAN?$AAZ?$AA?$AA@ 10066400     libucrt:lcidtoname_downlevel.obj
 0002:0000640c       ??_C@_1M@PMPEAILG@?$AAa?$AAr?$AA?9?$AAI?$AAQ?$AA?$AA@ 1006640c     libucrt:lcidtoname_downlevel.obj
 0002:00006418       ??_C@_1M@CNKPNOEE@?$AAd?$AAe?$AA?9?$AAC?$AAH?$AA?$AA@ 10066418     libucrt:lcidtoname_downlevel.obj
 0002:00006424       ??_C@_1M@LKMGMLKO@?$AAe?$AAn?$AA?9?$AAG?$AAB?$AA?$AA@ 10066424     libucrt:lcidtoname_downlevel.obj
 0002:00006430       ??_C@_1M@PGKJFFGL@?$AAe?$AAs?$AA?9?$AAM?$AAX?$AA?$AA@ 10066430     libucrt:lcidtoname_downlevel.obj
 0002:0000643c       ??_C@_1M@DNNANBDC@?$AAf?$AAr?$AA?9?$AAB?$AAE?$AA?$AA@ 1006643c     libucrt:lcidtoname_downlevel.obj
 0002:00006448       ??_C@_1M@HLGMDFHM@?$AAi?$AAt?$AA?9?$AAC?$AAH?$AA?$AA@ 10066448     libucrt:lcidtoname_downlevel.obj
 0002:00006454       ??_C@_1M@CLLBGJH@?$AAn?$AAl?$AA?9?$AAB?$AAE?$AA?$AA@ 10066454     libucrt:lcidtoname_downlevel.obj
 0002:00006460       ??_C@_1M@BODBOGLF@?$AAn?$AAn?$AA?9?$AAN?$AAO?$AA?$AA@ 10066460     libucrt:lcidtoname_downlevel.obj
 0002:0000646c       ??_C@_1M@HFFAHKAD@?$AAp?$AAt?$AA?9?$AAP?$AAT?$AA?$AA@ 1006646c     libucrt:lcidtoname_downlevel.obj
 0002:00006478       ??_C@_1BG@LNOAKHIE@?$AAs?$AAr?$AA?9?$AAS?$AAP?$AA?9?$AAL?$AAa?$AAt?$AAn?$AA?$AA@ 10066478     libucrt:lcidtoname_downlevel.obj
 0002:00006490       ??_C@_1M@HBMHBGAK@?$AAs?$AAv?$AA?9?$AAF?$AAI?$AA?$AA@ 10066490     libucrt:lcidtoname_downlevel.obj
 0002:0000649c       ??_C@_1BG@DGCJGJBE@?$AAa?$AAz?$AA?9?$AAA?$AAZ?$AA?9?$AAC?$AAy?$AAr?$AAl?$AA?$AA@ 1006649c     libucrt:lcidtoname_downlevel.obj
 0002:000064b4       ??_C@_1M@KEJDAAHB@?$AAs?$AAe?$AA?9?$AAS?$AAE?$AA?$AA@ 100664b4     libucrt:lcidtoname_downlevel.obj
 0002:000064c0       ??_C@_1M@HEIBJJAD@?$AAm?$AAs?$AA?9?$AAB?$AAN?$AA?$AA@ 100664c0     libucrt:lcidtoname_downlevel.obj
 0002:000064cc       ??_C@_1BG@PBGJMCEM@?$AAu?$AAz?$AA?9?$AAU?$AAZ?$AA?9?$AAC?$AAy?$AAr?$AAl?$AA?$AA@ 100664cc     libucrt:lcidtoname_downlevel.obj
 0002:000064e4       ??_C@_1O@LAOBCMDF@?$AAq?$AAu?$AAz?$AA?9?$AAE?$AAC?$AA?$AA@ 100664e4     libucrt:lcidtoname_downlevel.obj
 0002:000064f4       ??_C@_1M@POEEMAIO@?$AAa?$AAr?$AA?9?$AAE?$AAG?$AA?$AA@ 100664f4     libucrt:lcidtoname_downlevel.obj
 0002:00006500       ??_C@_1M@EFAKDEDL@?$AAz?$AAh?$AA?9?$AAH?$AAK?$AA?$AA@ 10066500     libucrt:lcidtoname_downlevel.obj
 0002:0000650c       ??_C@_1M@HKKIJHGI@?$AAd?$AAe?$AA?9?$AAA?$AAT?$AA?$AA@ 1006650c     libucrt:lcidtoname_downlevel.obj
 0002:00006518       ??_C@_1M@KBFBEHJF@?$AAe?$AAn?$AA?9?$AAA?$AAU?$AA?$AA@ 10066518     libucrt:lcidtoname_downlevel.obj
 0002:00006524       ??_C@_1M@MNPLFAAH@?$AAe?$AAs?$AA?9?$AAE?$AAS?$AA?$AA@ 10066524     libucrt:lcidtoname_downlevel.obj
 0002:00006530       ??_C@_1M@HJOOJFMA@?$AAf?$AAr?$AA?9?$AAC?$AAA?$AA?$AA@ 10066530     libucrt:lcidtoname_downlevel.obj
 0002:0000653c       ??_C@_1BG@JPOFPNAB@?$AAs?$AAr?$AA?9?$AAS?$AAP?$AA?9?$AAC?$AAy?$AAr?$AAl?$AA?$AA@ 1006653c     libucrt:lcidtoname_downlevel.obj
 0002:00006554       ??_C@_1M@LNFOCMOB@?$AAs?$AAe?$AA?9?$AAF?$AAI?$AA?$AA@ 10066554     libucrt:lcidtoname_downlevel.obj
 0002:00006560       ??_C@_1O@MGJBOAMB@?$AAq?$AAu?$AAz?$AA?9?$AAP?$AAE?$AA?$AA@ 10066560     libucrt:lcidtoname_downlevel.obj
 0002:00006570       ??_C@_1M@GJINLBOK@?$AAa?$AAr?$AA?9?$AAL?$AAY?$AA?$AA@ 10066570     libucrt:lcidtoname_downlevel.obj
 0002:0000657c       ??_C@_1M@GGMNHJNL@?$AAz?$AAh?$AA?9?$AAS?$AAG?$AA?$AA@ 1006657c     libucrt:lcidtoname_downlevel.obj
 0002:00006588       ??_C@_1M@HOIKODND@?$AAd?$AAe?$AA?9?$AAL?$AAU?$AA?$AA@ 10066588     libucrt:lcidtoname_downlevel.obj
 0002:00006594       ??_C@_1M@DDOCCGFG@?$AAe?$AAn?$AA?9?$AAC?$AAA?$AA?$AA@ 10066594     libucrt:lcidtoname_downlevel.obj
 0002:000065a0       ??_C@_1M@BNOEMJLF@?$AAe?$AAs?$AA?9?$AAG?$AAT?$AA?$AA@ 100665a0     libucrt:lcidtoname_downlevel.obj
 0002:000065ac       ??_C@_1M@EOGNKEK@?$AAf?$AAr?$AA?9?$AAC?$AAH?$AA?$AA@ 100665ac     libucrt:lcidtoname_downlevel.obj
 0002:000065b8       ??_C@_1M@FLIDJFHL@?$AAh?$AAr?$AA?9?$AAB?$AAA?$AA?$AA@ 100665b8     libucrt:lcidtoname_downlevel.obj
 0002:000065c4       ??_C@_1O@FMCELNAJ@?$AAs?$AAm?$AAj?$AA?9?$AAN?$AAO?$AA?$AA@ 100665c4     libucrt:lcidtoname_downlevel.obj
 0002:000065d4       ??_C@_1M@JHGLJMGJ@?$AAa?$AAr?$AA?9?$AAD?$AAZ?$AA?$AA@ 100665d4     libucrt:lcidtoname_downlevel.obj
 0002:000065e0       ??_C@_1M@JKKFDCNP@?$AAz?$AAh?$AA?9?$AAM?$AAO?$AA?$AA@ 100665e0     libucrt:lcidtoname_downlevel.obj
 0002:000065ec       ??_C@_1M@GEEFALPE@?$AAd?$AAe?$AA?9?$AAL?$AAI?$AA?$AA@ 100665ec     libucrt:lcidtoname_downlevel.obj
 0002:000065f8       ??_C@_1M@IGEOFBG@?$AAe?$AAn?$AA?9?$AAN?$AAZ?$AA?$AA@ 100665f8     libucrt:lcidtoname_downlevel.obj
 0002:00006604       ??_C@_1M@KDBONEHP@?$AAe?$AAs?$AA?9?$AAC?$AAR?$AA?$AA@ 10066604     libucrt:lcidtoname_downlevel.obj
 0002:00006610       ??_C@_1M@FHMDOHNN@?$AAf?$AAr?$AA?9?$AAL?$AAU?$AA?$AA@ 10066610     libucrt:lcidtoname_downlevel.obj
 0002:0000661c       ??_C@_1BG@NFKKMAFG@?$AAb?$AAs?$AA?9?$AAB?$AAA?$AA?9?$AAL?$AAa?$AAt?$AAn?$AA?$AA@ 1006661c     libucrt:lcidtoname_downlevel.obj
 0002:00006634       ??_C@_1O@IMNBEMCI@?$AAs?$AAm?$AAj?$AA?9?$AAS?$AAE?$AA?$AA@ 10066634     libucrt:lcidtoname_downlevel.obj
 0002:00006644       ??_C@_1M@DHHMBNDP@?$AAa?$AAr?$AA?9?$AAM?$AAA?$AA?$AA@ 10066644     libucrt:lcidtoname_downlevel.obj
 0002:00006650       ??_C@_1M@BNBLJCGH@?$AAe?$AAn?$AA?9?$AAI?$AAE?$AA?$AA@ 10066650     libucrt:lcidtoname_downlevel.obj
 0002:0000665c       ??_C@_1M@GEPAFMDL@?$AAe?$AAs?$AA?9?$AAP?$AAA?$AA?$AA@ 1006665c     libucrt:lcidtoname_downlevel.obj
 0002:00006668       ??_C@_1M@OJONDMDL@?$AAf?$AAr?$AA?9?$AAM?$AAC?$AA?$AA@ 10066668     libucrt:lcidtoname_downlevel.obj
 0002:00006674       ??_C@_1BG@OBCNFJB@?$AAs?$AAr?$AA?9?$AAB?$AAA?$AA?9?$AAL?$AAa?$AAt?$AAn?$AA?$AA@ 10066674     libucrt:lcidtoname_downlevel.obj
 0002:0000668c       ??_C@_1O@KEMEEGPO@?$AAs?$AAm?$AAa?$AA?9?$AAN?$AAO?$AA?$AA@ 1006668c     libucrt:lcidtoname_downlevel.obj
 0002:0000669c       ??_C@_1M@ELMGFODK@?$AAa?$AAr?$AA?9?$AAT?$AAN?$AA?$AA@ 1006669c     libucrt:lcidtoname_downlevel.obj
 0002:000066a8       ??_C@_1M@BHDLHFAF@?$AAe?$AAn?$AA?9?$AAZ?$AAA?$AA?$AA@ 100666a8     libucrt:lcidtoname_downlevel.obj
 0002:000066b4       ??_C@_1M@BMGIGLIF@?$AAe?$AAs?$AA?9?$AAD?$AAO?$AA?$AA@ 100666b4     libucrt:lcidtoname_downlevel.obj
 0002:000066c0       ??_C@_1BG@CMBHIPBE@?$AAs?$AAr?$AA?9?$AAB?$AAA?$AA?9?$AAC?$AAy?$AAr?$AAl?$AA?$AA@ 100666c0     libucrt:lcidtoname_downlevel.obj
 0002:000066d8       ??_C@_1O@HEDBLHNP@?$AAs?$AAm?$AAa?$AA?9?$AAS?$AAE?$AA?$AA@ 100666d8     libucrt:lcidtoname_downlevel.obj
 0002:000066e8       ??_C@_1M@DAGCADIM@?$AAa?$AAr?$AA?9?$AAO?$AAM?$AA?$AA@ 100666e8     libucrt:lcidtoname_downlevel.obj
 0002:000066f4       ??_C@_1M@FODLMICG@?$AAe?$AAn?$AA?9?$AAJ?$AAM?$AA?$AA@ 100666f4     libucrt:lcidtoname_downlevel.obj
 0002:00006700       ??_C@_1M@DNMLCIHB@?$AAe?$AAs?$AA?9?$AAV?$AAE?$AA?$AA@ 10066700     libucrt:lcidtoname_downlevel.obj
 0002:0000670c       ??_C@_1O@EOKHMKJK@?$AAs?$AAm?$AAs?$AA?9?$AAF?$AAI?$AA?$AA@ 1006670c     libucrt:lcidtoname_downlevel.obj
 0002:0000671c       ??_C@_1M@CAFJMKOF@?$AAa?$AAr?$AA?9?$AAY?$AAE?$AA?$AA@ 1006671c     libucrt:lcidtoname_downlevel.obj
 0002:00006728       ??_C@_1M@CBFHIJLI@?$AAe?$AAn?$AA?9?$AAC?$AAB?$AA?$AA@ 10066728     libucrt:lcidtoname_downlevel.obj
 0002:00006734       ??_C@_1M@BGNFLDN@?$AAe?$AAs?$AA?9?$AAC?$AAO?$AA?$AA@ 10066734     libucrt:lcidtoname_downlevel.obj
 0002:00006740       ??_C@_1O@JMPHMAMC@?$AAs?$AAm?$AAn?$AA?9?$AAF?$AAI?$AA?$AA@ 10066740     libucrt:lcidtoname_downlevel.obj
 0002:00006750       ??_C@_1M@JLANABKE@?$AAa?$AAr?$AA?9?$AAS?$AAY?$AA?$AA@ 10066750     libucrt:lcidtoname_downlevel.obj
 0002:0000675c       ??_C@_1M@HPKGCFGN@?$AAe?$AAn?$AA?9?$AAB?$AAZ?$AA?$AA@ 1006675c     libucrt:lcidtoname_downlevel.obj
 0002:00006768       ??_C@_1M@OLJCMLGM@?$AAe?$AAs?$AA?9?$AAP?$AAE?$AA?$AA@ 10066768     libucrt:lcidtoname_downlevel.obj
 0002:00006774       ??_C@_1M@MKKGFKLE@?$AAa?$AAr?$AA?9?$AAJ?$AAO?$AA?$AA@ 10066774     libucrt:lcidtoname_downlevel.obj
 0002:00006780       ??_C@_1M@EKPGLDNI@?$AAe?$AAn?$AA?9?$AAT?$AAT?$AA?$AA@ 10066780     libucrt:lcidtoname_downlevel.obj
 0002:0000678c       ??_C@_1M@OONGHFHE@?$AAe?$AAs?$AA?9?$AAA?$AAR?$AA?$AA@ 1006678c     libucrt:lcidtoname_downlevel.obj
 0002:00006798       ??_C@_1M@OOJFGBHE@?$AAa?$AAr?$AA?9?$AAL?$AAB?$AA?$AA@ 10066798     libucrt:lcidtoname_downlevel.obj
 0002:000067a4       ??_C@_1M@GCEJHNEG@?$AAe?$AAn?$AA?9?$AAZ?$AAW?$AA?$AA@ 100667a4     libucrt:lcidtoname_downlevel.obj
 0002:000067b0       ??_C@_1M@JNOCAHJI@?$AAe?$AAs?$AA?9?$AAE?$AAC?$AA?$AA@ 100667b0     libucrt:lcidtoname_downlevel.obj
 0002:000067bc       ??_C@_1M@JEFHPGGB@?$AAa?$AAr?$AA?9?$AAK?$AAW?$AA?$AA@ 100667bc     libucrt:lcidtoname_downlevel.obj
 0002:000067c8       ??_C@_1M@MLKIBJOJ@?$AAe?$AAn?$AA?9?$AAP?$AAH?$AA?$AA@ 100667c8     libucrt:lcidtoname_downlevel.obj
 0002:000067d4       ??_C@_1M@BDNIPEND@?$AAe?$AAs?$AA?9?$AAC?$AAL?$AA?$AA@ 100667d4     libucrt:lcidtoname_downlevel.obj
 0002:000067e0       ??_C@_1M@MPNMEKBD@?$AAa?$AAr?$AA?9?$AAA?$AAE?$AA?$AA@ 100667e0     libucrt:lcidtoname_downlevel.obj
 0002:000067ec       ??_C@_1M@KBJALCPI@?$AAe?$AAs?$AA?9?$AAU?$AAY?$AA?$AA@ 100667ec     libucrt:lcidtoname_downlevel.obj
 0002:000067f8       ??_C@_1M@LLCCOAGA@?$AAa?$AAr?$AA?9?$AAB?$AAH?$AA?$AA@ 100667f8     libucrt:lcidtoname_downlevel.obj
 0002:00006804       ??_C@_1M@PBFNCDEL@?$AAe?$AAs?$AA?9?$AAP?$AAY?$AA?$AA@ 10066804     libucrt:lcidtoname_downlevel.obj
 0002:00006810       ??_C@_1M@EDGINPNP@?$AAa?$AAr?$AA?9?$AAQ?$AAA?$AA?$AA@ 10066810     libucrt:lcidtoname_downlevel.obj
 0002:0000681c       ??_C@_1M@MKDBIIJI@?$AAe?$AAs?$AA?9?$AAB?$AAO?$AA?$AA@ 1006681c     libucrt:lcidtoname_downlevel.obj
 0002:00006828       ??_C@_1M@CPKKEBLD@?$AAe?$AAs?$AA?9?$AAS?$AAV?$AA?$AA@ 10066828     libucrt:lcidtoname_downlevel.obj
 0002:00006834       ??_C@_1M@NDBGMMJL@?$AAe?$AAs?$AA?9?$AAH?$AAN?$AA?$AA@ 10066834     libucrt:lcidtoname_downlevel.obj
 0002:00006840       ??_C@_1M@JIJIBHDP@?$AAe?$AAs?$AA?9?$AAN?$AAI?$AA?$AA@ 10066840     libucrt:lcidtoname_downlevel.obj
 0002:0000684c       ??_C@_1M@CGFMKEEK@?$AAe?$AAs?$AA?9?$AAP?$AAR?$AA?$AA@ 1006684c     libucrt:lcidtoname_downlevel.obj
 0002:00006858       ??_C@_1O@ICJHKIIK@?$AAz?$AAh?$AA?9?$AAC?$AAH?$AAT?$AA?$AA@ 10066858     libucrt:lcidtoname_downlevel.obj
 0002:00006868       ??_C@_15CLNEJCE@?$AAs?$AAr?$AA?$AA@ 10066868     libucrt:lcidtoname_downlevel.obj
 0002:00006f90       ??_C@_1M@KAHEKEIG@?$AAa?$AAf?$AA?9?$AAz?$AAa?$AA?$AA@ 10066f90     libucrt:lcidtoname_downlevel.obj
 0002:00006f9c       ??_C@_1M@GIECOABL@?$AAa?$AAr?$AA?9?$AAa?$AAe?$AA?$AA@ 10066f9c     libucrt:lcidtoname_downlevel.obj
 0002:00006fa8       ??_C@_1M@BMLMEKGI@?$AAa?$AAr?$AA?9?$AAb?$AAh?$AA?$AA@ 10066fa8     libucrt:lcidtoname_downlevel.obj
 0002:00006fb4       ??_C@_1M@DAPFDGGB@?$AAa?$AAr?$AA?9?$AAd?$AAz?$AA?$AA@ 10066fb4     libucrt:lcidtoname_downlevel.obj
 0002:00006fc0       ??_C@_1M@FJNKGKIG@?$AAa?$AAr?$AA?9?$AAe?$AAg?$AA?$AA@ 10066fc0     libucrt:lcidtoname_downlevel.obj
 0002:00006fcc       ??_C@_1M@FLGKKCLO@?$AAa?$AAr?$AA?9?$AAi?$AAq?$AA?$AA@ 10066fcc     libucrt:lcidtoname_downlevel.obj
 0002:00006fd8       ??_C@_1M@GNDIPALM@?$AAa?$AAr?$AA?9?$AAj?$AAo?$AA?$AA@ 10066fd8     libucrt:lcidtoname_downlevel.obj
 0002:00006fe4       ??_C@_1M@DDMJFMGJ@?$AAa?$AAr?$AA?9?$AAk?$AAw?$AA?$AA@ 10066fe4     libucrt:lcidtoname_downlevel.obj
 0002:00006ff0       ??_C@_1M@EJALMLHM@?$AAa?$AAr?$AA?9?$AAl?$AAb?$AA?$AA@ 10066ff0     libucrt:lcidtoname_downlevel.obj
 0002:00006ffc       ??_C@_1M@MOBDBLOC@?$AAa?$AAr?$AA?9?$AAl?$AAy?$AA?$AA@ 10066ffc     libucrt:lcidtoname_downlevel.obj
 0002:00007008       ??_C@_1M@JAOCLHDH@?$AAa?$AAr?$AA?9?$AAm?$AAa?$AA?$AA@ 10067008     libucrt:lcidtoname_downlevel.obj
 0002:00007014       ??_C@_1M@JHPMKJIE@?$AAa?$AAr?$AA?9?$AAo?$AAm?$AA?$AA@ 10067014     libucrt:lcidtoname_downlevel.obj
 0002:00007020       ??_C@_1M@OEPGHFNH@?$AAa?$AAr?$AA?9?$AAq?$AAa?$AA?$AA@ 10067020     libucrt:lcidtoname_downlevel.obj
 0002:0000702c       ??_C@_1M@KJDONENM@?$AAa?$AAr?$AA?9?$AAs?$AAa?$AA?$AA@ 1006702c     libucrt:lcidtoname_downlevel.obj
 0002:00007038       ??_C@_1M@DMJDKLKM@?$AAa?$AAr?$AA?9?$AAs?$AAy?$AA?$AA@ 10067038     libucrt:lcidtoname_downlevel.obj
 0002:00007044       ??_C@_1M@OMFIPEDC@?$AAa?$AAr?$AA?9?$AAt?$AAn?$AA?$AA@ 10067044     libucrt:lcidtoname_downlevel.obj
 0002:00007050       ??_C@_1M@IHMHGAON@?$AAa?$AAr?$AA?9?$AAy?$AAe?$AA?$AA@ 10067050     libucrt:lcidtoname_downlevel.obj
 0002:0000705c       ??_C@_1BG@KDCPGJGB@?$AAa?$AAz?$AA?9?$AAa?$AAz?$AA?9?$AAc?$AAy?$AAr?$AAl?$AA?$AA@ 1006705c     libucrt:lcidtoname_downlevel.obj
 0002:00007074       ??_C@_1BG@IBCKDDOE@?$AAa?$AAz?$AA?9?$AAa?$AAz?$AA?9?$AAl?$AAa?$AAt?$AAn?$AA?$AA@ 10067074     libucrt:lcidtoname_downlevel.obj
 0002:0000708c       ??_C@_1M@EGPFDCPD@?$AAb?$AAe?$AA?9?$AAb?$AAy?$AA?$AA@ 1006708c     libucrt:lcidtoname_downlevel.obj
 0002:00007098       ??_C@_1M@PCMGMCGC@?$AAb?$AAg?$AA?9?$AAb?$AAg?$AA?$AA@ 10067098     libucrt:lcidtoname_downlevel.obj
 0002:000070a4       ??_C@_1M@BJBMFGOB@?$AAb?$AAn?$AA?9?$AAi?$AAn?$AA?$AA@ 100670a4     libucrt:lcidtoname_downlevel.obj
 0002:000070b0       ??_C@_1BG@EAKMMACD@?$AAb?$AAs?$AA?9?$AAb?$AAa?$AA?9?$AAl?$AAa?$AAt?$AAn?$AA?$AA@ 100670b0     libucrt:lcidtoname_downlevel.obj
 0002:000070c8       ??_C@_1M@KGADAODK@?$AAc?$AAa?$AA?9?$AAe?$AAs?$AA?$AA@ 100670c8     libucrt:lcidtoname_downlevel.obj
 0002:000070d4       ??_C@_1M@COAJPDHI@?$AAc?$AAs?$AA?9?$AAc?$AAz?$AA?$AA@ 100670d4     libucrt:lcidtoname_downlevel.obj
 0002:000070e0       ??_C@_1M@DHBHFONH@?$AAc?$AAy?$AA?9?$AAg?$AAb?$AA?$AA@ 100670e0     libucrt:lcidtoname_downlevel.obj
 0002:000070ec       ??_C@_1M@IMGKELGA@?$AAd?$AAa?$AA?9?$AAd?$AAk?$AA?$AA@ 100670ec     libucrt:lcidtoname_downlevel.obj
 0002:000070f8       ??_C@_1M@NNDGDNGA@?$AAd?$AAe?$AA?9?$AAa?$AAt?$AA?$AA@ 100670f8     libucrt:lcidtoname_downlevel.obj
 0002:00007104       ??_C@_1M@IKDBHEEM@?$AAd?$AAe?$AA?9?$AAc?$AAh?$AA?$AA@ 10067104     libucrt:lcidtoname_downlevel.obj
 0002:00007110       ??_C@_1M@GFFOJMCJ@?$AAd?$AAe?$AA?9?$AAd?$AAe?$AA?$AA@ 10067110     libucrt:lcidtoname_downlevel.obj
 0002:0000711c       ??_C@_1M@MDNLKBPM@?$AAd?$AAe?$AA?9?$AAl?$AAi?$AA?$AA@ 1006711c     libucrt:lcidtoname_downlevel.obj
 0002:00007128       ??_C@_1M@NJBEEJNL@?$AAd?$AAe?$AA?9?$AAl?$AAu?$AA?$AA@ 10067128     libucrt:lcidtoname_downlevel.obj
 0002:00007134       ??_C@_1O@GNNELBAP@?$AAd?$AAi?$AAv?$AA?9?$AAm?$AAv?$AA?$AA@ 10067134     libucrt:lcidtoname_downlevel.obj
 0002:00007144       ??_C@_1M@EJLEOGAE@?$AAe?$AAl?$AA?9?$AAg?$AAr?$AA?$AA@ 10067144     libucrt:lcidtoname_downlevel.obj
 0002:00007150       ??_C@_1M@GMPONJN@?$AAe?$AAn?$AA?9?$AAa?$AAu?$AA?$AA@ 10067150     libucrt:lcidtoname_downlevel.obj
 0002:0000715c       ??_C@_1M@NIDIIPGF@?$AAe?$AAn?$AA?9?$AAb?$AAz?$AA?$AA@ 1006715c     libucrt:lcidtoname_downlevel.obj
 0002:00007168       ??_C@_1M@JEHMIMFO@?$AAe?$AAn?$AA?9?$AAc?$AAa?$AA?$AA@ 10067168     libucrt:lcidtoname_downlevel.obj
 0002:00007174       ??_C@_1M@IGMJCDLA@?$AAe?$AAn?$AA?9?$AAc?$AAb?$AA?$AA@ 10067174     libucrt:lcidtoname_downlevel.obj
 0002:00007180       ??_C@_1M@BNFIGBKG@?$AAe?$AAn?$AA?9?$AAg?$AAb?$AA?$AA@ 10067180     libucrt:lcidtoname_downlevel.obj
 0002:0000718c       ??_C@_1M@LKIFDIGP@?$AAe?$AAn?$AA?9?$AAi?$AAe?$AA?$AA@ 1006718c     libucrt:lcidtoname_downlevel.obj
 0002:00007198       ??_C@_1M@PJKFGCCO@?$AAe?$AAn?$AA?9?$AAj?$AAm?$AA?$AA@ 10067198     libucrt:lcidtoname_downlevel.obj
 0002:000071a4       ??_C@_1M@KPPKEPBO@?$AAe?$AAn?$AA?9?$AAn?$AAz?$AA?$AA@ 100671a4     libucrt:lcidtoname_downlevel.obj
 0002:000071b0       ??_C@_1M@GMDGLDOB@?$AAe?$AAn?$AA?9?$AAp?$AAh?$AA?$AA@ 100671b0     libucrt:lcidtoname_downlevel.obj
 0002:000071bc       ??_C@_1M@ONGIBJNA@?$AAe?$AAn?$AA?9?$AAt?$AAt?$AA?$AA@ 100671bc     libucrt:lcidtoname_downlevel.obj
 0002:000071c8       ??_C@_1M@LLODPCMM@?$AAe?$AAn?$AA?9?$AAu?$AAs?$AA?$AA@ 100671c8     libucrt:lcidtoname_downlevel.obj
 0002:000071d4       ??_C@_1M@LAKFNPAN@?$AAe?$AAn?$AA?9?$AAz?$AAa?$AA?$AA@ 100671d4     libucrt:lcidtoname_downlevel.obj
 0002:000071e0       ??_C@_1M@MFNHNHEO@?$AAe?$AAn?$AA?9?$AAz?$AAw?$AA?$AA@ 100671e0     libucrt:lcidtoname_downlevel.obj
 0002:000071ec       ??_C@_1M@EJEINPHM@?$AAe?$AAs?$AA?9?$AAa?$AAr?$AA?$AA@ 100671ec     libucrt:lcidtoname_downlevel.obj
 0002:000071f8       ??_C@_1M@GNKPCCJA@?$AAe?$AAs?$AA?9?$AAb?$AAo?$AA?$AA@ 100671f8     libucrt:lcidtoname_downlevel.obj
 0002:00007204       ??_C@_1M@LEEGFONL@?$AAe?$AAs?$AA?9?$AAc?$AAl?$AA?$AA@ 10067204     libucrt:lcidtoname_downlevel.obj
 0002:00007210       ??_C@_1M@KGPDPBDF@?$AAe?$AAs?$AA?9?$AAc?$AAo?$AA?$AA@ 10067210     libucrt:lcidtoname_downlevel.obj
 0002:0000721c       ??_C@_1M@EIAHOHH@?$AAe?$AAs?$AA?9?$AAc?$AAr?$AA?$AA@ 1006721c     libucrt:lcidtoname_downlevel.obj
 0002:00007228       ??_C@_1M@LLPGMBIN@?$AAe?$AAs?$AA?9?$AAd?$AAo?$AA?$AA@ 10067228     libucrt:lcidtoname_downlevel.obj
 0002:00007234       ??_C@_1M@DKHMKNJA@?$AAe?$AAs?$AA?9?$AAe?$AAc?$AA?$AA@ 10067234     libucrt:lcidtoname_downlevel.obj
 0002:00007240       ??_C@_1M@GKGFPKAP@?$AAe?$AAs?$AA?9?$AAe?$AAs?$AA?$AA@ 10067240     libucrt:lcidtoname_downlevel.obj
 0002:0000724c       ??_C@_1M@LKHKGDLN@?$AAe?$AAs?$AA?9?$AAg?$AAt?$AA?$AA@ 1006724c     libucrt:lcidtoname_downlevel.obj
 0002:00007258       ??_C@_1M@HEIIGGJD@?$AAe?$AAs?$AA?9?$AAh?$AAn?$AA?$AA@ 10067258     libucrt:lcidtoname_downlevel.obj
 0002:00007264       ??_C@_1M@FBDHPPGD@?$AAe?$AAs?$AA?9?$AAm?$AAx?$AA?$AA@ 10067264     libucrt:lcidtoname_downlevel.obj
 0002:00007270       ??_C@_1M@DPAGLNDH@?$AAe?$AAs?$AA?9?$AAn?$AAi?$AA?$AA@ 10067270     libucrt:lcidtoname_downlevel.obj
 0002:0000727c       ??_C@_1M@MDGOPGDD@?$AAe?$AAs?$AA?9?$AAp?$AAa?$AA?$AA@ 1006727c     libucrt:lcidtoname_downlevel.obj
 0002:00007288       ??_C@_1M@EMAMGBGE@?$AAe?$AAs?$AA?9?$AAp?$AAe?$AA?$AA@ 10067288     libucrt:lcidtoname_downlevel.obj
 0002:00007294       ??_C@_1M@IBMCAOEC@?$AAe?$AAs?$AA?9?$AAp?$AAr?$AA?$AA@ 10067294     libucrt:lcidtoname_downlevel.obj
 0002:000072a0       ??_C@_1M@FGMDIJED@?$AAe?$AAs?$AA?9?$AAp?$AAy?$AA?$AA@ 100672a0     libucrt:lcidtoname_downlevel.obj
 0002:000072ac       ??_C@_1M@IIDEOLLL@?$AAe?$AAs?$AA?9?$AAs?$AAv?$AA?$AA@ 100672ac     libucrt:lcidtoname_downlevel.obj
 0002:000072b8       ??_C@_1M@GAOBIPA@?$AAe?$AAs?$AA?9?$AAu?$AAy?$AA?$AA@ 100672b8     libucrt:lcidtoname_downlevel.obj
 0002:000072c4       ??_C@_1M@JKFFICHJ@?$AAe?$AAs?$AA?9?$AAv?$AAe?$AA?$AA@ 100672c4     libucrt:lcidtoname_downlevel.obj
 0002:000072d0       ??_C@_1M@PNMLOJDF@?$AAe?$AAt?$AA?9?$AAe?$AAe?$AA?$AA@ 100672d0     libucrt:lcidtoname_downlevel.obj
 0002:000072dc       ??_C@_1M@GHHLIKEI@?$AAe?$AAu?$AA?9?$AAe?$AAs?$AA?$AA@ 100672dc     libucrt:lcidtoname_downlevel.obj
 0002:000072e8       ??_C@_1M@PBNONODE@?$AAf?$AAa?$AA?9?$AAi?$AAr?$AA?$AA@ 100672e8     libucrt:lcidtoname_downlevel.obj
 0002:000072f4       ??_C@_1M@JEEHPMIL@?$AAf?$AAi?$AA?9?$AAf?$AAi?$AA?$AA@ 100672f4     libucrt:lcidtoname_downlevel.obj
 0002:00007300       ??_C@_1M@LMDCNDBA@?$AAf?$AAo?$AA?9?$AAf?$AAo?$AA?$AA@ 10067300     libucrt:lcidtoname_downlevel.obj
 0002:0000730c       ??_C@_1M@JKEOHLDK@?$AAf?$AAr?$AA?9?$AAb?$AAe?$AA?$AA@ 1006730c     libucrt:lcidtoname_downlevel.obj
 0002:00007318       ??_C@_1M@NOHADPMI@?$AAf?$AAr?$AA?9?$AAc?$AAa?$AA?$AA@ 10067318     libucrt:lcidtoname_downlevel.obj
 0002:00007324       ??_C@_1M@KDHIHAEC@?$AAf?$AAr?$AA?9?$AAc?$AAh?$AA?$AA@ 10067324     libucrt:lcidtoname_downlevel.obj
 0002:00007330       ??_C@_1M@MMBBFGAK@?$AAf?$AAr?$AA?9?$AAf?$AAr?$AA?$AA@ 10067330     libucrt:lcidtoname_downlevel.obj
 0002:0000733c       ??_C@_1M@PAFNENNF@?$AAf?$AAr?$AA?9?$AAl?$AAu?$AA?$AA@ 1006733c     libucrt:lcidtoname_downlevel.obj
 0002:00007348       ??_C@_1M@EOHDJGDD@?$AAf?$AAr?$AA?9?$AAm?$AAc?$AA?$AA@ 10067348     libucrt:lcidtoname_downlevel.obj
 0002:00007354       ??_C@_1M@FAPLLOPF@?$AAg?$AAl?$AA?9?$AAe?$AAs?$AA?$AA@ 10067354     libucrt:lcidtoname_downlevel.obj
 0002:00007360       ??_C@_1M@FOPBFLOO@?$AAg?$AAu?$AA?9?$AAi?$AAn?$AA?$AA@ 10067360     libucrt:lcidtoname_downlevel.obj
 0002:0000736c       ??_C@_1M@KBMCINPM@?$AAh?$AAe?$AA?9?$AAi?$AAl?$AA?$AA@ 1006736c     libucrt:lcidtoname_downlevel.obj
 0002:00007378       ??_C@_1M@BBPHKFPJ@?$AAh?$AAi?$AA?9?$AAi?$AAn?$AA?$AA@ 10067378     libucrt:lcidtoname_downlevel.obj
 0002:00007384       ??_C@_1M@PMBNDPHD@?$AAh?$AAr?$AA?9?$AAb?$AAa?$AA?$AA@ 10067384     libucrt:lcidtoname_downlevel.obj
 0002:00007390       ??_C@_1M@BPCKOEGE@?$AAh?$AAr?$AA?9?$AAh?$AAr?$AA?$AA@ 10067390     libucrt:lcidtoname_downlevel.obj
 0002:0000739c       ??_C@_1M@GACBMHKE@?$AAh?$AAu?$AA?9?$AAh?$AAu?$AA?$AA@ 1006739c     libucrt:lcidtoname_downlevel.obj
 0002:000073a8       ??_C@_1M@MILPAJJC@?$AAh?$AAy?$AA?9?$AAa?$AAm?$AA?$AA@ 100673a8     libucrt:lcidtoname_downlevel.obj
 0002:000073b4       ??_C@_1M@BABBICEC@?$AAi?$AAd?$AA?9?$AAi?$AAd?$AA?$AA@ 100673b4     libucrt:lcidtoname_downlevel.obj
 0002:000073c0       ??_C@_1M@BIKNHHPF@?$AAi?$AAs?$AA?9?$AAi?$AAs?$AA?$AA@ 100673c0     libucrt:lcidtoname_downlevel.obj
 0002:000073cc       ??_C@_1M@NMPCJPHE@?$AAi?$AAt?$AA?9?$AAc?$AAh?$AA?$AA@ 100673cc     libucrt:lcidtoname_downlevel.obj
 0002:000073d8       ??_C@_1M@GHKGFEDF@?$AAi?$AAt?$AA?9?$AAi?$AAt?$AA?$AA@ 100673d8     libucrt:lcidtoname_downlevel.obj
 0002:000073e4       ??_C@_1M@NIEJCJJA@?$AAj?$AAa?$AA?9?$AAj?$AAp?$AA?$AA@ 100673e4     libucrt:lcidtoname_downlevel.obj
 0002:000073f0       ??_C@_1M@JILFNBIM@?$AAk?$AAa?$AA?9?$AAg?$AAe?$AA?$AA@ 100673f0     libucrt:lcidtoname_downlevel.obj
 0002:000073fc       ??_C@_1M@PACPMGPH@?$AAk?$AAk?$AA?9?$AAk?$AAz?$AA?$AA@ 100673fc     libucrt:lcidtoname_downlevel.obj
 0002:00007408       ??_C@_1M@IELFGMHA@?$AAk?$AAn?$AA?9?$AAi?$AAn?$AA?$AA@ 10067408     libucrt:lcidtoname_downlevel.obj
 0002:00007414       ??_C@_1O@IBBJHCH@?$AAk?$AAo?$AAk?$AA?9?$AAi?$AAn?$AA?$AA@ 10067414     libucrt:lcidtoname_downlevel.obj
 0002:00007424       ??_C@_1M@DMHAEOGC@?$AAk?$AAo?$AA?9?$AAk?$AAr?$AA?$AA@ 10067424     libucrt:lcidtoname_downlevel.obj
 0002:00007430       ??_C@_1M@HBAHBIGA@?$AAk?$AAy?$AA?9?$AAk?$AAg?$AA?$AA@ 10067430     libucrt:lcidtoname_downlevel.obj
 0002:0000743c       ??_C@_1M@KPMILCJG@?$AAl?$AAt?$AA?9?$AAl?$AAt?$AA?$AA@ 1006743c     libucrt:lcidtoname_downlevel.obj
 0002:00007448       ??_C@_1M@BDEKKCA@?$AAl?$AAv?$AA?9?$AAl?$AAv?$AA?$AA@ 10067448     libucrt:lcidtoname_downlevel.obj
 0002:00007454       ??_C@_1M@ELCKCCJJ@?$AAm?$AAi?$AA?9?$AAn?$AAz?$AA?$AA@ 10067454     libucrt:lcidtoname_downlevel.obj
 0002:00007460       ??_C@_1M@CBOOLAPA@?$AAm?$AAk?$AA?9?$AAm?$AAk?$AA?$AA@ 10067460     libucrt:lcidtoname_downlevel.obj
 0002:0000746c       ??_C@_1M@GPHNBJKN@?$AAm?$AAl?$AA?9?$AAi?$AAn?$AA?$AA@ 1006746c     libucrt:lcidtoname_downlevel.obj
 0002:00007478       ??_C@_1M@PABJILIG@?$AAm?$AAn?$AA?9?$AAm?$AAn?$AA?$AA@ 10067478     libucrt:lcidtoname_downlevel.obj
 0002:00007484       ??_C@_1M@FGBKKIPG@?$AAm?$AAr?$AA?9?$AAi?$AAn?$AA?$AA@ 10067484     libucrt:lcidtoname_downlevel.obj
 0002:00007490       ??_C@_1M@NDBPDDAL@?$AAm?$AAs?$AA?9?$AAb?$AAn?$AA?$AA@ 10067490     libucrt:lcidtoname_downlevel.obj
 0002:0000749c       ??_C@_1M@OPIHOOPI@?$AAm?$AAs?$AA?9?$AAm?$AAy?$AA?$AA@ 1006749c     libucrt:lcidtoname_downlevel.obj
 0002:000074a8       ??_C@_1M@PPDBCNFM@?$AAm?$AAt?$AA?9?$AAm?$AAt?$AA?$AA@ 100674a8     libucrt:lcidtoname_downlevel.obj
 0002:000074b4       ??_C@_1M@KDJDKMDD@?$AAn?$AAb?$AA?9?$AAn?$AAo?$AA?$AA@ 100674b4     libucrt:lcidtoname_downlevel.obj
 0002:000074c0       ??_C@_1M@KFCFLMJP@?$AAn?$AAl?$AA?9?$AAb?$AAe?$AA?$AA@ 100674c0     libucrt:lcidtoname_downlevel.obj
 0002:000074cc       ??_C@_1M@KPOPDDGO@?$AAn?$AAl?$AA?9?$AAn?$AAl?$AA?$AA@ 100674cc     libucrt:lcidtoname_downlevel.obj
 0002:000074d8       ??_C@_1M@LJKPEMLN@?$AAn?$AAn?$AA?9?$AAn?$AAo?$AA?$AA@ 100674d8     libucrt:lcidtoname_downlevel.obj
 0002:000074e4       ??_C@_1M@BDGHHBFL@?$AAn?$AAs?$AA?9?$AAz?$AAa?$AA?$AA@ 100674e4     libucrt:lcidtoname_downlevel.obj
 0002:000074f0       ??_C@_1M@IDEHOAP@?$AAp?$AAa?$AA?9?$AAi?$AAn?$AA?$AA@ 100674f0     libucrt:lcidtoname_downlevel.obj
 0002:000074fc       ??_C@_1M@HDBKGOGH@?$AAp?$AAl?$AA?9?$AAp?$AAl?$AA?$AA@ 100674fc     libucrt:lcidtoname_downlevel.obj
 0002:00007508       ??_C@_1M@LJLLCMEH@?$AAp?$AAt?$AA?9?$AAb?$AAr?$AA?$AA@ 10067508     libucrt:lcidtoname_downlevel.obj
 0002:00007514       ??_C@_1M@NCMONAAL@?$AAp?$AAt?$AA?9?$AAp?$AAt?$AA?$AA@ 10067514     libucrt:lcidtoname_downlevel.obj
 0002:00007520       ??_C@_1O@EAKMAJDN@?$AAq?$AAu?$AAz?$AA?9?$AAb?$AAo?$AA?$AA@ 10067520     libucrt:lcidtoname_downlevel.obj
 0002:00007530       ??_C@_1O@BHHPIGDN@?$AAq?$AAu?$AAz?$AA?9?$AAe?$AAc?$AA?$AA@ 10067530     libucrt:lcidtoname_downlevel.obj
 0002:00007540       ??_C@_1O@GBAPEKMJ@?$AAq?$AAu?$AAz?$AA?9?$AAp?$AAe?$AA?$AA@ 10067540     libucrt:lcidtoname_downlevel.obj
 0002:00007550       ??_C@_1M@CLGLEFBO@?$AAr?$AAo?$AA?9?$AAr?$AAo?$AA?$AA@ 10067550     libucrt:lcidtoname_downlevel.obj
 0002:0000755c       ??_C@_1M@CEEDODME@?$AAr?$AAu?$AA?9?$AAr?$AAu?$AA?$AA@ 1006755c     libucrt:lcidtoname_downlevel.obj
 0002:00007568       ??_C@_1M@HPKKKMPP@?$AAs?$AAa?$AA?9?$AAi?$AAn?$AA?$AA@ 10067568     libucrt:lcidtoname_downlevel.obj
 0002:00007574       ??_C@_1M@BKMAIGOJ@?$AAs?$AAe?$AA?9?$AAf?$AAi?$AA?$AA@ 10067574     libucrt:lcidtoname_downlevel.obj
 0002:00007580       ??_C@_1M@NDPIFLFI@?$AAs?$AAe?$AA?9?$AAn?$AAo?$AA?$AA@ 10067580     libucrt:lcidtoname_downlevel.obj
 0002:0000758c       ??_C@_1M@DANKKHJ@?$AAs?$AAe?$AA?9?$AAs?$AAe?$AA?$AA@ 1006758c     libucrt:lcidtoname_downlevel.obj
 0002:00007598       ??_C@_1M@PNBLONPJ@?$AAs?$AAk?$AA?9?$AAs?$AAk?$AA?$AA@ 10067598     libucrt:lcidtoname_downlevel.obj
 0002:000075a4       ??_C@_1M@LFMODOAL@?$AAs?$AAl?$AA?9?$AAs?$AAi?$AA?$AA@ 100675a4     libucrt:lcidtoname_downlevel.obj
 0002:000075b0       ??_C@_1O@DFKOMPG@?$AAs?$AAm?$AAa?$AA?9?$AAn?$AAo?$AA?$AA@ 100675b0     libucrt:lcidtoname_downlevel.obj
 0002:000075c0       ??_C@_1O@NDKPBNNH@?$AAs?$AAm?$AAa?$AA?9?$AAs?$AAe?$AA?$AA@ 100675c0     libucrt:lcidtoname_downlevel.obj
 0002:000075d0       ??_C@_1O@PLLKBHAB@?$AAs?$AAm?$AAj?$AA?9?$AAn?$AAo?$AA?$AA@ 100675d0     libucrt:lcidtoname_downlevel.obj
 0002:000075e0       ??_C@_1O@CLEPOGCA@?$AAs?$AAm?$AAj?$AA?9?$AAs?$AAe?$AA?$AA@ 100675e0     libucrt:lcidtoname_downlevel.obj
 0002:000075f0       ??_C@_1O@DLGJGKMK@?$AAs?$AAm?$AAn?$AA?9?$AAf?$AAi?$AA?$AA@ 100675f0     libucrt:lcidtoname_downlevel.obj
 0002:00007600       ??_C@_1O@OJDJGAJC@?$AAs?$AAm?$AAs?$AA?9?$AAf?$AAi?$AA?$AA@ 10067600     libucrt:lcidtoname_downlevel.obj
 0002:00007610       ??_C@_1M@BOFOGHPB@?$AAs?$AAq?$AA?9?$AAa?$AAl?$AA?$AA@ 10067610     libucrt:lcidtoname_downlevel.obj
 0002:0000761c       ??_C@_1BG@LJBBIPGB@?$AAs?$AAr?$AA?9?$AAb?$AAa?$AA?9?$AAc?$AAy?$AAr?$AAl?$AA?$AA@ 1006761c     libucrt:lcidtoname_downlevel.obj
 0002:00007634       ??_C@_1BG@JLBENFOE@?$AAs?$AAr?$AA?9?$AAb?$AAa?$AA?9?$AAl?$AAa?$AAt?$AAn?$AA?$AA@ 10067634     libucrt:lcidtoname_downlevel.obj
 0002:0000764c       ??_C@_1BG@KODPNHE@?$AAs?$AAr?$AA?9?$AAs?$AAp?$AA?9?$AAc?$AAy?$AAr?$AAl?$AA?$AA@ 1006764c     libucrt:lcidtoname_downlevel.obj
 0002:00007664       ??_C@_1BG@CIOGKHPB@?$AAs?$AAr?$AA?9?$AAs?$AAp?$AA?9?$AAl?$AAa?$AAt?$AAn?$AA?$AA@ 10067664     libucrt:lcidtoname_downlevel.obj
 0002:0000767c       ??_C@_1M@NGFJLMAC@?$AAs?$AAv?$AA?9?$AAf?$AAi?$AA?$AA@ 1006767c     libucrt:lcidtoname_downlevel.obj
 0002:00007688       ??_C@_1M@MPJEJAJC@?$AAs?$AAv?$AA?9?$AAs?$AAe?$AA?$AA@ 10067688     libucrt:lcidtoname_downlevel.obj
 0002:00007694       ??_C@_1M@MPNDHLFK@?$AAs?$AAw?$AA?9?$AAk?$AAe?$AA?$AA@ 10067694     libucrt:lcidtoname_downlevel.obj
 0002:000076a0       ??_C@_1O@KOHBJJI@?$AAs?$AAy?$AAr?$AA?9?$AAs?$AAy?$AA?$AA@ 100676a0     libucrt:lcidtoname_downlevel.obj
 0002:000076b0       ??_C@_1M@LDCEFHA@?$AAt?$AAa?$AA?9?$AAi?$AAn?$AA?$AA@ 100676b0     libucrt:lcidtoname_downlevel.obj
 0002:000076bc       ??_C@_1M@CNJOFAK@?$AAt?$AAe?$AA?9?$AAi?$AAn?$AA?$AA@ 100676bc     libucrt:lcidtoname_downlevel.obj
 0002:000076c8       ??_C@_1M@GNAECACD@?$AAt?$AAh?$AA?9?$AAt?$AAh?$AA?$AA@ 100676c8     libucrt:lcidtoname_downlevel.obj
 0002:000076d4       ??_C@_1M@CHBIHOJO@?$AAt?$AAn?$AA?9?$AAz?$AAa?$AA?$AA@ 100676d4     libucrt:lcidtoname_downlevel.obj
 0002:000076e0       ??_C@_1M@GCCMIGPJ@?$AAt?$AAr?$AA?9?$AAt?$AAr?$AA?$AA@ 100676e0     libucrt:lcidtoname_downlevel.obj
 0002:000076ec       ??_C@_1M@CELMCNBK@?$AAt?$AAt?$AA?9?$AAr?$AAu?$AA?$AA@ 100676ec     libucrt:lcidtoname_downlevel.obj
 0002:000076f8       ??_C@_1M@KLMCELGA@?$AAu?$AAk?$AA?9?$AAu?$AAa?$AA?$AA@ 100676f8     libucrt:lcidtoname_downlevel.obj
 0002:00007704       ??_C@_1M@EPAJJAJF@?$AAu?$AAr?$AA?9?$AAp?$AAk?$AA?$AA@ 10067704     libucrt:lcidtoname_downlevel.obj
 0002:00007710       ??_C@_1BG@GEGPMCDJ@?$AAu?$AAz?$AA?9?$AAu?$AAz?$AA?9?$AAc?$AAy?$AAr?$AAl?$AA?$AA@ 10067710     libucrt:lcidtoname_downlevel.obj
 0002:00007728       ??_C@_1BG@EGGKJILM@?$AAu?$AAz?$AA?9?$AAu?$AAz?$AA?9?$AAl?$AAa?$AAt?$AAn?$AA?$AA@ 10067728     libucrt:lcidtoname_downlevel.obj
 0002:00007740       ??_C@_1M@GFOCLFF@?$AAv?$AAi?$AA?9?$AAv?$AAn?$AA?$AA@ 10067740     libucrt:lcidtoname_downlevel.obj
 0002:0000774c       ??_C@_1M@CPAMEDFI@?$AAx?$AAh?$AA?9?$AAz?$AAa?$AA?$AA@ 1006774c     libucrt:lcidtoname_downlevel.obj
 0002:00007758       ??_C@_1O@EBKIFIGN@?$AAz?$AAh?$AA?9?$AAc?$AAh?$AAs?$AA?$AA@ 10067758     libucrt:lcidtoname_downlevel.obj
 0002:00007768       ??_C@_1O@NMHPGANE@?$AAz?$AAh?$AA?9?$AAc?$AAh?$AAt?$AA?$AA@ 10067768     libucrt:lcidtoname_downlevel.obj
 0002:00007778       ??_C@_1M@LPINJOMC@?$AAz?$AAh?$AA?9?$AAc?$AAn?$AA?$AA@ 10067778     libucrt:lcidtoname_downlevel.obj
 0002:00007784       ??_C@_1M@OCJEJODD@?$AAz?$AAh?$AA?9?$AAh?$AAk?$AA?$AA@ 10067784     libucrt:lcidtoname_downlevel.obj
 0002:00007790       ??_C@_1M@DNDLJINH@?$AAz?$AAh?$AA?9?$AAm?$AAo?$AA?$AA@ 10067790     libucrt:lcidtoname_downlevel.obj
 0002:0000779c       ??_C@_1M@MBFDNDND@?$AAz?$AAh?$AA?9?$AAs?$AAg?$AA?$AA@ 1006779c     libucrt:lcidtoname_downlevel.obj
 0002:000077a8       ??_C@_1M@IMEPLEPE@?$AAz?$AAh?$AA?9?$AAt?$AAw?$AA?$AA@ 100677a8     libucrt:lcidtoname_downlevel.obj
 0002:000077b4       ??_C@_1M@BBGHNHJP@?$AAz?$AAu?$AA?9?$AAz?$AAa?$AA?$AA@ 100677b4     libucrt:lcidtoname_downlevel.obj
 0002:00007920       __infinity                 10067920     libucrt:87tran.obj
 0002:0000792a       __minfinity                1006792a     libucrt:87tran.obj
 0002:00007934       __logemax                  10067934     libucrt:87tran.obj
 0002:0000795a       __OP_EXPjmptab             1006795a     libucrt:87tran.obj
 0002:00007980       __indefinite               10067980     libucrt:87disp.obj
 0002:0000798a       __piby2                    1006798a     libucrt:87disp.obj
 0002:00007994       __piby4                    10067994     libucrt:87disp.obj
 0002:000079c8       __DEFAULT_CW_in_mem        100679c8     libucrt:common.obj
 0002:000079ca       __pi_by_2_to_61            100679ca     libucrt:common.obj
 0002:00007a04       ??_C@_03MGHMBJCF@log?$AA@  10067a04     libucrt:libm_error.obj
 0002:00007a08       ??_C@_05HGHHAHAP@log10?$AA@ 10067a08     libucrt:libm_error.obj
 0002:00007a10       ??_C@_03KHJOGHMM@exp?$AA@  10067a10     libucrt:libm_error.obj
 0002:00007a14       ??_C@_03JGHBODFD@pow?$AA@  10067a14     libucrt:libm_error.obj
 0002:00007a18       ??_C@_04FIHNOPOL@asin?$AA@ 10067a18     libucrt:libm_error.obj
 0002:00007a20       ??_C@_04PDIFKINK@acos?$AA@ 10067a20     libucrt:libm_error.obj
 0002:00007a28       ??_C@_04EIAKFFMI@sqrt?$AA@ 10067a28     libucrt:libm_error.obj
 0002:00007a30       __real@3ff0000000000000    10067a30     libucrt:libm_error.obj
 0002:00007a50       ___acrt_log10_table_t      10067a50     libucrt:log10_tables.obj
 0002:00007e60       ___acrt_log10_table_cb     10067e60     libucrt:log10_tables.obj
 0002:00008270       __real@3fe0000000000000    10068270     libucrt:powhlp.obj
 0002:00008360       ??_C@_04COOMCNPB@sinh?$AA@ 10068360     libucrt:fpexcept.obj
 0002:00008368       ??_C@_04HPJJNFIM@cosh?$AA@ 10068368     libucrt:fpexcept.obj
 0002:00008370       ??_C@_04FJHINJAO@tanh?$AA@ 10068370     libucrt:fpexcept.obj
 0002:00008378       ??_C@_04MLLJIGOK@atan?$AA@ 10068378     libucrt:fpexcept.obj
 0002:00008380       ??_C@_05KNGEOGJB@atan2?$AA@ 10068380     libucrt:fpexcept.obj
 0002:00008388       ??_C@_03BLEJJJBH@sin?$AA@  10068388     libucrt:fpexcept.obj
 0002:0000838c       ??_C@_03LALBNOCG@cos?$AA@  1006838c     libucrt:fpexcept.obj
 0002:00008390       ??_C@_03IIINPABG@tan?$AA@  10068390     libucrt:fpexcept.obj
 0002:00008394       ??_C@_04GFPJNGEK@ceil?$AA@ 10068394     libucrt:fpexcept.obj
 0002:0000839c       ??_C@_05PBJFFIGL@floor?$AA@ 1006839c     libucrt:fpexcept.obj
 0002:000083a4       ??_C@_04ODHECPBC@fabs?$AA@ 100683a4     libucrt:fpexcept.obj
 0002:000083ac       ??_C@_04EHEDPDJG@modf?$AA@ 100683ac     libucrt:fpexcept.obj
 0002:000083b4       ??_C@_05CEJMAHNP@ldexp?$AA@ 100683b4     libucrt:fpexcept.obj
 0002:000083bc       ??_C@_05KBKMEMPO@_cabs?$AA@ 100683bc     libucrt:fpexcept.obj
 0002:000083c4       ??_C@_06MEIMCGCF@_hypot?$AA@ 100683c4     libucrt:fpexcept.obj
 0002:000083cc       ??_C@_04KEPJIHGP@fmod?$AA@ 100683cc     libucrt:fpexcept.obj
 0002:000083d4       ??_C@_05GKKHEGJL@frexp?$AA@ 100683d4     libucrt:fpexcept.obj
 0002:000083dc       ??_C@_03MJLDFKDL@_y0?$AA@  100683dc     libucrt:fpexcept.obj
 0002:000083e0       ??_C@_03NAKIGLHK@_y1?$AA@  100683e0     libucrt:fpexcept.obj
 0002:000083e4       ??_C@_03ONILCKOB@_yn?$AA@  100683e4     libucrt:fpexcept.obj
 0002:000083e8       ??_C@_05JGDBENOH@_logb?$AA@ 100683e8     libucrt:fpexcept.obj
 0002:000083f0       ??_C@_0L@KDOEJCKC@_nextafter?$AA@ 100683f0     libucrt:fpexcept.obj
 0002:00008400       __d_inf                    10068400     libucrt:util.obj
 0002:00008408       __d_max                    10068408     libucrt:util.obj
 0002:00008410       __d_mzero                  10068410     libucrt:util.obj
 0002:00008418       ??_C@_1BA@BALFACEM@?$AAC?$AAO?$AAN?$AAO?$AAU?$AAT?$AA$?$AA?$AA@ 10068418     libucrt:initcon.obj
 0002:000084a8       _AcpiGbl_PreDefinedNames   100684a8     Acpica:utglobal.obj
 0002:0000853c       __acpi_ctype               1006853c     Acpica:utclib.obj
 0002:00008660       _AcpiGbl_NsProperties      10068660     Acpica:utdecode.obj
 0002:0000894c       _AcpiGbl_PredefinedMethods 1006894c     Acpica:nspredef.obj
 0002:00009344       _AcpiGbl_ShortOpIndex      10069344     Acpica:psopinfo.obj
 0002:00009444       _AcpiGbl_LongOpIndex       10069444     Acpica:psopinfo.obj
 0002:000094fc       _AcpiGbl_ResourceAmlSizes  100694fc     Acpica:utresrc.obj
 0002:0000951c       _AcpiGbl_ResourceAmlSerialBusSizes 1006951c     Acpica:utresrc.obj
 0002:000096a8       _AcpiGbl_AmlOpInfo         100696a8     Acpica:psopcode.obj
 0002:00009fb0       _AcpiGbl_AmlResourceSizes  10069fb0     Acpica:rsinfo.obj
 0002:00009fc4       _AcpiGbl_ResourceStructSizes 10069fc4     Acpica:rsinfo.obj
 0002:00009fe4       _AcpiGbl_AmlResourceSerialBusSizes 10069fe4     Acpica:rsinfo.obj
 0002:00009fe8       _AcpiGbl_ResourceStructSerialBusSizes 10069fe8     Acpica:rsinfo.obj
 0002:0000a01c       _AcpiRsConvertAddress16    1006a01c     Acpica:rsaddr.obj
 0002:0000a030       _AcpiRsConvertAddress32    1006a030     Acpica:rsaddr.obj
 0002:0000a044       _AcpiRsConvertAddress64    1006a044     Acpica:rsaddr.obj
 0002:0000a058       _AcpiRsConvertExtAddress64 1006a058     Acpica:rsaddr.obj
 0002:0000a0b4       _AcpiRsConvertGpio         1006a0b4     Acpica:rsserial.obj
 0002:0000a0fc       _AcpiRsConvertI2cSerialBus 1006a0fc     Acpica:rsserial.obj
 0002:0000a13c       _AcpiRsConvertSpiSerialBus 1006a13c     Acpica:rsserial.obj
 0002:0000a18c       _AcpiRsConvertUartSerialBus 1006a18c     Acpica:rsserial.obj
 0002:0000a1f0       _AcpiRsConvertMemory24     1006a1f0     Acpica:rsmemory.obj
 0002:0000a200       _AcpiRsConvertMemory32     1006a200     Acpica:rsmemory.obj
 0002:0000a210       _AcpiRsConvertFixedMemory32 1006a210     Acpica:rsmemory.obj
 0002:0000a220       _AcpiRsGetVendorSmall      1006a220     Acpica:rsmemory.obj
 0002:0000a22c       _AcpiRsGetVendorLarge      1006a22c     Acpica:rsmemory.obj
 0002:0000a238       _AcpiRsSetVendor           1006a238     Acpica:rsmemory.obj
 0002:0000a25c       _AcpiRsConvertIo           1006a25c     Acpica:rsio.obj
 0002:0000a270       _AcpiRsConvertFixedIo      1006a270     Acpica:rsio.obj
 0002:0000a280       _AcpiRsConvertGenericReg   1006a280     Acpica:rsio.obj
 0002:0000a290       _AcpiRsConvertEndDpf       1006a290     Acpica:rsio.obj
 0002:0000a298       _AcpiRsConvertEndTag       1006a298     Acpica:rsio.obj
 0002:0000a2a0       _AcpiRsGetStartDpf         1006a2a0     Acpica:rsio.obj
 0002:0000a2b8       _AcpiRsSetStartDpf         1006a2b8     Acpica:rsio.obj
 0002:0000a2e8       _AcpiRsGetIrq              1006a2e8     Acpica:rsirq.obj
 0002:0000a30c       _AcpiRsSetIrq              1006a30c     Acpica:rsirq.obj
 0002:0000a344       _AcpiRsConvertExtIrq       1006a344     Acpica:rsirq.obj
 0002:0000a36c       _AcpiRsConvertDma          1006a36c     Acpica:rsirq.obj
 0002:0000a384       _AcpiRsConvertFixedDma     1006a384     Acpica:rsirq.obj
 0002:0000a3d0       __load_config_used         1006a3d0     Libcmt:loadcfg.obj
 0002:0000a610       ___rtc_iaa                 1006a610     Libcmt:_initsect_.obj
 0002:0000a614       ___rtc_izz                 1006a614     Libcmt:_initsect_.obj
 0002:0000a618       ___rtc_taa                 1006a618     Libcmt:_initsect_.obj
 0002:0000a61c       ___rtc_tzz                 1006a61c     Libcmt:_initsect_.obj
 0003:000001f8       _RTFData                   1006c1f8     Init.obj
 0003:00000268       _RTFDeviceList             1006c268     Init.obj
 0003:00001db0       _RTUSBConfig               1006ddb0     Rtusb:Usbcfg.obj
 0003:00001df0       _RTUSBKeybrdConfig         1006ddf0     Rtusb:Usbkbcfg.obj
 0003:00001e48       _RTFileSystemList          1006de48     RtfilesX:Rttw32.obj
 0003:0000265c       __XTlsIndex                1006e65c     RtfilesX:Rtfex.obj
 0003:000026a0       _RTKDefault8087Protection  1006e6a0     Rtk32:Kernel.obj
 0003:000026a8       __rtkMainTCB               1006e6a8     Rtk32:Kernel.obj
 0003:000027a0       __rtkSystemQueue           1006e7a0     Rtk32:Kernel.obj
 0003:000027b8       __rtk_MBList               1006e7b8     Rtk32:Kernel.obj
 0003:000027c0       __rtk_SemaList             1006e7c0     Rtk32:Kernel.obj
 0003:000027c8       __rtk_CurrentTask          1006e7c8     Rtk32:Kernel.obj
 0003:000027cc       _RTKMainTaskHandle         1006e7cc     Rtk32:Kernel.obj
 0003:00002d98       _CLKUnitsPerSecond         1006ed98     Rtk32:Clock.obj
 0003:00002d9c       _CLKDivisor                1006ed9c     Rtk32:Clock.obj
 0003:00002da0       _RTKConfig                 1006eda0     Rtk32:Rtkcfg.obj
 0003:00002e94       _FTUnitsPerSecond          1006ee94     Rtk32:Finetime.obj
 0003:00002e98       _FTDivisor                 1006ee98     Rtk32:Finetime.obj
 0003:00003258       __rtkCSIndex               1006f258     Rtk32:Rtwin32.obj
 0003:000033ec       __rtkCPUType               1006f3ec     Drvrt32:Cpu386f.obj
 0003:00003408       _MEMSTHeapDataSize         1006f408     Drvrt32:Sthdata.obj
 0003:0000340c       __amblksiz                 1006f40c     Rttheap:Rttheap.obj
 0003:00003410       ___active_heap             1006f410     Rttheap:Rttheap.obj
 0003:00003414       ___crtDebugFillThreshold   1006f414     Rttheap:Rttheap.obj
 0003:00003538       __rttKeyboardStatus        1006f538     Rtt32:Conin.obj
 0003:0000353c       _RTUnicodeToAscii          1006f53c     Rtt32:Conin.obj
 0003:00003554       _RTCharOutHandler          1006f554     Rtt32:Screen.obj
 0003:00003558       __rttForeground            1006f558     Rtt32:Screen.obj
 0003:0000355c       __rttRows                  1006f55c     Rtt32:Screen.obj
 0003:00003560       __rttCols                  1006f560     Rtt32:Screen.obj
 0003:00003578       _RTDateValidation          1006f578     Rtt32:Cmos.obj
 0003:00003670       __rttIPITimeout            1006f670     Rtt32:Mp.obj
 0003:00003674       __rttResetTimeout          1006f674     Rtt32:Mp.obj
 0003:00003abc       ___rttMaxPCIBusses         1006fabc     Rtt32:Rttbios.obj
 0003:00003b0c       _RTIdleHandler             1006fb0c     Rtt32:Rttarget.obj
 0003:00003b10       _RTIRQ0Vector              1006fb10     Rtt32:Rttarget.obj
 0003:00003b24       __rttNewCR3                1006fb24     Rtt32:Rttarget.obj
 0003:00003b28       __rttNewLDT                1006fb28     Rtt32:Rttarget.obj
 0003:00003b2c       __rttNewDBG                1006fb2c     Rtt32:Rttarget.obj
 0003:00003b30       _RTGetMouseEvents          1006fb30     Rtt32:Conhooks.obj
 0003:00003b34       _RTSignalEvent             1006fb34     Rtt32:Conhooks.obj
 0003:00003b38       _RTWaitEvent               1006fb38     Rtt32:Conhooks.obj
 0003:00003b3c       _RTNewEvents               1006fb3c     Rtt32:Conhooks.obj
 0003:00003b40       _RTPrinterTimeout          1006fb40     Rtt32:W32lpt.obj
 0003:00004090       __rttTSOffset              10070090     Rtt32:Rdtsc.obj
 0003:000040b8       __rttTLSFreeHook           100700b8     Rtt32:Tls.obj
 0003:000048bc       __rttIRQMask               100708bc     Rtt32:I8059.obj
 0003:000048c0       __rttApicInfo              100708c0     Rtt32:I8059.obj
 0003:000049e0       __rttApicLock              100709e0     Rtt32:I8059.obj
 0003:000049f0       __rttInputMode             100709f0     Rtt32:W32hlper.obj
 0003:000049f4       __rttOutputMode            100709f4     Rtt32:W32hlper.obj
 0003:000049f8       __rttMinHeapPage           100709f8     Rtt32:W32hlper.obj
 0003:000049fc       __rttVmGetIsaIRQ           100709fc     Rtt32:Vmstubs.obj
 0003:00004a00       __rttVmGetPCIIRQ           10070a00     Rtt32:Vmstubs.obj
 0003:00004a08       __rttFreePages             10070a08     Rtt32:Valloc.obj
 0003:00004a3c       __rttMPFlags               10070a3c     Rtt32:Mpasm.obj
 0003:00004abc       __rttmpCR3                 10070abc     Rtt32:Mpasm.obj
 0003:00004ac0       __rttmpLDT                 10070ac0     Rtt32:Mpasm.obj
 0003:00004ac4       __rttmpDBG                 10070ac4     Rtt32:Mpasm.obj
 0003:00004ac8       __rttTSCCount              10070ac8     Rtt32:Mpasm.obj
 0003:00004acc       __rttmpTMR                 10070acc     Rtt32:Mpasm.obj
 0003:00004c58       __rttDefaultCustomMPTable  10070c58     Rtt32:Mptable.obj
 0003:00004c5c       __rttDefaultCustomMPTableSize 10070c5c     Rtt32:Mptable.obj
 0003:00004ca0       _RTHandleCount             10070ca0     Rtt32:Htable.obj
 0003:00004ca4       _RTObjectCount             10070ca4     Rtt32:Htable.obj
 0003:00004ca8       _RTTypeCount               10070ca8     Rtt32:Htable.obj
 0003:00004fe4       ___scrt_native_dllmain_reason 10070fe4     Libcmt:utility.obj
 0003:00004fe8       ___security_cookie_complement 10070fe8     Libcmt:gs_cookie.obj
 0003:00004fec       ___security_cookie         10070fec     Libcmt:gs_cookie.obj
 0003:00004ff0       ___isa_enabled             10070ff0     Libcmt:_cpu_disp_.obj
 0003:00005010       __NLG_Destination          10071010     libvcruntime:_exsup_.obj
 0003:00005020       ___abort_behavior          10071020     libucrt:abort.obj
 0003:00005030       __iob                      10071030     libucrt:_file.obj
 0003:000050d8       ___acrt_initial_locale_data 100710d8     libucrt:nlsdata.obj
 0003:00005190       ___acrt_initial_locale_pointers 10071190     libucrt:nlsdata.obj
 0003:00005198       ___acrt_wide_c_locale_string 10071198     libucrt:nlsdata.obj
 0003:000051a0       ___acrt_initial_multibyte_data 100711a0     libucrt:mbctype.obj
 0003:000056c0       ___globallocalestatus      100716c0     libucrt:glstatus.obj
 0003:000056c4       ___acrt_lconv_static_decimal 100716c4     libucrt:localeconv.obj
 0003:000056c8       ___acrt_lconv_static_W_decimal 100716c8     libucrt:localeconv.obj
 0003:000056d0       ___acrt_lconv_c            100716d0     libucrt:localeconv.obj
 0003:0000594c       _AcpiGbl_AutoSerializeMethods 1007194c     Acpica:utglobal.obj
 0003:0000594d       _AcpiGbl_CreateOsiMethod   1007194d     Acpica:utglobal.obj
 0003:0000594e       _AcpiGbl_UseDefaultRegisterWidths 1007194e     Acpica:utglobal.obj
 0003:0000594f       _AcpiGbl_VerifyTableChecksum 1007194f     Acpica:utglobal.obj
 0003:00005950       _AcpiDbgLevel              10071950     Acpica:utglobal.obj
 0003:00005954       _AcpiDbgLayer              10071954     Acpica:utglobal.obj
 0003:00005958       _AcpiGbl_Shutdown          10071958     Acpica:utglobal.obj
 0003:00005959       _AcpiGbl_DbOutputFlags     10071959     Acpica:utglobal.obj
 0003:0000595c       _AcpiGbl_SleepStateNames   1007195c     Acpica:utglobal.obj
 0003:00005974       _AcpiGbl_LowestDstateNames 10071974     Acpica:utglobal.obj
 0003:00005988       _AcpiGbl_HighestDstateNames 10071988     Acpica:utglobal.obj
 0003:00005998       _AcpiGbl_BitRegisterInfo   10071998     Acpica:utglobal.obj
 0003:000059e8       _AcpiGbl_FixedEventInfo    100719e8     Acpica:utglobal.obj
 0003:00005e44       _AcpiGbl_RegionTypes       10071e44     Acpica:utdecode.obj
 0003:00006ce8       _AcpiGbl_DefaultAddressSpaces 10072ce8     Acpica:evhandler.obj
 0003:0000aa50       _AcpiGbl_SetResourceDispatch 10076a50     Acpica:rsinfo.obj
 0003:0000aaa0       _AcpiGbl_GetResourceDispatch 10076aa0     Acpica:rsinfo.obj
 0003:0000ab1c       _AcpiGbl_ConvertResourceSerialBusDispatch 10076b1c     Acpica:rsinfo.obj
 0003:0000ae80       __fltused                  10076e80     Libcmt:fltused.obj
 0003:0002d9b8       __rtuDWZero                100999b8     Rtusb:Usbutil.obj
 0003:0002dcd4       _RTKIdleTaskHandle         10099cd4     Rtk32:Kernel.obj
 0003:0002dcdc       __rtk_IRQList              10099cdc     Rtk32:Kernel.obj
 0003:0002dd60       __rtk_Preemptive           10099d60     Rtk32:Kernel.obj
 0003:0002dd64       __rtkCurrentTime           10099d64     Rtk32:Kernel.obj
 0003:0002df60       _RTKTraceBuffer            10099f60     Rtk32:Trace.obj
 0003:0002df78       _TDSCodeSegmentBase        10099f78     Drvrt32:Tdsgetp.obj
 0003:0002df8c       _MEMSTHeapData             10099f8c     Drvrt32:Sthdata.obj
 0003:0002ef8c       __crtheap                  1009af8c     Rttheap:Rttheap.obj
 0003:0002f4b4       _RTConsoleOutFilter        1009b4b4     Rtt32:Conin.obj
 0003:0002f4b8       __rttVideoRAM              1009b4b8     Rtt32:Screen.obj
 0003:0002f4c8       __rttBackground            1009b4c8     Rtt32:Screen.obj
 0003:0002f4cc       __rttCursorX               1009b4cc     Rtt32:Screen.obj
 0003:0002f4d0       __rttCursorY               1009b4d0     Rtt32:Screen.obj
 0003:0002f510       __rttMPFPS                 1009b510     Rtt32:Mp.obj
 0003:0002f514       __rttMPConfTable           1009b514     Rtt32:Mp.obj
 0003:0002fa18       _RTUpdateKeyLEDsHook       1009ba18     Rtt32:Keybrd.obj
 0003:00030178       _RTHeader                  1009c178     Rtt32:W32hlper.obj
 0003:0003017c       _RTHeapBase                1009c17c     Rtt32:W32hlper.obj
 0003:00030180       _RTHeapLimit               1009c180     Rtt32:W32hlper.obj
 0003:00030184       _RTLastPageIsPhys          1009c184     Rtt32:W32hlper.obj
 0003:00030188       _RTVirtualLimit            1009c188     Rtt32:W32hlper.obj
 0003:0003018c       _RTCommittedLimit          1009c18c     Rtt32:W32hlper.obj
 0003:00030190       _RTVirtualLimitTop         1009c190     Rtt32:W32hlper.obj
 0003:00030194       _RTCommittedLimitTop       1009c194     Rtt32:W32hlper.obj
 0003:00030198       __rtthstdin                1009c198     Rtt32:W32hlper.obj
 0003:0003019c       __rtthstdout               1009c19c     Rtt32:W32hlper.obj
 0003:000301a0       __rtthstderr               1009c1a0     Rtt32:W32hlper.obj
 0003:000301a4       __rttPageDir               1009c1a4     Rtt32:W32hlper.obj
 0003:000301a8       __rttHeapType              1009c1a8     Rtt32:W32hlper.obj
 0003:000301ac       __rttPaging                1009c1ac     Rtt32:W32hlper.obj
 0003:000301b0       _RTTarget32Flags           1009c1b0     Rtt32:Rtflags.obj
 0003:000301bc       __rttVisibleCursor         1009c1bc     Rtt32:Conout.obj
 0003:00030fa8       _RTHandleTable             1009cfa8     Rtt32:Htable.obj
 0003:000310a8       _RTObjectTable             1009d0a8     Rtt32:Htable.obj
 0003:000312a8       _RTTypeTable               1009d2a8     Rtt32:Htable.obj
 0003:000313ac       __rttHeapSegmentSize       1009d3ac     Rtt32:Heap.obj
 0003:0003161c       ___scrt_current_native_startup_state 1009d61c     Libcmt:utility.obj
 0003:00031620       ___scrt_native_startup_lock 1009d620     Libcmt:utility.obj
 0003:00031640       ?__type_info_root_node@@3U__type_info_node@@A 1009d640     Libcmt:tncleanup.obj
 0003:00031648       ?_OptionsStorage@?1??__local_stdio_scanf_options@@9@4_KA 1009d648     Libcmt:default_local_stdio_options.obj
 0003:00031650       ___scrt_debugger_hook_flag 1009d650     Libcmt:utility_desktop.obj
 0003:00031654       ___isa_available           1009d654     Libcmt:_cpu_disp_.obj
 0003:00031658       ___favor                   1009d658     Libcmt:_cpu_disp_.obj
 0003:000319f4       ___pPurecall               1009d9f4     libvcruntime:purevirt_data.obj
 0003:000319f8       ?pArgList@UnDecorator@@0PAVReplicator@@A 1009d9f8     libvcruntime:undname.obj
 0003:000319fc       ?pZNameList@UnDecorator@@0PAVReplicator@@A 1009d9fc     libvcruntime:undname.obj
 0003:00031a00       ?pTemplateArgList@UnDecorator@@0PAVReplicator@@A 1009da00     libvcruntime:undname.obj
 0003:00031a04       ?gName@UnDecorator@@0PBDB  1009da04     libvcruntime:undname.obj
 0003:00031a08       ?name@UnDecorator@@0PBDB   1009da08     libvcruntime:undname.obj
 0003:00031a0c       ?outputString@UnDecorator@@0PADA 1009da0c     libvcruntime:undname.obj
 0003:00031a10       ?maxStringLength@UnDecorator@@0HA 1009da10     libvcruntime:undname.obj
 0003:00031a14       ?disableFlags@UnDecorator@@0KA 1009da14     libvcruntime:undname.obj
 0003:00031a18       ?fExplicitTemplateParams@UnDecorator@@0_NA 1009da18     libvcruntime:undname.obj
 0003:00031a19       ?fGetTemplateArgumentList@UnDecorator@@0_NA 1009da19     libvcruntime:undname.obj
 0003:00031a1c       ?m_pGetParameter@UnDecorator@@0P6APADJ@ZA 1009da1c     libvcruntime:undname.obj
 0003:00031a3c       ?c_exit_complete@?1???R<lambda_6e4b09c48022b2350581041d5f6b0c4c>@@QBE@XZ@4_NA 1009da3c     libucrt:exit.obj
 0003:00031b48       __environ_table            1009db48     libucrt:environment_initialization.obj
 0003:00031b4c       __wenviron_table           1009db4c     libucrt:environment_initialization.obj
 0003:00031b50       ___dcrt_initial_wide_environment 1009db50     libucrt:environment_initialization.obj
 0003:00031b54       ___dcrt_initial_narrow_environment 1009db54     libucrt:environment_initialization.obj
 0003:00031b58       ___acrt_atexit_table       1009db58     libucrt:onexit.obj
 0003:00031b64       ___acrt_at_quick_exit_table 1009db64     libucrt:onexit.obj
 0003:00031b74       __nstream                  1009db74     libucrt:_file.obj
 0003:00031b78       ___piob                    1009db78     libucrt:_file.obj
 0003:00031b80       ___acrt_stdout_buffer      1009db80     libucrt:_sftbuf.obj
 0003:00031b84       ___acrt_stderr_buffer      1009db84     libucrt:_sftbuf.obj
 0003:00031b88       ___acrt_locale_changed_data 1009db88     libucrt:wsetlocale.obj
 0003:00031b8c       ___acrt_current_locale_data 1009db8c     libucrt:nlsdata.obj
 0003:00031b90       ___pioinfo                 1009db90     libucrt:ioinit.obj
 0003:00031d90       __nhandle                  1009dd90     libucrt:ioinit.obj
 0003:00031fc8       ___acrt_current_multibyte_data 1009dfc8     libucrt:mbctype.obj
 0003:00031fcc       __mbctype                  1009dfcc     libucrt:mbctype.obj
 0003:00031fd0       __mbcasemap                1009dfd0     libucrt:mbctype.obj
 0003:00031fdc       ___argc                    1009dfdc     libucrt:argv_data.obj
 0003:00031fe0       ___argv                    1009dfe0     libucrt:argv_data.obj
 0003:00031fe4       ___wargv                   1009dfe4     libucrt:argv_data.obj
 0003:00031fe8       __acmdln                   1009dfe8     libucrt:argv_data.obj
 0003:00031fec       __wcmdln                   1009dfec     libucrt:argv_data.obj
 0003:00031ff0       __pgmptr                   1009dff0     libucrt:argv_data.obj
 0003:00031ff4       ___acrt_heap               1009dff4     libucrt:heap_handle.obj
 0003:00032014       ___acrt_lconv_static_null  1009e014     libucrt:localeconv.obj
 0003:00032018       ___acrt_lconv_static_W_null 1009e018     libucrt:localeconv.obj
 0003:00032020       ___fastflag                1009e020     libucrt:fp_flags.obj
 0003:00032030       _AcpiGbl_EnableInterpreterSlack 1009e030     Acpica:utglobal.obj
 0003:00032031       _AcpiGbl_EnableAmlDebugObject 1009e031     Acpica:utglobal.obj
 0003:00032032       _AcpiGbl_CopyDsdtLocally   1009e032     Acpica:utglobal.obj
 0003:00032033       _AcpiGbl_DoNotUseXsdt      1009e033     Acpica:utglobal.obj
 0003:00032034       _AcpiGbl_Use32BitFadtAddresses 1009e034     Acpica:utglobal.obj
 0003:00032035       _AcpiGbl_TruncateIoAddresses 1009e035     Acpica:utglobal.obj
 0003:00032036       _AcpiGbl_DisableAutoRepair 1009e036     Acpica:utglobal.obj
 0003:00032037       _AcpiGbl_DisableSsdtTableInstall 1009e037     Acpica:utglobal.obj
 0003:00032038       _AcpiGbl_OsiData           1009e038     Acpica:utglobal.obj
 0003:00032039       _AcpiGbl_ReducedHardware   1009e039     Acpica:utglobal.obj
 0003:0003203c       _AcpiGbl_TraceFlags        1009e03c     Acpica:utglobal.obj
 0003:00032040       _AcpiGbl_TraceMethodName   1009e040     Acpica:utglobal.obj
 0003:00032044       _AcpiGbl_StartupFlags      1009e044     Acpica:utglobal.obj
 0003:00032050       ?_OptionsStorage@?1??__local_stdio_printf_options@@9@9 1009e050     <common>
 0003:00032060       _RTUStats                  1009e060     <common>
 0003:00032080       __rtkTraceEnabled          1009e080     <common>
 0003:000320b8       _KBKeyAvailable            1009e0b8     <common>
 0003:000320c0       __rtkStartTime             1009e0c0     <common>
 0003:000320c8       __tdsMapRoot               1009e0c8     <common>
 0003:000320d0       ___sse2_available          1009e0d0     <common>
 0003:000320d4       _AcpiGbl_GlobalLockPresent 1009e0d4     <common>
 0003:000320e0       _AcpiGbl_MutexInfo         1009e0e0     <common>
 0003:00032160       _AcpiCurrentGpeCount       1009e160     <common>
 0003:00032164       _AcpiGbl_OriginalDbgLayer  1009e164     <common>
 0003:00032170       _AcpiGbl_NamespaceRwLock   1009e170     <common>
 0003:0003217c       _AcpiSciCount              1009e17c     <common>
 0003:00032180       _AcpiGbl_NsLookupCount     1009e180     <common>
 0003:00032184       _AcpiGbl_ReferenceCountLock 1009e184     <common>
 0003:00032188       _AcpiGbl_FACS              1009e188     <common>
 0003:000321a0       _AcpiGbl_FADT              1009e1a0     <common>
 0003:000322b0       _AcpiGbl_GlobalNotify      1009e2b0     <common>
 0003:000322c0       _AcpiGbl_GlobalEventHandler 1009e2c0     <common>
 0003:000322c4       _AcpiGbl_IntegerNybbleWidth 1009e2c4     <common>
 0003:000322c8       _AcpiGbl_FadtGpeDevice     1009e2c8     <common>
 0003:000322e0       _AcpiFixedEventCount       1009e2e0     <common>
 0003:00032300       _AcpiGbl_XPm1aEnable       1009e300     <common>
 0003:0003230c       _AcpiGbl_HardwareLock      1009e30c     <common>
 0003:00032310       _AcpiGbl_RegMethodsExecuted 1009e310     <common>
 0003:00032314       _AcpiGbl_RootNode          1009e314     <common>
 0003:00032320       _AcpiGbl_FixedEventHandlers 1009e320     <common>
 0003:00032348       _AcpiGbl_GlobalLockMutex   1009e348     <common>
 0003:0003234c       _AcpiGbl_OriginalMode      1009e34c     <common>
 0003:00032350       _AcpiGbl_IntegerBitWidth   1009e350     <common>
 0003:00032351       _AcpiGbl_NextOwnerIdOffset 1009e351     <common>
 0003:00032354       _AcpiGbl_InitHandler       1009e354     <common>
 0003:00032360       _AcpiGbl_XPm1aStatus       1009e360     <common>
 0003:0003236c       _AcpiGbl_LastOwnerIdIndex  1009e36c     <common>
 0003:00032370       _AcpiGbl_GpeFadtBlocks     1009e370     <common>
 0003:00032378       _AcpiGbl_OriginalDbgLevel  1009e378     <common>
 0003:0003237c       _AcpiGbl_PsFindCount       1009e37c     <common>
 0003:00032380       _AcpiGbl_IntegerByteWidth  1009e380     <common>
 0003:00032384       _AcpiGbl_PsNodeCache       1009e384     <common>
 0003:000323a0       _AcpiGbl_RootNodeStruct    1009e3a0     <common>
 0003:000323b8       _AcpiGbl_NamespaceCache    1009e3b8     <common>
 0003:000323bc       _AcpiGbl_GlobalLockHandle  1009e3bc     <common>
 0003:000323c0       _AcpiGbl_RootTableList     1009e3c0     <common>
 0003:000323d0       _AcpiGbl_InterfaceHandler  1009e3d0     <common>
 0003:000323d4       _AcpiGbl_SupportedInterfaces 1009e3d4     <common>
 0003:000323d8       _AcpiGbl_StateCache        1009e3d8     <common>
 0003:000323dc       _AcpiGbl_SciHandlerList    1009e3dc     <common>
 0003:000323e0       _AcpiGbl_CurrentWalkList   1009e3e0     <common>
 0003:000323e4       _AcpiGbl_AllGpesInitialized 1009e3e4     <common>
 0003:000323e8       _AcpiGbl_TableHandlerContext 1009e3e8     <common>
 0003:000323ec       _AcpiGbl_GlobalLockSemaphore 1009e3ec     <common>
 0003:000323f0       _AcpiGbl_XPm1bStatus       1009e3f0     <common>
 0003:000323fc       _AcpiGbl_TableHandler      1009e3fc     <common>
 0003:00032400       _AcpiMethodCount           1009e400     <common>
 0003:00032404       _AcpiGbl_OsiMutex          1009e404     <common>
 0003:00032408       _AcpiGbl_TraceDbgLayer     1009e408     <common>
 0003:00032410       _AcpiGbl_AddressRangeList  1009e410     <common>
 0003:00032420       _AcpiGbl_OriginalDsdtHeader 1009e420     <common>
 0003:00032444       _AcpiGbl_PsNodeExtCache    1009e444     <common>
 0003:00032460       _AcpiGbl_OwnerIdMask       1009e460     <common>
 0003:00032480       _AcpiGbl_AcpiHardwarePresent 1009e480     <common>
 0003:00032484       _AcpiGbl_GpeXruptListHead  1009e484     <common>
 0003:00032488       _AcpiGbl_GlobalEventHandlerContext 1009e488     <common>
 0003:0003248c       _AcpiGbl_DSDT              1009e48c     <common>
 0003:00032490       _AcpiGbl_SystemAwakeAndRunning 1009e490     <common>
 0003:00032491       _AcpiGbl_DebuggerConfiguration 1009e491     <common>
 0003:00032494       _AcpiGbl_ExceptionHandler  1009e494     <common>
 0003:00032498       _AcpiGbl_CmSingleStep      1009e498     <common>
 0003:0003249c       _AcpiGbl_ModuleCodeList    1009e49c     <common>
 0003:000324a0       _AcpiGbl_GlobalLockPending 1009e4a0     <common>
 0003:000324a4       _AcpiGpeCount              1009e4a4     <common>
 0003:000324a8       _AcpiGbl_GlobalLockPendingLock 1009e4a8     <common>
 0003:000324ac       _AcpiGbl_GlobalLockAcquired 1009e4ac     <common>
 0003:000324b0       _AcpiGbl_XPm1bEnable       1009e4b0     <common>
 0003:000324bc       _AcpiGbl_OperandCache      1009e4bc     <common>
 0003:000324c0       _AcpiGbl_EventsInitialized 1009e4c0     <common>
 0003:000324c4       _AcpiGbl_GpeLock           1009e4c4     <common>
 0003:000324c8       _AcpiGbl_TraceDbgLevel     1009e4c8     <common>
 0003:000324cc       ___scrt_ucrt_dll_is_in_use 1009e4cc     <common>
 0003:000324d0       ___dyn_tls_init_callback   1009e4d0     <common>
 0003:000324d4       __pDestructExceptionObject 1009e4d4     <common>
 0003:000324d8       __pmatherr                 1009e4d8     <common>
 0003:000324dc       ___use_sse2_mathfcns       1009e4dc     <common>

 entry point at        0001:0004fc2b

 Static symbols

 0001:000001a0       _FindDescr                 100011a0 f   Rtusb:Rtusb.obj
 0001:000005f0       _CheckPower                100015f0 f   Rtusb:Rtusb.obj
 0001:00000640       _ChildrensPower            10001640 f   Rtusb:Rtusb.obj
 0001:00000690       _DevicePower               10001690 f   Rtusb:Rtusb.obj
 0001:00000970       _MakeNewPipeHandle         10001970 f   Rtusb:Rtusb.obj
 0001:000009b0       _AllocHandleSlot           100019b0 f   Rtusb:Rtusb.obj
 0001:00000a40       _EventMsg                  10001a40 f   Rtusb:Rtusb.obj
 0001:00000bd0       _ParsePipeHandleLocked     10001bd0 f   Rtusb:Rtusb.obj
 0001:00000c70       _DeallocPipe               10001c70 f   Rtusb:Rtusb.obj
 0001:00000d40       _DeallocDevice             10001d40 f   Rtusb:Rtusb.obj
 0001:00000d90       _ReleaseAddress            10001d90 f   Rtusb:Rtusb.obj
 0001:00000dd0       _UnlinkEndPoint            10001dd0 f   Rtusb:Rtusb.obj
 0001:00000ef0       _SetupNotification         10001ef0 f   Rtusb:Rtusb.obj
 0001:00000f20       _IsoBufListCheck           10001f20 f   Rtusb:Rtusb.obj
 0001:000015a0       _HubTask                   100025a0 f   Rtusb:Rtusb.obj
 0001:00001850       _CreateDevice              10002850 f   Rtusb:Rtusb.obj
 0001:00001930       _SetupDevice               10002930 f   Rtusb:Rtusb.obj
 0001:00001ab0       _ShowError                 10002ab0 f   Rtusb:Rtusb.obj
 0001:00001ae0       _AllocAddress              10002ae0 f   Rtusb:Rtusb.obj
 0001:00001b70       _GetConfigDescriptor       10002b70 f   Rtusb:Rtusb.obj
 0001:00001c70       _ChangeAddress             10002c70 f   Rtusb:Rtusb.obj
 0001:00001ce0       _HandleHubStatus           10002ce0 f   Rtusb:Rtusb.obj
 0001:00001d40       _GetHubStatus              10002d40 f   Rtusb:Rtusb.obj
 0001:00001dc0       _HandleHubPort             10002dc0 f   Rtusb:Rtusb.obj
 0001:000021a0       _KillDevice                100031a0 f   Rtusb:Rtusb.obj
 0001:00002210       _GetPortStatus             10003210 f   Rtusb:Rtusb.obj
 0001:000022d0       _DeviceSpeed               100032d0 f   Rtusb:Rtusb.obj
 0001:00002310       _KillDeviceTree            10003310 f   Rtusb:Rtusb.obj
 0001:00002460       _ReEnumDevice              10003460 f   Rtusb:Rtusb.obj
 0001:000024d0       _CloseHub                  100034d0 f   Rtusb:Rtusb.obj
 0001:00002530       _HubCallback               10003530 f   Rtusb:Rtusb.obj
 0001:00002a60       _SetRepeatRate             10003a60 f   Rtusb:Usbkb.obj
 0001:00002a90       _USBKeyboardThread         10003a90 f   Rtusb:Usbkb.obj
 0001:00002bf0       _USBUpdateKeyLED           10003bf0 f   Rtusb:Usbkb.obj
 0001:00002c30       _AddModifiers              10003c30 f   Rtusb:Usbkb.obj
 0001:00002c70       _AddKey                    10003c70 f   Rtusb:Usbkb.obj
 0001:00002c90       _MatchKeyMaps              10003c90 f   Rtusb:Usbkb.obj
 0001:00002e20       _PressKey                  10003e20 f   Rtusb:Usbkb.obj
 0001:00002e50       _IsEnhanced                10003e50 f   Rtusb:Usbkb.obj
 0001:00002e70       _ToScanCode                10003e70 f   Rtusb:Usbkb.obj
 0001:00002ea0       _ReleaseKey                10003ea0 f   Rtusb:Usbkb.obj
 0001:00002ee0       _CloseKB                   10003ee0 f   Rtusb:Usbkb.obj
 0001:000030b0       _RequestSense              100040b0 f   Rtusb:Usbdisk.obj
 0001:00003110       _DoTransaction             10004110 f   Rtusb:Usbdisk.obj
 0001:00003580       _FlushPipe                 10004580 f   Rtusb:Usbdisk.obj
 0001:000035b0       _Reset                     100045b0 f   Rtusb:Usbdisk.obj
 0001:00003650       _Inquiry                   10004650 f   Rtusb:Usbdisk.obj
 0001:000036a0       _TestUnitReady             100046a0 f   Rtusb:Usbdisk.obj
 0001:000036e0       _StartUnit                 100046e0 f   Rtusb:Usbdisk.obj
 0001:00003730       _GetDriveCapacity          10004730 f   Rtusb:Usbdisk.obj
 0001:000037b0       _LockDevice                100047b0 f   Rtusb:Usbdisk.obj
 0001:000037e0       _UnLockDevice              100047e0 f   Rtusb:Usbdisk.obj
 0001:00003870       _ReadTOC                   10004870 f   Rtusb:Usbdisk.obj
 0001:000038d0       _CheckMedia                100048d0 f   Rtusb:Usbdisk.obj
 0001:00003940       _IO                        10004940 f   Rtusb:Usbdisk.obj
 0001:00003e00       _CloseDevice               10004e00 f   Rtusb:Usbdisk.obj
 0001:00004290       _TakeOwnerShip             10005290 f   Rtusb:Xhci.obj
 0001:00004380       _ProcessInterrupt          10005380 f   Rtusb:Xhci.obj
 0001:00004590       _TransferEvent             10005590 f   Rtusb:Xhci.obj
 0001:000047d0       _DeleteTD                  100057d0 f   Rtusb:Xhci.obj
 0001:00004820       _SignalAndDeleteTransaction 10005820 f   Rtusb:Xhci.obj
 0001:000048c0       _XHCIError                 100058c0 f   Rtusb:Xhci.obj
 0001:000048e0       _CancelAll                 100058e0 f   Rtusb:Xhci.obj
 0001:00004920       _SetIsoResults             10005920 f   Rtusb:Xhci.obj
 0001:000049a0       _FixupIsoBuffers           100059a0 f   Rtusb:Xhci.obj
 0001:00004a80       _ShutDown                  10005a80 f   Rtusb:Xhci.obj
 0001:00004ab0       _OpenPipe                  10005ab0 f   Rtusb:Xhci.obj
 0001:00004c50       _DCI                       10005c50 f   Rtusb:Xhci.obj
 0001:00004c80       _SendCommand               10005c80 f   Rtusb:Xhci.obj
 0001:00004df0       _Itoa                      10005df0 f   Rtusb:Xhci.obj
 0001:00004e40       _AllocTransferTRBSegment   10005e40 f   Rtusb:Xhci.obj
 0001:00004e70       _UpdateSlotContext         10005e70 f   Rtusb:Xhci.obj
 0001:00004f10       _BuildSlotContext          10005f10 f   Rtusb:Xhci.obj
 0001:00005050       _BuildEndpointContext      10006050 f   Rtusb:Xhci.obj
 0001:00005230       _Ln2                       10006230 f   Rtusb:Xhci.obj
 0001:00005260       _CancelIO                  10006260 f   Rtusb:Xhci.obj
 0001:000053c0       _ClosePipe                 100063c0 f   Rtusb:Xhci.obj
 0001:00005460       _SendSetup                 10006460 f   Rtusb:Xhci.obj
 0001:00005710       _DCIFromEndPointAddress    10006710 f   Rtusb:Xhci.obj
 0001:00005730       _AllocTransaction          10006730 f   Rtusb:Xhci.obj
 0001:00005780       _AllocTD                   10006780 f   Rtusb:Xhci.obj
 0001:000058b0       _NextTRB                   100068b0 f   Rtusb:Xhci.obj
 0001:000058f0       _ContigBytes               100068f0 f   Rtusb:Xhci.obj
 0001:00005950       _TDSize                    10006950 f   Rtusb:Xhci.obj
 0001:00005970       _SetConfiguration          10006970 f   Rtusb:Xhci.obj
 0001:00005b00       _GetMaxDCI                 10006b00 f   Rtusb:Xhci.obj
 0001:00005b80       _SetAltInterface           10006b80 f   Rtusb:Xhci.obj
 0001:00005d70       _IO                        10006d70 f   Rtusb:Xhci.obj
 0001:00005fd0       _FrameNumber               10006fd0 f   Rtusb:Xhci.obj
 0001:00005fe0       _VRootHubControl           10006fe0 f   Rtusb:Xhci.obj
 0001:00006600       _ProcessInterrupt          10007600 f   Rtusb:Ehci.obj
 0001:000066e0       _RootHubEvent              100076e0 f   Rtusb:Ehci.obj
 0001:00006740       _HandleUSBInt              10007740 f   Rtusb:Ehci.obj
 0001:00006850       _SignalQHTransaction       10007850 f   Rtusb:Ehci.obj
 0001:00006940       _EHCIError                 10007940 f   Rtusb:Ehci.obj
 0001:00006980       _UnlinkQH                  10007980 f   Rtusb:Ehci.obj
 0001:00006a40       _SignalsiTDTransaction     10007a40 f   Rtusb:Ehci.obj
 0001:00006b40       _EHCIsiTDError             10007b40 f   Rtusb:Ehci.obj
 0001:00006b80       _SignaliTDTransaction      10007b80 f   Rtusb:Ehci.obj
 0001:00006c90       _EHCIiTDError              10007c90 f   Rtusb:Ehci.obj
 0001:00006cc0       _InitIntQTree              10007cc0 f   Rtusb:Ehci.obj
 0001:00006ce0       _ShutDown                  10007ce0 f   Rtusb:Ehci.obj
 0001:00006d20       _OpenPipe                  10007d20 f   Rtusb:Ehci.obj
 0001:00006f70       _CleanTransactions         10007f70 f   Rtusb:Ehci.obj
 0001:00006fe0       _CleanQH                   10007fe0 f   Rtusb:Ehci.obj
 0001:00007010       _CleanIso                  10008010 f   Rtusb:Ehci.obj
 0001:00007110       _InsertPeriodic            10008110 f   Rtusb:Ehci.obj
 0001:000071b0       _QHNextQ                   100081b0 f   Rtusb:Uhci.obj
 0001:000071b0       _QHNextQ                   100081b0 f   Rtusb:Ehci.obj
 0001:000071c0       _PeriodicCount             100081c0 f   Rtusb:Ehci.obj
 0001:00007200       _FindPeriodicOfs           10008200 f   Rtusb:Ehci.obj
 0001:00007250       _PeriodicLoad              10008250 f   Rtusb:Ehci.obj
 0001:000072e0       _CancelIO                  100082e0 f   Rtusb:Ehci.obj
 0001:00007300       _CancelED                  10008300 f   Rtusb:Ehci.obj
 0001:000074d0       _RemovePeriodic            100084d0 f   Rtusb:Ehci.obj
 0001:00007540       _WaitPeriodicAdvance       10008540 f   Rtusb:Ehci.obj
 0001:00007580       _WaitAsynchAdvance         10008580 f   Rtusb:Ehci.obj
 0001:000075f0       _ClosePipe                 100085f0 f   Rtusb:Ehci.obj
 0001:00007680       _SendSetup                 10008680 f   Rtusb:Ehci.obj
 0001:00007910       _AllocTransaction          10008910 f   Rtusb:Ehci.obj
 0001:00007940       _LinkQH                    10008940 f   Rtusb:Ehci.obj
 0001:00007a00       _LinkQHTransaction         10008a00 f   Rtusb:Ehci.obj
 0001:00007a30       _ClearCarry                10008a30 f   Rtusb:Ehci.obj
 0001:00007a70       _IO                        10008a70 f   Rtusb:Ehci.obj
 0001:00008430       _FrameNumber               10009430 f   Rtusb:Ehci.obj
 0001:00008440       _VRootHubControl           10009440 f   Rtusb:Ehci.obj
 0001:00008a30       _ProcessInterrupt          10009a30 f   Rtusb:Uhci.obj
 0001:00008ab0       _HandleUSBInt              10009ab0 f   Rtusb:Uhci.obj
 0001:00008b00       _SignalQHTransaction       10009b00 f   Rtusb:Uhci.obj
 0001:00008c70       _UnlinkQH                  10009c70 f   Rtusb:Uhci.obj
 0001:00008ce0       _UHCIError                 10009ce0 f   Rtusb:Uhci.obj
 0001:00008d40       _FixToggles                10009d40 f   Rtusb:Uhci.obj
 0001:00008d80       _SignaliTDTransaction      10009d80 f   Rtusb:Uhci.obj
 0001:00008eb0       _CheckShortPackets         10009eb0 f   Rtusb:Uhci.obj
 0001:00008f70       _FindTransaction           10009f70 f   Rtusb:Uhci.obj
 0001:00008fc0       _CheckErrorPackets         10009fc0 f   Rtusb:Uhci.obj
 0001:00009040       _UHCIHubPollHandler        1000a040 f   Rtusb:Uhci.obj
 0001:000090d0       _RootHubEvent              1000a0d0 f   Rtusb:Uhci.obj
 0001:00009170       _InitIntQTree              1000a170 f   Rtusb:Uhci.obj
 0001:00009190       _ShutDown                  1000a190 f   Rtusb:Uhci.obj
 0001:000091c0       _OpenPipe                  1000a1c0 f   Rtusb:Uhci.obj
 0001:000092f0       _CleanTransactions         1000a2f0 f   Rtusb:Uhci.obj
 0001:000093b0       _CleanQH                   1000a3b0 f   Rtusb:Uhci.obj
 0001:000093f0       _CleanIso                  1000a3f0 f   Rtusb:Uhci.obj
 0001:000094b0       _InsertPeriodic            1000a4b0 f   Rtusb:Uhci.obj
 0001:00009560       _PeriodicCount             1000a560 f   Rtusb:Uhci.obj
 0001:000095b0       _FindPeriodicOfs           1000a5b0 f   Rtusb:Uhci.obj
 0001:00009610       _PeriodicLoad              1000a610 f   Rtusb:Uhci.obj
 0001:000096f0       _BinaryReverse             1000a6f0 f   Rtusb:Uhci.obj
 0001:000096f0       _BinaryReverse             1000a6f0 f   Rtusb:Ohci.obj
 0001:000096f0       _BinaryReverse             1000a6f0 f   Rtusb:Ehci.obj
 0001:00009710       _CancelIO                  1000a710 f   Rtusb:Uhci.obj
 0001:00009840       _Halt                      1000a840 f   Rtusb:Uhci.obj
 0001:00009890       _Continue                  1000a890 f   Rtusb:Uhci.obj
 0001:000098b0       _ClosePipe                 1000a8b0 f   Rtusb:Uhci.obj
 0001:00009940       _RemovePeriodic            1000a940 f   Rtusb:Uhci.obj
 0001:000099b0       _SendSetup                 1000a9b0 f   Rtusb:Uhci.obj
 0001:00009c70       _AllocTransaction          1000ac70 f   Rtusb:Uhci.obj
 0001:00009cb0       _LinkQH                    1000acb0 f   Rtusb:Uhci.obj
 0001:00009d20       _LinkQHTransaction         1000ad20 f   Rtusb:Uhci.obj
 0001:00009d60       _GetPhysBuffer             1000ad60 f   Rtusb:Uhci.obj
 0001:00009e30       _ClearCarry                1000ae30 f   Rtusb:Uhci.obj
 0001:00009e60       _IO                        1000ae60 f   Rtusb:Uhci.obj
 0001:0000a2d0       _FrameNumber               1000b2d0 f   Rtusb:Uhci.obj
 0001:0000a2f0       _VRootHubControl           1000b2f0 f   Rtusb:Uhci.obj
 0001:0000a860       _TakeOwnerShip             1000b860 f   Rtusb:Ohci.obj
 0001:0000a910       _ProcessInterrupt          1000b910 f   Rtusb:Ohci.obj
 0001:0000aa90       _FreeTransactionIndex      1000ba90 f   Rtusb:Ohci.obj
 0001:0000aac0       _RootHubEvent              1000bac0 f   Rtusb:Ohci.obj
 0001:0000ab40       _ProcessDone               1000bb40 f   Rtusb:Ohci.obj
 0001:0000ab90       _ProcessDoneTD             1000bb90 f   Rtusb:Ohci.obj
 0001:0000acc0       _UnlinkControl             1000bcc0 f   Rtusb:Ohci.obj
 0001:0000ad60       _UnlinkBulk                1000bd60 f   Rtusb:Ohci.obj
 0001:0000ae00       _FreeTD                    1000be00 f   Rtusb:Ohci.obj
 0001:0000ae10       _RemainingBuffer           1000be10 f   Rtusb:Ohci.obj
 0001:0000ae50       _CleanupED                 1000be50 f   Rtusb:Ohci.obj
 0001:0000aef0       _FreeIsoTD                 1000bef0 f   Rtusb:Ohci.obj
 0001:0000af00       _ProcessDoneIsoTD          1000bf00 f   Rtusb:Ohci.obj
 0001:0000b0f0       _ShutDown                  1000c0f0 f   Rtusb:Ohci.obj
 0001:0000b120       _OpenPipe                  1000c120 f   Rtusb:Ohci.obj
 0001:0000b270       _InsertPeriodic            1000c270 f   Rtusb:Ohci.obj
 0001:0000b300       _PeriodicCount             1000c300 f   Rtusb:Ohci.obj
 0001:0000b340       _NextLowerPower2           1000c340 f   Rtusb:Uhci.obj
 0001:0000b340       _NextLowerPower2           1000c340 f   Rtusb:Ehci.obj
 0001:0000b340       _NextLowerPower2           1000c340 f   Rtusb:Ohci.obj
 0001:0000b360       _FindPeriodicOfs           1000c360 f   Rtusb:Ohci.obj
 0001:0000b3b0       _PeriodicLoad              1000c3b0 f   Rtusb:Ohci.obj
 0001:0000b430       _ClosePipe                 1000c430 f   Rtusb:Ohci.obj
 0001:0000b4d0       _RemovePeriodic            1000c4d0 f   Rtusb:Ohci.obj
 0001:0000b530       _SetSkipBit                1000c530 f   Rtusb:Ohci.obj
 0001:0000b620       _CancelED                  1000c620 f   Rtusb:Ohci.obj
 0001:0000b6d0       _CancelIO                  1000c6d0 f   Rtusb:Ohci.obj
 0001:0000b730       _SendSetup                 1000c730 f   Rtusb:Ohci.obj
 0001:0000b920       _AllocTransactionIndex     1000c920 f   Rtusb:Ohci.obj
 0001:0000b980       _LinkControl               1000c980 f   Rtusb:Ohci.obj
 0001:0000ba60       _ClearCarry                1000ca60 f   Rtusb:Ohci.obj
 0001:0000ba90       _IO                        1000ca90 f   Rtusb:Ohci.obj
 0001:0000bc40       _LinkBulk                  1000cc40 f   Rtusb:Ohci.obj
 0001:0000bd20       _CreateTDs                 1000cd20 f   Rtusb:Ohci.obj
 0001:0000be00       _CreateIsoTDs              1000ce00 f   Rtusb:Ohci.obj
 0001:0000bf90       _CreateBLIsoTDs            1000cf90 f   Rtusb:Ohci.obj
 0001:0000c120       _FrameNumber               1000d120 f   Rtusb:Ohci.obj
 0001:0000c140       _VRootHubControl           1000d140 f   Rtusb:Ohci.obj
 0001:0000c520       _AllocPool                 1000d520 f   Rtusb:Usbutil.obj
 0001:0000c5c0       _NewPage                   1000d5c0 f   Rtusb:Usbutil.obj
 0001:0000c660       _FreePool                  1000d660 f   Rtusb:Usbutil.obj
 0001:0000c8f0       _CopyUnicode               1000d8f0 f   Rtusb:Usbutil.obj
 0001:0000ccd0       _LEDHook                   1000dcd0 f   Rtusb:Sysurtk32.obj
 0001:0000cdd0       _ReadSectors               1000ddd0 f   RtfilesX:Drvide.obj
 0001:0000cf10       _RaiseError                1000df10 f   RtfilesX:Drvide.obj
 0001:0000cf90       _GetDeviceInfo             1000df90 f   RtfilesX:Drvide.obj
 0001:0000d080       _WaitForInterrupt          1000e080 f   RtfilesX:Drvide.obj
 0001:0000d0c0       _DiscardData               1000e0c0 f   RtfilesX:Drvide.obj
 0001:0000d0e0       _WaitNotBusy               1000e0e0 f   RtfilesX:Drvide.obj
 0001:0000d170       _SelectDrive               1000e170 f   RtfilesX:Drvide.obj
 0001:0000d200       _PacketCommand             1000e200 f   RtfilesX:Drvide.obj
 0001:0000d340       __PacketCommand            1000e340 f   RtfilesX:Drvide.obj
 0001:0000d4d0       _GetSenseCode              1000e4d0 f   RtfilesX:Drvide.obj
 0001:0000d510       __GetSenseCode             1000e510 f   RtfilesX:Drvide.obj
 0001:0000d5a0       __GetSenseCodeStack        1000e5a0 f   RtfilesX:Drvide.obj
 0001:0000d5c0       _RaiseIfError              1000e5c0 f   RtfilesX:Drvide.obj
 0001:0000d5d0       __ReadSectors              1000e5d0 f   RtfilesX:Drvide.obj
 0001:0000d910       _IDEReadSectors            1000e910 f   RtfilesX:Drvide.obj
 0001:0000da30       _SetSectorAndCount         1000ea30 f   RtfilesX:Drvide.obj
 0001:0000dc90       _CreateDMAScatterList      1000ec90 f   RtfilesX:Drvide.obj
 0001:0000ddb0       _UDMA                      1000edb0 f   RtfilesX:Drvide.obj
 0001:0000deb0       _UDMAPacketCommand         1000eeb0 f   RtfilesX:Drvide.obj
 0001:0000e070       _ATAPISetLBALen            1000f070 f   RtfilesX:Drvide.obj
 0001:0000e0e0       _WriteSectors              1000f0e0 f   RtfilesX:Drvide.obj
 0001:0000e160       __WriteSectors             1000f160 f   RtfilesX:Drvide.obj
 0001:0000e300       _IDEWriteSectors           1000f300 f   RtfilesX:Drvide.obj
 0001:0000e490       _MountDevice               1000f490 f   RtfilesX:Drvide.obj
 0001:0000e880       _DeviceInt                 1000f880 f   RtfilesX:Drvide.obj
 0001:0000e910       _StartUnit                 1000f910 f   RtfilesX:Drvide.obj
 0001:0000e950       _TestUnitReady             1000f950 f   RtfilesX:Drvide.obj
 0001:0000e980       _ScanPCIIDE                1000f980 f   RtfilesX:Drvide.obj
 0001:0000ebf0       _CheckIDEDeviceInfo        1000fbf0 f   RtfilesX:Drvide.obj
 0001:0000ee70       _SetMulti                  1000fe70 f   RtfilesX:Drvide.obj
 0001:0000ef20       _SetFeature                1000ff20 f   RtfilesX:Drvide.obj
 0001:0000efa0       _CheckATAPIDeviceInfo      1000ffa0 f   RtfilesX:Drvide.obj
 0001:0000f050       _MediaChanged              10010050 f   RtfilesX:Drvide.obj
 0001:0000f080       _DiscardSectors            10010080 f   RtfilesX:Drvide.obj
 0001:0000f2e0       _GetDiskGeometry           100102e0 f   RtfilesX:Drvide.obj
 0001:0000f420       _Tray                      10010420 f   RtfilesX:Drvide.obj
 0001:0000f4c0       _IoControl                 100104c0 f   RtfilesX:Drvide.obj
 0001:0000f500       _FlushDevice               10010500 f   RtfilesX:Drvide.obj
 0001:0000f570       _ShutDown                  10010570 f   RtfilesX:Drvide.obj
 0001:0000f5c0       _MountDevice               100105c0 f   RtfilesX:Drvusb.obj
 0001:0000f600       _RTUToRTFError             10010600 f   RtfilesX:Drvusb.obj
 0001:0000f630       _ReadSectors               10010630 f   RtfilesX:Drvusb.obj
 0001:0000f660       _WriteSectors              10010660 f   RtfilesX:Drvusb.obj
 0001:0000f690       _MediaChanged              10010690 f   RtfilesX:Drvusb.obj
 0001:0000f6b0       _GetDiskGeometry           100106b0 f   RtfilesX:Drvusb.obj
 0001:0000f720       _IoControl                 10010720 f   RtfilesX:Drvusb.obj
 0001:0000f750       _Tray                      10010750 f   RtfilesX:Drvusb.obj
 0001:0000f8e0       _ReadSectors               100108e0 f   RtfilesX:Drvahci.obj
 0001:0000fb80       _ATAToRTFError             10010b80 f   RtfilesX:Drvahci.obj
 0001:0000fbe0       _ATACommand                10010be0 f   RtfilesX:Drvahci.obj
 0001:0000fe80       _StopDevice                10010e80 f   RtfilesX:Drvahci.obj
 0001:0000ff00       _StartDevice               10010f00 f   RtfilesX:Drvahci.obj
 0001:0000fff0       _CreateDMAScatterList      10010ff0 f   RtfilesX:Drvahci.obj
 0001:000100f0       _WaitForInterrupt          100110f0 f   RtfilesX:Drvahci.obj
 0001:00010120       _PacketCommand             10011120 f   RtfilesX:Drvahci.obj
 0001:00010270       _GetSenseCode              10011270 f   RtfilesX:Drvahci.obj
 0001:000102e0       _ATAPISetLBALen            100112e0 f   RtfilesX:Drvahci.obj
 0001:00010360       _GetDeviceInfo             10011360 f   RtfilesX:Drvahci.obj
 0001:00010390       _SetSectorAndCount         10011390 f   RtfilesX:Drvahci.obj
 0001:00010510       _WriteSectors              10011510 f   RtfilesX:Drvahci.obj
 0001:000106b0       _MountDevice               100116b0 f   RtfilesX:Drvahci.obj
 0001:00010840       _ScanPCIAHCI               10011840 f   RtfilesX:Drvahci.obj
 0001:00010980       _DeviceInt                 10011980 f   RtfilesX:Drvahci.obj
 0001:00010a20       _FindDevice                10011a20 f   RtfilesX:Drvahci.obj
 0001:00010bb0       _SpinUp                    10011bb0 f   RtfilesX:Drvahci.obj
 0001:00010c60       _StartUnit                 10011c60 f   RtfilesX:Drvahci.obj
 0001:00010cb0       _TestUnitReady             10011cb0 f   RtfilesX:Drvahci.obj
 0001:00010d40       _CheckIDEDeviceInfo        10011d40 f   RtfilesX:Drvahci.obj
 0001:00010f40       _SetFeature                10011f40 f   RtfilesX:Drvahci.obj
 0001:00010fc0       _CheckATAPIDeviceInfo      10011fc0 f   RtfilesX:Drvahci.obj
 0001:00011030       _MediaChanged              10012030 f   RtfilesX:Drvahci.obj
 0001:00011060       _DiscardSectors            10012060 f   RtfilesX:Drvahci.obj
 0001:000111c0       _GetDiskGeometry           100121c0 f   RtfilesX:Drvahci.obj
 0001:00011300       _IoControl                 10012300 f   RtfilesX:Drvahci.obj
 0001:00011340       _FlushDevice               10012340 f   RtfilesX:Drvahci.obj
 0001:000113a0       _Tray                      100123a0 f   RtfilesX:Drvahci.obj
 0001:00011460       _ShutDown                  10012460 f   RtfilesX:Drvahci.obj
 0001:000115a0       @Utf8CharWidth@4           100125a0 f   RtfilesX:Rtfiles.obj
 0001:000115d0       @Utf8ToUnicode@4           100125d0 f   RtfilesX:Rtfiles.obj
 0001:00011740       @UnicodeNeedsUtf8Bytes@4   10012740 f   RtfilesX:Rtfiles.obj
 0001:00011760       @UnicodeToUtf8@8           10012760 f   RtfilesX:Rtfiles.obj
 0001:000117b0       @WCharToChar@8             100127b0 f   RtfilesX:Rtfiles.obj
 0001:000117f0       @AllocBufferPool@16        100127f0 f   RtfilesX:Rtfiles.obj
 0001:00011850       @AllocBuffers@0            10012850 f   RtfilesX:Rtfiles.obj
 0001:000118c0       @MountDevice@8             100128c0 f   RtfilesX:Rtfiles.obj
 0001:00011ab0       @PowerTwo@4                10012ab0 f   RtfilesX:Rtfiles.obj
 0001:00011ad0       @CheckMedia@4              10012ad0 f   RtfilesX:Rtfiles.obj
 0001:00011af0       @GetDiskGeometry@12        10012af0 f   RtfilesX:Rtfiles.obj
 0001:00011bc0       @ShutDown@4                10012bc0 f   RtfilesX:Rtfiles.obj
 0001:00011c60       @ReadSectors@24            10012c60 f   RtfilesX:Rtfiles.obj
 0001:00011d90       @HandleCriticalError@8     10012d90 f   RtfilesX:Rtfiles.obj
 0001:00011e60       @CheckSerialNumber@8       10012e60 f   RtfilesX:Rtfiles.obj
 0001:00011fd0       @MediaChanged@4            10012fd0 f   RtfilesX:Rtfiles.obj
 0001:00012080       @DiscardOtherBuffer@4      10013080 f   RtfilesX:Rtfiles.obj
 0001:000120b0       @ToTail@8                  100130b0 f   RtfilesX:Rtfiles.obj
 0001:000120f0       @SearchBuffer@12           100130f0 f   RtfilesX:Rtfiles.obj
 0001:000121b0       @UpFront@8                 100131b0 f   RtfilesX:Rtfiles.obj
 0001:000121e0       @FreeBuffer@4              100131e0 f   RtfilesX:Rtfiles.obj
 0001:00012200       @GetBuffer@16              10013200 f   RtfilesX:Rtfiles.obj
 0001:00012410       @ReadBuffer@4              10013410 f   RtfilesX:Rtfiles.obj
 0001:00012490       @WriteBuffer@4             10013490 f   RtfilesX:Rtfiles.obj
 0001:00012610       @WriteSectors@24           10013610 f   RtfilesX:Rtfiles.obj
 0001:00012730       @DiscardAllDirtyBuffers@4  10013730 f   RtfilesX:Rtfiles.obj
 0001:00012770       @DiscardBuffer@4           10013770 f   RtfilesX:Rtfiles.obj
 0001:00012790       @DiscardSectors@20         10013790 f   RtfilesX:Rtfiles.obj
 0001:00012870       @IoControl@16              10013870 f   RtfilesX:Rtfiles.obj
 0001:000129a0       @RTFInit@0                 100139a0 f   RtfilesX:Rtfiles.obj
 0001:00012a00       @InitDevices@0             10013a00 f   RtfilesX:Rtfiles.obj
 0001:00012b10       @FindDeviceLock@12         10013b10 f   RtfilesX:Rtfiles.obj
 0001:00012b40       @LockDevice@4              10013b40 f   RtfilesX:Rtfiles.obj
 0001:00012b70       @UnlockDevice@4            10013b70 f   RtfilesX:Rtfiles.obj
 0001:00012bb0       @UnmountDevice@8           10013bb0 f   RtfilesX:Rtfiles.obj
 0001:00012c30       @DiscardAllBuffers@4       10013c30 f   RtfilesX:Rtfiles.obj
 0001:00012c70       @FreeFTSlot@4              10013c70 f   RtfilesX:Rtfiles.obj
 0001:00012c80       @ScanDevices@0             10013c80 f   RtfilesX:Rtfiles.obj
 0001:00012df0       @ReserveLogicalDrive@8     10013df0 f   RtfilesX:Rtfiles.obj
 0001:00012e30       @AllocateDrive@8           10013e30 f   RtfilesX:Rtfiles.obj
 0001:00012e90       @LockedScanPartitionTable@12 10013e90 f   RtfilesX:Rtfiles.obj
 0001:00012f50       @ScanPartitionTable@12     10013f50 f   RtfilesX:Rtfiles.obj
 0001:00013280       @InitLogicalDrive@20       10014280 f   RtfilesX:Rtfiles.obj
 0001:00013300       @IsBootRecord@4            10014300 f   RtfilesX:Rtfiles.obj
 0001:00013360       @IsPartitionTable@4        10014360 f   RtfilesX:Rtfiles.obj
 0001:000133f0       @MountGPT@8                100143f0 f   RtfilesX:Rtfiles.obj
 0001:00013560       @TakeIt@8                  10014560 f   RtfilesX:Rtfiles.obj
 0001:000135d0       @_rtftoupperOEM@4          100145d0 f   RtfilesX:Rtfiles.obj
 0001:000135f0       @ParseDriveLetter@4        100145f0 f   RtfilesX:Rtfiles.obj
 0001:000139b0       @CheckValidFileName@4      100149b0 f   RtfilesX:Rtfiles.obj
 0001:00013a10       @IsValidLongNameChar@4     10014a10 f   RtfilesX:Rtfiles.obj
 0001:00013a50       @SetDirty@4                10014a50 f   RtfilesX:Rtfiles.obj
 0001:00013ae0       @FlushOldest@4             10014ae0 f   RtfilesX:Rtfiles.obj
 0001:00013b10       @FlushBuffer@4             10014b10 f   RtfilesX:Rtfiles.obj
 0001:00013b40       @FlushAllBuffers@4         10014b40 f   RtfilesX:Rtfiles.obj
 0001:00013b70       @ClearSectors@16           10014b70 f   RtfilesX:Rtfiles.obj
 0001:00013c80       @FileCount@4               10014c80 f   RtfilesX:Rtfiles.obj
 0001:00013cb0       @FreeFTSlotAndDevice@4     10014cb0 f   RtfilesX:Rtfiles.obj
 0001:00013cd0       @ParseFileName@4           10014cd0 f   RtfilesX:Rtfiles.obj
 0001:00013ee0       @ReserveFTSlot@0           10014ee0 f   RtfilesX:Rtfiles.obj
 0001:00013f50       @LocateDrive@8             10014f50 f   RtfilesX:Rtfiles.obj
 0001:00014010       @MountLogicalDrive@8       10015010 f   RtfilesX:Rtfiles.obj
 0001:00014500       @MountPartitions@4         10015500 f   RtfilesX:Rtfiles.obj
 0001:00014570       @MakePseudoRootDirEntry@8  10015570 f   RtfilesX:Rtfiles.obj
 0001:000145c0       @FindDefaultDrive@0        100155c0 f   RtfilesX:Rtfiles.obj
 0001:00014640       @AllocateFATSegment@12     10015640 f   RtfilesX:Rtfiles.obj
 0001:000146c0       @FATZeros@12               100156c0 f   RtfilesX:Rtfiles.obj
 0001:00014700       @GetClusterValue@8         10015700 f   RtfilesX:Rtfiles.obj
 0001:00014920       @FATMarkSegment@12         10015920 f   RtfilesX:Rtfiles.obj
 0001:00014990       @SetClusterValue@12        10015990 f   RtfilesX:Rtfiles.obj
 0001:00014bd0       @SetDirtyFAT@4             10015bd0 f   RtfilesX:Rtfiles.obj
 0001:00014c00       @UpdateClusterWatermark@12 10015c00 f   RtfilesX:Rtfiles.obj
 0001:00014cc0       @SearchFile@12             10015cc0 f   RtfilesX:Rtfiles.obj
 0001:000150c0       @EntryType@4               100160c0 f   RtfilesX:Rtfiles.obj
 0001:000150f0       @StartDirSearch@16         100160f0 f   RtfilesX:Rtfiles.obj
 0001:00015140       @GetDir@8                  10016140 f   RtfilesX:Rtfiles.obj
 0001:000151c0       @NextDir@8                 100161c0 f   RtfilesX:Rtfiles.obj
 0001:000151e0       @IncDir@8                  100161e0 f   RtfilesX:Rtfiles.obj
 0001:00015250       @MakeShortFileName@12      10016250 f   RtfilesX:Rtfiles.obj
 0001:000153f0       @_rtftolowerOEM@4          100163f0 f   RtfilesX:Rtfiles.obj
 0001:00015420       _ShortNameCheckSum         10016420 f   RtfilesX:Rtfiles.obj
 0001:00015450       @InsertLFN@12              10016450 f   RtfilesX:Rtfiles.obj
 0001:000154c0       @UnicodeToASCII@8          100164c0 f   RtfilesX:Rtfiles.obj
 0001:00015500       @LFNChar@8                 10016500 f   RtfilesX:Rtfiles.obj
 0001:00015520       @LFNCharCount@4            10016520 f   RtfilesX:Rtfiles.obj
 0001:00015570       @FNamesMatch@8             10016570 f   RtfilesX:Rtfiles.obj
 0001:00015690       @_rtftoupperA@4            10016690 f   RtfilesX:Rtfiles.obj
 0001:000156c0       @CreateNewDirEntry@4       100166c0 f   RtfilesX:Rtfiles.obj
 0001:000156f0       @FATCreateNewDirEntry@4    100166f0 f   RtfilesX:Rtfiles.obj
 0001:00015af0       @CharCount@4               10016af0 f   RtfilesX:Rtfiles.obj
 0001:00015b30       @NthChar@8                 10016b30 f   RtfilesX:Rtfiles.obj
 0001:00015b60       @ASCIIToUnicode@4          10016b60 f   RtfilesX:Rtfiles.obj
 0001:00015ba0       @CommitBuffer@4            10016ba0 f   RtfilesX:Rtfiles.obj
 0001:00015bb0       @MakeDOSName@8             10016bb0 f   RtfilesX:Rtfiles.obj
 0001:00015d30       @IsValidShortNameChar@4    10016d30 f   RtfilesX:Rtfiles.obj
 0001:00015d60       @GenerateShortName@8       10016d60 f   RtfilesX:Rtfiles.obj
 0001:00015e30       @GenerateShortChar@4       10016e30 f   RtfilesX:Rtfiles.obj
 0001:00015e70       @IncShortName@4            10016e70 f   RtfilesX:Rtfiles.obj
 0001:00016030       @FATSetVolumeLabel@8       10017030 f   RtfilesX:Rtfiles.obj
 0001:00016210       @DeleteDirEntry@4          10017210 f   RtfilesX:Rtfiles.obj
 0001:00016250       @DelFATDirEntry@12         10017250 f   RtfilesX:Rtfiles.obj
 0001:00016290       @DelLongDirEntry@12        10017290 f   RtfilesX:Rtfiles.obj
 0001:00016690       @MakeNewFileHandle@8       10017690 f   RtfilesX:Rtfiles.obj
 0001:000166e0       @CheckSharing@4            100176e0 f   RtfilesX:Rtfiles.obj
 0001:00016790       @FATClusterChainLength@12  10017790 f   RtfilesX:Rtfiles.obj
 0001:000167f0       @FATDelete@8               100177f0 f   RtfilesX:Rtfiles.obj
 0001:00016890       @InitFilePointer@4         10017890 f   RtfilesX:Rtfiles.obj
 0001:000168c0       @UpdateDirEntry@4          100178c0 f   RtfilesX:Rtfiles.obj
 0001:00016980       _GetLocalOpenFlags         10017980 f   RtfilesX:Rtfiles.obj
 0001:00016c30       @ToHexString@8             10017c30 f   RtfilesX:Rtfiles.obj
 0001:00016de0       @CheckNotOpen@4            10017de0 f   RtfilesX:Rtfiles.obj
 0001:00017260       @PathContains@12           10018260 f   RtfilesX:Rtfiles.obj
 0001:000175b0       @MakeAbsPath@12            100185b0 f   RtfilesX:Rtfiles.obj
 0001:000178e0       @FlushFAT@4                100188e0 f   RtfilesX:Rtfiles.obj
 0001:00017910       @ParseFileHandle@4         10018910 f   RtfilesX:Rtfiles.obj
 0001:000179b0       @FileCountDrive@4          100189b0 f   RtfilesX:Rtfiles.obj
 0001:000179e0       @CommitDirEntry@4          100189e0 f   RtfilesX:Rtfiles.obj
 0001:00017a40       @DoubleShiftLeft@8         10018a40 f   RtfilesX:Rtfiles.obj
 0001:00017dd0       @AddFilePointer@12         10018dd0 f   RtfilesX:Rtfiles.obj
 0001:000183b0       @FlushAndDiscardBuffersRange@16 100193b0 f   RtfilesX:Rtfiles.obj
 0001:00018450       @CompareFilePointers@8     10019450 f   RtfilesX:Rtfiles.obj
 0001:00018480       @DiffFilePointers@8        10019480 f   RtfilesX:Rtfiles.obj
 0001:000184b0       @DoubleShiftRight@8        100194b0 f   RtfilesX:Rtfiles.obj
 0001:000184f0       @MoveFilePointer@8         100194f0 f   RtfilesX:Rtfiles.obj
 0001:000185b0       @FarMoveFilePointer@8      100195b0 f   RtfilesX:Rtfiles.obj
 0001:000185f0       @MoveFilePointerSegment@8  100195f0 f   RtfilesX:Rtfiles.obj
 0001:00018d50       @SetFileSize@8             10019d50 f   RtfilesX:Rtfiles.obj
 0001:00018db0       @ExtendFile@8              10019db0 f   RtfilesX:Rtfiles.obj
 0001:000195b0       @AddFilePointers@12        1001a5b0 f   RtfilesX:Rtfiles.obj
 0001:00019900       @SubFilePointer@8          1001a900 f   RtfilesX:Rtfiles.obj
 0001:00019bd0       @FileNameMatches@8         1001abd0 f   RtfilesX:Rtfiles.obj
 0001:0001ab50       @ScanCD@8                  1001bb50 f   RtfilesX:Rtfiles.obj
 0001:0001aba0       @FindPrimVD@4              1001bba0 f   RtfilesX:Rtfiles.obj
 0001:0001ad50       @MakeCDSerialNumber@4      1001bd50 f   RtfilesX:Rtfiles.obj
 0001:0001ad70       @TranslateDateTime@8       1001bd70 f   RtfilesX:Rtfiles.obj
 0001:0001adc0       @CDMountLogicalDrive@4     1001bdc0 f   RtfilesX:Rtfiles.obj
 0001:0001af00       @CDPseudoRootDirEntry@8    1001bf00 f   RtfilesX:Rtfiles.obj
 0001:0001af20       @CDSearchFile@12           1001bf20 f   RtfilesX:Rtfiles.obj
 0001:0001b1a0       @CalcClusterLimit@8        1001c1a0 f   RtfilesX:Rtfiles.obj
 0001:0001b200       @CDGetDir@8                1001c200 f   RtfilesX:Rtfiles.obj
 0001:0001b2b0       @CDStartDirSearch@8        1001c2b0 f   RtfilesX:Rtfiles.obj
 0001:0001b2e0       @CDToFATDirEntry@8         1001c2e0 f   RtfilesX:Rtfiles.obj
 0001:0001b340       @TranslateAttr@4           1001c340 f   RtfilesX:Rtfiles.obj
 0001:0001b350       @CDCopyFileName@20         1001c350 f   RtfilesX:Rtfiles.obj
 0001:0001b410       @CDCopyUnicodeFileName@16  1001c410 f   RtfilesX:Rtfiles.obj
 0001:0001b4a0       @CDFindNextEx@24           1001c4a0 f   RtfilesX:Rtfiles.obj
 0001:0001b600       @IsExFAT@12                1001c600 f   RtfilesX:Rtfiles.obj
 0001:0001b640       @IsNTFS@12                 1001c640 f   RtfilesX:Rtfiles.obj
 0001:0001b670       @ExFATStartDirSearch@20    1001c670 f   RtfilesX:Rtfiles.obj
 0001:0001b6b0       @ExFATBitMap@8             1001c6b0 f   RtfilesX:Rtfiles.obj
 0001:0001b710       @ExFATSetBitMap@12         1001c710 f   RtfilesX:Rtfiles.obj
 0001:0001b7a0       @ExFATFreeClusters@4       1001c7a0 f   RtfilesX:Rtfiles.obj
 0001:0001b7d0       @ExFATClearBitMap@8        1001c7d0 f   RtfilesX:Rtfiles.obj
 0001:0001b8e0       @DelExFATDirEntry@12       1001c8e0 f   RtfilesX:Rtfiles.obj
 0001:0001b9b0       @ExFATNextDir@8            1001c9b0 f   RtfilesX:Rtfiles.obj
 0001:0001b9d0       @ExFATIncDir@8             1001c9d0 f   RtfilesX:Rtfiles.obj
 0001:0001ba10       @ExFATAllocateSegment@12   1001ca10 f   RtfilesX:Rtfiles.obj
 0001:0001ba90       @ExFATZeros@12             1001ca90 f   RtfilesX:Rtfiles.obj
 0001:0001bad0       @BitMapMarkSegment@12      1001cad0 f   RtfilesX:Rtfiles.obj
 0001:0001bb30       @ExFATMountLogicalDrive@4  1001cb30 f   RtfilesX:Rtfiles.obj
 0001:0001bc90       @LoadExFATUpper@8          1001cc90 f   RtfilesX:Rtfiles.obj
 0001:0001be00       @ExFATUpatePercentFree@8   1001ce00 f   RtfilesX:Rtfiles.obj
 0001:0001be40       @ExFATSearchFile@12        1001ce40 f   RtfilesX:Rtfiles.obj
 0001:0001bf20       @_ExFATSearchFile@12       1001cf20 f   RtfilesX:Rtfiles.obj
 0001:0001c2d0       @ExFATNameHash@8           1001d2d0 f   RtfilesX:Rtfiles.obj
 0001:0001c360       @ExFATUpper@8              1001d360 f   RtfilesX:Rtfiles.obj
 0001:0001c3d0       @RTFExFATDirCheckSumStart@4 1001d3d0 f   RtfilesX:Rtfiles.obj
 0001:0001c410       @RTFExFATDirCheckSumNext@8 1001d410 f   RtfilesX:Rtfiles.obj
 0001:0001c430       @ExFATToFATDirEntry1@8     1001d430 f   RtfilesX:Rtfiles.obj
 0001:0001c470       @ExFATToFATDirEntry2@8     1001d470 f   RtfilesX:Rtfiles.obj
 0001:0001c4b0       @ExFATCopyFileName@16      1001d4b0 f   RtfilesX:Rtfiles.obj
 0001:0001c530       @ExFATFindNextEx@24        1001d530 f   RtfilesX:Rtfiles.obj
 0001:0001c730       @ExFATCreateNewDirEntry@4  1001d730 f   RtfilesX:Rtfiles.obj
 0001:0001c970       @FATToRTFExFATDirEntry1@12 1001d970 f   RtfilesX:Rtfiles.obj
 0001:0001c9c0       @FATToRTFExFATDirEntry2@16 1001d9c0 f   RtfilesX:Rtfiles.obj
 0001:0001ca40       @MkExFATName@8             1001da40 f   RtfilesX:Rtfiles.obj
 0001:0001ca90       @ExFATExtendDir@8          1001da90 f   RtfilesX:Rtfiles.obj
 0001:0001cb00       @ExtendParentDir@12        1001db00 f   RtfilesX:Rtfiles.obj
 0001:0001cd30       @ExFATFixDirEntry@24       1001dd30 f   RtfilesX:Rtfiles.obj
 0001:0001cdf0       @ExFATExtendFile@8         1001ddf0 f   RtfilesX:Rtfiles.obj
 0001:0001cef0       @ExFATExtendFileContig@12  1001def0 f   RtfilesX:Rtfiles.obj
 0001:0001cf20       @ExFATAllocateMinSegment@12 1001df20 f   RtfilesX:Rtfiles.obj
 0001:0001cfb0       @ExFATUpdateDirEntry@4     1001dfb0 f   RtfilesX:Rtfiles.obj
 0001:0001d030       @_ExFATUpdateDirEntry@12   1001e030 f   RtfilesX:Rtfiles.obj
 0001:0001d120       @ExFATCheckDirEmpty@4      1001e120 f   RtfilesX:Rtfiles.obj
 0001:0001d190       @ExFATSetVolumeLabel@8     1001e190 f   RtfilesX:Rtfiles.obj
 0001:0001d260       @CreateLabel@8             1001e260 f   RtfilesX:Rtfiles.obj
 0001:0001d280       __CreateFileA@28           1001e280 f   RtfilesX:Rtfw32.obj
 0001:0001d3b0       _Success                   1001e3b0 f   RtfilesX:Rtfw32.obj
 0001:0001d3e0       __ReadFile@20              1001e3e0 f   RtfilesX:Rtfw32.obj
 0001:0001d420       __WriteFile@20             1001e420 f   RtfilesX:Rtfw32.obj
 0001:0001d460       __SetFilePointer@16        1001e460 f   RtfilesX:Rtfw32.obj
 0001:0001d4d0       __SetEndOfFile@4           1001e4d0 f   RtfilesX:Rtfw32.obj
 0001:0001d4f0       __FlushFileBuffers@4       1001e4f0 f   RtfilesX:Rtfw32.obj
 0001:0001d510       __GetFileSize@8            1001e510 f   RtfilesX:Rtfw32.obj
 0001:0001d570       __GetFileTime@16           1001e570 f   RtfilesX:Rtfw32.obj
 0001:0001d640       _FixDateTime               1001e640 f   RtfilesX:Rtfw32.obj
 0001:0001d660       __GetFullPathNameA@16      1001e660 f   RtfilesX:Rtfw32.obj
 0001:0001d710       __GetFileInformationByHandle@8 1001e710 f   RtfilesX:Rtfw32.obj
 0001:0001d7c0       __GetFileAttributesA@4     1001e7c0 f   RtfilesX:Rtfw32.obj
 0001:0001d7f0       __SetFileAttributesA@8     1001e7f0 f   RtfilesX:Rtfw32.obj
 0001:0001d810       __SetFileTime@16           1001e810 f   RtfilesX:Rtfw32.obj
 0001:0001d880       __DeleteFileA@4            1001e880 f   RtfilesX:Rtfw32.obj
 0001:0001d8a0       __MoveFileA@8              1001e8a0 f   RtfilesX:Rtfw32.obj
 0001:0001d8e0       _CopyAndDelete             1001e8e0 f   RtfilesX:Rtfw32.obj
 0001:0001da50       __GetTempFileNameA@16      1001ea50 f   RtfilesX:Rtfw32.obj
 0001:0001da90       __GetCurrentDirectoryA@8   1001ea90 f   RtfilesX:Rtfw32.obj
 0001:0001daf0       __SetCurrentDirectoryA@4   1001eaf0 f   RtfilesX:Rtfw32.obj
 0001:0001db10       __CreateDirectoryA@8       1001eb10 f   RtfilesX:Rtfw32.obj
 0001:0001db30       __RemoveDirectoryA@4       1001eb30 f   RtfilesX:Rtfw32.obj
 0001:0001db50       __GetDriveTypeA@4          1001eb50 f   RtfilesX:Rtfw32.obj
 0001:0001dbc0       __GetDiskFreeSpaceA@20     1001ebc0 f   RtfilesX:Rtfw32.obj
 0001:0001dc20       __GetVolumeInformationA@32 1001ec20 f   RtfilesX:Rtfw32.obj
 0001:0001dd40       __SetVolumeLabelA@8        1001ed40 f   RtfilesX:Rtfw32.obj
 0001:0001dd60       __FindFirstFileA@8         1001ed60 f   RtfilesX:Rtfw32.obj
 0001:0001ddc0       _FillWin32FindData         1001edc0 f   RtfilesX:Rtfw32.obj
 0001:0001de80       __FindNextFileA@8          1001ee80 f   RtfilesX:Rtfw32.obj
 0001:0001ded0       __DeviceIoControl@32       1001eed0 f   RtfilesX:Rtfw32.obj
 0001:0001df60       _Init                      1001ef60 f   RtfilesX:Rtfex.obj
 0001:0001e9a0       _CheckMem                  1001f9a0 f   Rtk32:Kernel.obj
 0001:0001ea90       _TimeStatistic             1001fa90 f   Rtk32:Kernel.obj
 0001:0001ece0       _ScheduleTask              1001fce0 f   Rtk32:Kernel.obj
 0001:0001f210       _ShowMessage               10020210 f   Rtk32:Kernel.obj
 0001:0001f230       _ShowName                  10020230 f   Rtk32:Kernel.obj
 0001:0001f260       _ShowIRQ                   10020260 f   Rtk32:Kernel.obj
 0001:0001f290       _ShowLocation              10020290 f   Rtk32:Kernel.obj
 0001:0001f440       _StackError                10020440 f   Rtk32:Kernel.obj
 0001:0001f640       _SetNewIRQStack            10020640 f   Rtk32:Kernel.obj
 0001:0001f6e0       _SetupIRQ                  100206e0 f   Rtk32:Kernel.obj
 0001:0001f8b0       _TerminateCurrentTask      100208b0 f   Rtk32:Kernel.obj
 0001:0001f910       _DeactivateTask            10020910 f   Rtk32:Kernel.obj
 0001:0001fa30       _TerminateOtherTask        10020a30 f   Rtk32:Kernel.obj
 0001:0001fab0       _DeallocateTask            10020ab0 f   Rtk32:Kernel.obj
 0001:0001fee0       _alloc_tcb                 10020ee0 f   Rtk32:Kernel.obj
 0001:0001ff10       _InitMathData              10020f10 f   Rtk32:Kernel.obj
 0001:0001ff90       _TaskEntryCode             10020f90 f   Rtk32:Kernel.obj
 0001:0001fff0       _ResetMath                 10020ff0 f   Rtk32:Kernel.obj
 0001:000202c0       _IdleTaskCode              100212c0 f   Rtk32:Kernel.obj
 0001:00020580       _ExitTask                  10021580 f   Rtk32:Kernel.obj
 0001:00020800       _StatInit                  10021800 f   Rtk32:Kernel.obj
 0001:00020830       _TimerInterrupt            10021830 f   Rtk32:Kernel.obj
 0001:000208d0       _IRQSetup                  100218d0 f   Rtk32:Kernel.obj
 0001:00020920       _SetupMainTask             10021920 f   Rtk32:Kernel.obj
 0001:000209d0       _CleanUp                   100219d0 f   Rtk32:Kernel.obj
 0001:00020ad0       _IRQDone                   10021ad0 f   Rtk32:Kernel.obj
 0001:00020ce0       _NewEvents                 10021ce0 f   Rtk32:Rtkeybrd.obj
 0001:00020cf0       _WaitEvents                10021cf0 f   Rtk32:Rtkeybrd.obj
 0001:00020d50       _DispatchIRQ               10021d50 f   Rtk32:Shareint.obj
 0001:00021100       _ThreadWrapper@4           10022100 f   Rtk32:Rtlthread.obj
 0001:00021390       _MBPostPut                 10022390 f   Rtk32:Mbox.obj
 0001:00021530       _MBPostGet                 10022530 f   Rtk32:Mbox.obj
 0001:000218b0       _OpenSemaphore             100228b0 f   Rtk32:Sema.obj
 0001:000219e0       _InitSemaphore             100229e0 f   Rtk32:Sema.obj
 0001:00022870       _ThreadHandleKiller        10023870 f   Rtk32:Rtwin32.obj
 0001:000228e0       _SemaphoreKiller           100238e0 f   Rtk32:Rtwin32.obj
 0001:00022930       _Win32ThreadEntryCode      10023930 f   Rtk32:Rtwin32.obj
 0001:00022960       _CreateUsersHandle         10023960 f   Rtk32:Rtwin32.obj
 0001:00022980       _DoInit                    10023980 f   Rtk32:Rtwin32.obj
 0001:00022a90       _WTimerKiller              10023a90 f   Rtk32:Rtwin32.obj
 0001:00022af0       _TaskEndHook               10023af0 f   Rtk32:Rtwin32.obj
 0001:00022bc0       _WakeWaiters               10023bc0 f   Rtk32:Rtwin32.obj
 0001:00022cd0       _TicksAtLeastMS            10023cd0 f   Rtk32:Rtwin32.obj
 0001:00022da0       _Bits                      10023da0 f   Rtk32:Rtwin32.obj
 0001:000232e0       _RoundPowerTwo             100242e0 f   Rtk32:Rttrace.obj
 0001:00023a10       _RTK32Idle                 10024a10 f   Drvrt32:Sysrt32.obj
 0001:00023a20       _TlsClean                  10024a20 f   Drvrt32:Sysrt32.obj
 0001:00023e20       _FindSelector              10024e20 f   Drvrt32:Sysrt32.obj
 0001:00023e60       _Error                     10024e60 f   Drvrt32:Sysrt32.obj
 0001:00023f5d       IOPLError                  10024f5d     Drvrt32:Iflag.obj
 0001:00024050       _DummyStartStop            10025050 f   Rtk32:Kernel.obj
 0001:00024050       _NULLEvent                 10025050 f   Rtt32:Conhooks.obj
 0001:00024050       _None                      10025050 f   Rtt32:Screen.obj
 0001:00024144       IRQHandler31               10025144     Drvrt32:Cpu386f.obj
 0001:00024150       IRQHandler30               10025150     Drvrt32:Cpu386f.obj
 0001:0002415c       IRQHandler29               1002515c     Drvrt32:Cpu386f.obj
 0001:00024168       IRQHandler28               10025168     Drvrt32:Cpu386f.obj
 0001:00024174       IRQHandler27               10025174     Drvrt32:Cpu386f.obj
 0001:00024180       IRQHandler26               10025180     Drvrt32:Cpu386f.obj
 0001:0002418c       IRQHandler25               1002518c     Drvrt32:Cpu386f.obj
 0001:00024198       IRQHandler24               10025198     Drvrt32:Cpu386f.obj
 0001:000241a4       IRQHandler23               100251a4     Drvrt32:Cpu386f.obj
 0001:000241b0       IRQHandler22               100251b0     Drvrt32:Cpu386f.obj
 0001:000241bc       IRQHandler21               100251bc     Drvrt32:Cpu386f.obj
 0001:000241c8       IRQHandler20               100251c8     Drvrt32:Cpu386f.obj
 0001:000241d4       IRQHandler19               100251d4     Drvrt32:Cpu386f.obj
 0001:000241e0       IRQHandler18               100251e0     Drvrt32:Cpu386f.obj
 0001:000241ec       IRQHandler17               100251ec     Drvrt32:Cpu386f.obj
 0001:000241f8       IRQHandler16               100251f8     Drvrt32:Cpu386f.obj
 0001:00024204       IRQHandler15               10025204     Drvrt32:Cpu386f.obj
 0001:00024210       IRQHandler14               10025210     Drvrt32:Cpu386f.obj
 0001:0002421c       IRQHandler13               1002521c     Drvrt32:Cpu386f.obj
 0001:00024228       IRQHandler12               10025228     Drvrt32:Cpu386f.obj
 0001:00024234       IRQHandler11               10025234     Drvrt32:Cpu386f.obj
 0001:0002423c       IRQHandler10               1002523c     Drvrt32:Cpu386f.obj
 0001:00024244       IRQHandler09               10025244     Drvrt32:Cpu386f.obj
 0001:0002424c       IRQHandler08               1002524c     Drvrt32:Cpu386f.obj
 0001:00024254       IRQHandler07               10025254     Drvrt32:Cpu386f.obj
 0001:0002425c       IRQHandler06               1002525c     Drvrt32:Cpu386f.obj
 0001:00024264       IRQHandler05               10025264     Drvrt32:Cpu386f.obj
 0001:0002426c       IRQHandler04               1002526c     Drvrt32:Cpu386f.obj
 0001:00024274       IRQHandler03               10025274     Drvrt32:Cpu386f.obj
 0001:0002427c       IRQHandler02               1002527c     Drvrt32:Cpu386f.obj
 0001:00024284       IRQHandler01               10025284     Drvrt32:Cpu386f.obj
 0001:0002428c       IRQHandler00               1002528c     Drvrt32:Cpu386f.obj
 0001:000243be       IRQLIST                    100253be     Drvrt32:Cpu386f.obj
 0001:00024700       _LockHeap                  10025700 f   Drvrt32:Stheap.obj
 0001:00024720       _InitHeap                  10025720 f   Drvrt32:Stheap.obj
 0001:00024770       _UnlockHeap                10025770 f   Drvrt32:Stheap.obj
 0001:00024800       _STHeapCompact             10025800 f   Drvrt32:Stheap.obj
 0001:00024d70       _GetCondEVENT              10025d70 f   Rtt32:Conin.obj
 0001:00024e20       _TranslateToAscii          10025e20 f   Rtt32:Conin.obj
 0001:00024ef0       _NextCondEVENT             10025ef0 f   Rtt32:Conin.obj
 0001:00024fe0       _PutCondEVENT              10025fe0 f   Rtt32:Conin.obj
 0001:00025350       _SetupGraphics             10026350 f   Rtt32:Screen.obj
 0001:000253d0       _Detect                    100263d0 f   Rtt32:Screen.obj
 0001:00025570       _Screen                    10026570 f   Rtt32:Screen.obj
 0001:000257a0       _Host                      100267a0 f   Rtt32:Screen.obj
 0001:00025860       _ShowDigit                 10026860 f   Rtt32:Screen.obj
 0001:00025be0       _BCDToBYTE                 10026be0 f   Rtt32:Cmos.obj
 0001:00025dc0       _CheckMemMap               10026dc0 f   Rtt32:Cmosheap.obj
 0001:00025e10       _Check                     10026e10 f   Rtt32:Cmosheap.obj
 0001:00025ef0       _ParseMemMap               10026ef0 f   Rtt32:Cmosheap.obj
 0001:00025f40       _AddToHeap                 10026f40 f   Rtt32:Cmosheap.obj
 0001:000264e0       _AddPageToHeap             100274e0 f   Rtt32:Rtmapmem.obj
 0001:000266f0       @_RTGetPhysAddress@4       100276f0 f   Rtt32:Rtmapmem.obj
 0001:00026760       @_RTSetPageFlags@4         10027760 f   Rtt32:Rtmapmem.obj
 0001:00026990       _FindSig                   10027990 f   Rtt32:Mp.obj
 0001:000269c0       _FindIn                    100279c0 f   Rtt32:Mp.obj
 0001:00026a10       _MapIOApics                10027a10 f   Rtt32:Mp.obj
 0001:00026a50       _Advance                   10027a50 f   Rtt32:Mp.obj
 0001:00026a70       _MapIOApic                 10027a70 f   Rtt32:Mp.obj
 0001:00026ca0       _ScanMPTable               10027ca0 f   Rtt32:Mp.obj
 0001:00026e20       _LogicalCPUs               10027e20 f   Rtt32:Mp.obj
 0001:00026e70       _GetLeaf0B                 10027e70 f   Rtt32:Mp.obj
 0001:00026f10       _HyperThreads              10027f10 f   Rtt32:Mp.obj
 0001:00026f40       _Cores                     10027f40 f   Rtt32:Mp.obj
 0001:00027010       _HaveApicId                10028010 f   Rtt32:Mp.obj
 0001:00027040       _AddCPU                    10028040 f   Rtt32:Mp.obj
 0001:00027090       _RoundPowerTwo             10028090 f   Rtt32:Mp.obj
 0001:000270b0       _ReorderCPUs               100280b0 f   Rtt32:Mp.obj
 0001:00027280       _InitAPICMode              10028280 f   Rtt32:Mp.obj
 0001:00027560       _NoAPICIRQ                 10028560 f   Rtt32:Mp.obj
 0001:000275a0       _SetPCIIRQ                 100285a0 f   Rtt32:Mp.obj
 0001:00027720       _GetApicIRQMap             10028720 f   Rtt32:Mp.obj
 0001:00027770       _ClearRedTable             10028770 f   Rtt32:Mp.obj
 0001:000277f0       _ProcessIOInt              100287f0 f   Rtt32:Mp.obj
 0001:000278e0       _FindIoApicIndex           100288e0 f   Rtt32:Mp.obj
 0001:00027920       _IsPCI                     10028920 f   Rtt32:Mp.obj
 0001:00027980       _IsLevel                   10028980 f   Rtt32:Mp.obj
 0001:000279b0       _Polarity                  100289b0 f   Rtt32:Mp.obj
 0001:000279e0       _GetPCIDeviceFunc          100289e0 f   Rtt32:Mp.obj
 0001:00027a90       _GetPCIIRQ                 10028a90 f   Rtt32:Mp.obj
 0001:00027b30       _GetRemappedIRQ            10028b30 f   Rtt32:Mp.obj
 0001:00027b50       _GetBridgeIRQ              10028b50 f   Rtt32:Mp.obj
 0001:00027c30       _FindBridge                10028c30 f   Rtt32:Mp.obj
 0001:00027cd0       _IsBridge                  10028cd0 f   Rtt32:Mp.obj
 0001:00027d00       _ShowIRQChanges            10028d00 f   Rtt32:Mp.obj
 0001:00027dd0       _MPDebugHandler            10028dd0 f   Rtt32:Mp.obj
 0001:00027ee0       _Broadcast                 10028ee0 f   Rtt32:Mp.obj
 0001:00028110       __rttMPSetPICMode          10029110 f   Rtt32:Mp.obj
 0001:00028650       _AddEntry                  10029650 f   Rtt32:Mp.obj
 0001:00028a50       _FillIRQStats              10029a50 f   Rtt32:Mp.obj
 0001:00028b00       _SelectIRQ                 10029b00 f   Rtt32:Mp.obj
 0001:00028b70       _MSIIsOn                   10029b70 f   Rtt32:Mp.obj
 0001:00028bb0       _SetupMSI                  10029bb0 f   Rtt32:Mp.obj
 0001:00028e20       _UnDoMSI                   10029e20 f   Rtt32:Mp.obj
 0001:00028eb0       _MSIOff                    10029eb0 f   Rtt32:Mp.obj
 0001:000291a0       _SelectCPU                 1002a1a0 f   Rtt32:Mp.obj
 0001:000293d0       _LocatePCIBIOS             1002a3d0 f   Rtt32:Rttbios.obj
 0001:000294b0       _ProbePCI                  1002a4b0 f   Rtt32:Rttbios.obj
 0001:000294f0       _FindPCIE_MMIO             1002a4f0 f   Rtt32:Rttbios.obj
 0001:00029590       _Search                    1002a590 f   Rtt32:Rttbios.obj
 0001:00029870       _RawReadConfigData         1002a870 f   Rtt32:Rttbios.obj
 0001:0002a500       _UpdateKeyLEDs             1002b500 f   Rtt32:Keybrd.obj
 0001:0002a560       _SendToKeyboard            1002b560 f   Rtt32:Keybrd.obj
 0001:0002a620       _IsLetter                  1002b620 f   Rtt32:Keybrd.obj
 0001:0002a640       _KeyPadValue               1002b640 f   Rtt32:Keybrd.obj
 0001:0002a690       _MakeInternalScanCode      1002b690 f   Rtt32:Keybrd.obj
 0001:0002a6d0       _Translate                 1002b6d0 f   Rtt32:Keybrd.obj
 0001:0002a720       _TranslateChar             1002b720 f   Rtt32:Keybrd.obj
 0001:0002a760       _FindCombined              1002b760 f   Rtt32:Keybrd.obj
 0001:0002a800       _Init                      1002b800 f   Rtt32:Keybrd.obj
 0001:0002a890       _RTT32ISRKeyboard          1002b890 f   Rtt32:Keybrd.obj
 0001:0002a900       _PutCondBYTE               1002b900 f   Rtt32:Keybrd.obj
 0001:0002a990       _GetCondBYTE               1002b990 f   Rtt32:Keybrd.obj
 0001:0002aaca       DummyHook                  1002baca     Rtt32:Rttarget.obj
 0001:0002ac48       BAGetPageAccess            1002bc48     Rtt32:Rttarget.obj
 0001:0002ac90       BASetPageAccess            1002bc90     Rtt32:Rttarget.obj
 0001:0002ad1e       Return                     1002bd1e     Rtt32:Rttarget.obj
 0001:0002ad5a       EvalText                   1002bd5a     Rtt32:Rttarget.obj
 0001:0002add0       __CreateFileA@28           1002bdd0 f   Rtt32:W32lpt.obj
 0001:0002ae30       __WriteFile@20             1002be30 f   Rtt32:W32lpt.obj
 0001:0002aee0       __CreateFileA@28           1002bee0 f   Rtt32:Confiles.obj
 0001:0002af50       __ReadFile@20              1002bf50 f   Rtt32:Confiles.obj
 0001:0002af70       __WriteFile@20             1002bf70 f   Rtt32:Confiles.obj
 0001:0002b130       _AllocObject               1002c130 f   Rtt32:Handles.obj
 0001:0002b1d0       _AllocHandle               1002c1d0 f   Rtt32:Handles.obj
 0001:0002b330       _InternalCloseHandle       1002c330 f   Rtt32:Handles.obj
 0001:0002b470       _InternalGetStdHandle      1002c470 f   Rtt32:Handles.obj
 0001:0002b650       _InitModules               1002c650 f   Rtt32:Loadl.obj
 0001:0002b780       _CallEntryPoint            1002c780 f   Rtt32:Loadl.obj
 0001:0002b7c0       _AllocDLLSlot              1002c7c0 f   Rtt32:Loadl.obj
 0001:0002bb00       _IsSysModuleName           1002cb00 f   Rtt32:Loadl.obj
 0001:0002bbb0       _DLLName                   1002cbb0 f   Rtt32:Loadl.obj
 0001:0002bd00       _LoadDLL                   1002cd00 f   Rtt32:Loadl.obj
 0001:0002be60       _LoadDLM                   1002ce60 f   Rtt32:Loadl.obj
 0001:0002c3d0       _GetMem                    1002d3d0 f   Rtt32:Loadl.obj
 0001:0002c410       _FreeMem                   1002d410 f   Rtt32:Loadl.obj
 0001:0002c440       _LoadDLMImports            1002d440 f   Rtt32:Loadl.obj
 0001:0002c670       _UnloadDLLs                1002d670 f   Rtt32:Loadl.obj
 0001:0002c6b0       _LocateFile                1002d6b0 f   Rtt32:Loadl.obj
 0001:0002c880       _MakeDLMName               1002d880 f   Rtt32:Loadl.obj
 0001:0002ca40       _DisposeDLM                1002da40 f   Rtt32:Loadl.obj
 0001:0002d080       _AddBias                   1002e080 f   Rtt32:Systime.obj
 0001:0002d0b0       _IncSystemTimeMinutes      1002e0b0 f   Rtt32:Systime.obj
 0001:0002d150       _IsLeapYear                1002e150 f   Rtt32:Systime.obj
 0001:0002d180       _DecSystemTimeMinutes      1002e180 f   Rtt32:Systime.obj
 0001:0002d220       _SummerTime                1002e220 f   Rtt32:Systime.obj
 0001:0002d260       _CompareBorder             1002e260 f   Rtt32:Systime.obj
 0001:0002d2d0       _BorderDay                 1002e2d0 f   Rtt32:Systime.obj
 0001:0002d390       _UpdateTime                1002e390 f   Rtt32:Systime.obj
 0001:0002d400       _IncSystemTimeMillisecs    1002e400 f   Rtt32:Systime.obj
 0001:0002dc70       _FindSMI                   1002ec70 f   Rtt32:Smi.obj
 0001:0002dcf0       _FindSig                   1002ecf0 f   Rtt32:Smi.obj
 0001:0002dd30       _FindIn                    1002ed30 f   Rtt32:Smi.obj
 0001:0002dd80       _Advance                   1002ed80 f   Rtt32:Smi.obj
 0001:0002ddd0       _FindCPU                   1002edd0 f   Rtt32:Smi.obj
 0001:0002de11       Dummy                      1002ee11     Rtt32:Tls.obj
 0001:0002de53       ErrorMsg                   1002ee53     Rtt32:Tls.obj
 0001:0002df60       Ring0IDT                   1002ef60     Rtt32:Hltcpl3.obj
 0001:0002df66       Ring0                      1002ef66     Rtt32:Hltcpl3.obj
 0001:0002df82       Fatal                      1002ef82     Rtt32:Hltcpl3.obj
 0001:0002dfbb       H0X                        1002efbb     Rtt32:Hltcpl3.obj
 0001:0002dfc8       H40                        1002efc8     Rtt32:Hltcpl3.obj
 0001:0002dfcc       H41                        1002efcc     Rtt32:Hltcpl3.obj
 0001:0002dfd0       H42                        1002efd0     Rtt32:Hltcpl3.obj
 0001:0002dfd4       H43                        1002efd4     Rtt32:Hltcpl3.obj
 0001:0002dfd8       H44                        1002efd8     Rtt32:Hltcpl3.obj
 0001:0002dfdc       H45                        1002efdc     Rtt32:Hltcpl3.obj
 0001:0002dfe0       H46                        1002efe0     Rtt32:Hltcpl3.obj
 0001:0002dfe4       H47                        1002efe4     Rtt32:Hltcpl3.obj
 0001:0002dfe8       H48                        1002efe8     Rtt32:Hltcpl3.obj
 0001:0002dfec       H49                        1002efec     Rtt32:Hltcpl3.obj
 0001:0002dff0       H4A                        1002eff0     Rtt32:Hltcpl3.obj
 0001:0002dff4       H4B                        1002eff4     Rtt32:Hltcpl3.obj
 0001:0002dff8       H4C                        1002eff8     Rtt32:Hltcpl3.obj
 0001:0002dffc       H4D                        1002effc     Rtt32:Hltcpl3.obj
 0001:0002e000       H4E                        1002f000     Rtt32:Hltcpl3.obj
 0001:0002e004       H4F                        1002f004     Rtt32:Hltcpl3.obj
 0001:0002e008       H50                        1002f008     Rtt32:Hltcpl3.obj
 0001:0002e00c       H51                        1002f00c     Rtt32:Hltcpl3.obj
 0001:0002e010       H52                        1002f010     Rtt32:Hltcpl3.obj
 0001:0002e014       H53                        1002f014     Rtt32:Hltcpl3.obj
 0001:0002e018       H54                        1002f018     Rtt32:Hltcpl3.obj
 0001:0002e01c       H55                        1002f01c     Rtt32:Hltcpl3.obj
 0001:0002e020       H56                        1002f020     Rtt32:Hltcpl3.obj
 0001:0002e024       H57                        1002f024     Rtt32:Hltcpl3.obj
 0001:0002e028       H58                        1002f028     Rtt32:Hltcpl3.obj
 0001:0002e02c       H59                        1002f02c     Rtt32:Hltcpl3.obj
 0001:0002e030       H5A                        1002f030     Rtt32:Hltcpl3.obj
 0001:0002e034       H5B                        1002f034     Rtt32:Hltcpl3.obj
 0001:0002e038       H5C                        1002f038     Rtt32:Hltcpl3.obj
 0001:0002e03c       H5D                        1002f03c     Rtt32:Hltcpl3.obj
 0001:0002e040       H5E                        1002f040     Rtt32:Hltcpl3.obj
 0001:0002e044       H5F                        1002f044     Rtt32:Hltcpl3.obj
 0001:0002e070       H02                        1002f070     Rtt32:Hltcpl3.obj
 0001:0002e074       H60                        1002f074     Rtt32:Hltcpl3.obj
 0001:0002e078       H61                        1002f078     Rtt32:Hltcpl3.obj
 0001:0002e07c       H62                        1002f07c     Rtt32:Hltcpl3.obj
 0001:0002e080       H63                        1002f080     Rtt32:Hltcpl3.obj
 0001:0002e084       H64                        1002f084     Rtt32:Hltcpl3.obj
 0001:0002e088       H65                        1002f088     Rtt32:Hltcpl3.obj
 0001:0002e08c       H66                        1002f08c     Rtt32:Hltcpl3.obj
 0001:0002e090       H67                        1002f090     Rtt32:Hltcpl3.obj
 0001:0002e094       H68                        1002f094     Rtt32:Hltcpl3.obj
 0001:0002e098       H69                        1002f098     Rtt32:Hltcpl3.obj
 0001:0002e09c       H6A                        1002f09c     Rtt32:Hltcpl3.obj
 0001:0002e0a0       H6B                        1002f0a0     Rtt32:Hltcpl3.obj
 0001:0002e0a4       H6C                        1002f0a4     Rtt32:Hltcpl3.obj
 0001:0002e0a8       H6D                        1002f0a8     Rtt32:Hltcpl3.obj
 0001:0002e0ac       H6E                        1002f0ac     Rtt32:Hltcpl3.obj
 0001:0002e0b0       H6F                        1002f0b0     Rtt32:Hltcpl3.obj
 0001:0002e0b4       H70                        1002f0b4     Rtt32:Hltcpl3.obj
 0001:0002e0b8       H71                        1002f0b8     Rtt32:Hltcpl3.obj
 0001:0002e0bc       H72                        1002f0bc     Rtt32:Hltcpl3.obj
 0001:0002e0c0       H73                        1002f0c0     Rtt32:Hltcpl3.obj
 0001:0002e0c4       H74                        1002f0c4     Rtt32:Hltcpl3.obj
 0001:0002e0c8       H75                        1002f0c8     Rtt32:Hltcpl3.obj
 0001:0002e0cf       H76                        1002f0cf     Rtt32:Hltcpl3.obj
 0001:0002e0d6       H77                        1002f0d6     Rtt32:Hltcpl3.obj
 0001:0002e0dd       H78                        1002f0dd     Rtt32:Hltcpl3.obj
 0001:0002e0e4       H79                        1002f0e4     Rtt32:Hltcpl3.obj
 0001:0002e0eb       H7A                        1002f0eb     Rtt32:Hltcpl3.obj
 0001:0002e0f2       H7B                        1002f0f2     Rtt32:Hltcpl3.obj
 0001:0002e0f9       H7C                        1002f0f9     Rtt32:Hltcpl3.obj
 0001:0002e100       H7D                        1002f100     Rtt32:Hltcpl3.obj
 0001:0002e107       H7E                        1002f107     Rtt32:Hltcpl3.obj
 0001:0002e10e       H7F                        1002f10e     Rtt32:Hltcpl3.obj
 0001:0002e115       HE0                        1002f115     Rtt32:Hltcpl3.obj
 0001:0002e11c       HE1                        1002f11c     Rtt32:Hltcpl3.obj
 0001:0002e123       HE2                        1002f123     Rtt32:Hltcpl3.obj
 0001:0002e12a       HE3                        1002f12a     Rtt32:Hltcpl3.obj
 0001:0002e131       HE4                        1002f131     Rtt32:Hltcpl3.obj
 0001:0002e138       HE5                        1002f138     Rtt32:Hltcpl3.obj
 0001:0002e13f       HE6                        1002f13f     Rtt32:Hltcpl3.obj
 0001:0002e146       HE7                        1002f146     Rtt32:Hltcpl3.obj
 0001:0002e14d       HE8                        1002f14d     Rtt32:Hltcpl3.obj
 0001:0002e154       HE9                        1002f154     Rtt32:Hltcpl3.obj
 0001:0002e15b       HEA                        1002f15b     Rtt32:Hltcpl3.obj
 0001:0002e162       HEB                        1002f162     Rtt32:Hltcpl3.obj
 0001:0002e169       HEC                        1002f169     Rtt32:Hltcpl3.obj
 0001:0002e170       HED                        1002f170     Rtt32:Hltcpl3.obj
 0001:0002e177       HEE                        1002f177     Rtt32:Hltcpl3.obj
 0001:0002e17e       HEF                        1002f17e     Rtt32:Hltcpl3.obj
 0001:0002e185       HF0                        1002f185     Rtt32:Hltcpl3.obj
 0001:0002e18c       HF1                        1002f18c     Rtt32:Hltcpl3.obj
 0001:0002e193       HF2                        1002f193     Rtt32:Hltcpl3.obj
 0001:0002e19a       HF3                        1002f19a     Rtt32:Hltcpl3.obj
 0001:0002e1a1       HF4                        1002f1a1     Rtt32:Hltcpl3.obj
 0001:0002e1a8       HF5                        1002f1a8     Rtt32:Hltcpl3.obj
 0001:0002e1af       HF6                        1002f1af     Rtt32:Hltcpl3.obj
 0001:0002e1b6       HF7                        1002f1b6     Rtt32:Hltcpl3.obj
 0001:0002e1bd       HF8                        1002f1bd     Rtt32:Hltcpl3.obj
 0001:0002e1c4       HF9                        1002f1c4     Rtt32:Hltcpl3.obj
 0001:0002e1cb       HFA                        1002f1cb     Rtt32:Hltcpl3.obj
 0001:0002e1d2       HFB                        1002f1d2     Rtt32:Hltcpl3.obj
 0001:0002e1d9       HFC                        1002f1d9     Rtt32:Hltcpl3.obj
 0001:0002e1e0       HFD                        1002f1e0     Rtt32:Hltcpl3.obj
 0001:0002e1e7       HFE                        1002f1e7     Rtt32:Hltcpl3.obj
 0001:0002e1ee       HFF                        1002f1ee     Rtt32:Hltcpl3.obj
 0001:0002e270       LockName                   1002f270     Rtt32:I8059.obj
 0001:0002e2c5       UnMASKTable                1002f2c5     Rtt32:I8059.obj
 0001:0002e36d       MASKTable                  1002f36d     Rtt32:I8059.obj
 0001:0002e7a0       _VmGetIsaIRQ               1002f7a0 f   Rtt32:Vmstubs.obj
 0001:0002e7b0       _VmGetPCIIRQ               1002f7b0 f   Rtt32:Vmstubs.obj
 0001:0002e9c0       _Init                      1002f9c0 f   Rtt32:Conout.obj
 0001:0002ea20       _NULLConsoleOutFilter      1002fa20 f   Rtt32:Conout.obj
 0001:0002f040       @SetAccess@4               10030040 f   Rtt32:Mapping.obj
 0001:0002f490       _AllocNewPage              10030490 f   Rtt32:Mapping.obj
 0001:0002f600       _AllocHeapPage             10030600 f   Rtt32:Mapping.obj
 0001:0002f760       _ShutDown                  10030760 f   RtfilesX:Drvusb.obj
 0001:0002f760       _NoPagesToFree             10030760 f   Rtt32:Valloc.obj
 0001:0002f9d0       _FixedReserve              100309d0 f   Rtt32:Valloc.obj
 0001:0002fa20       _FixedCommit               10030a20 f   Rtt32:Valloc.obj
 0001:0002fad0       _VirtualReserve            10030ad0 f   Rtt32:Valloc.obj
 0001:0002fc00       _FreeSomePages             10030c00 f   Rtt32:Valloc.obj
 0001:0002fc50       _VirtualCommit             10030c50 f   Rtt32:Valloc.obj
 0001:000305df       HaltCPL0                   100315df     Rtt32:Mpasm.obj
 0001:000307c0       _PoorMansitoa              100317c0 f   Rtt32:Wsprintf.obj
 0001:00030810       _digits                    10031810 f   Rtusb:Xhci.obj
 0001:00030810       _digits                    10031810 f   Rtt32:Wsprintf.obj
 0001:00030c50       _WalkCallBack              10031c50 f   Rtt32:Mpacpi.obj
 0001:00030ce0       _ParseMADT                 10031ce0 f   Rtt32:Mpacpi.obj
 0001:00030dd0       _IoApicId                  10031dd0 f   Rtt32:Mpacpi.obj
 0001:00030df0       _ExecMethodInt             10031df0 f   Rtt32:Mpacpi.obj
 0001:00030e30       _FindPCIBusNumbers         10031e30 f   Rtt32:Mpacpi.obj
 0001:00030ff0       _FindBusNumber             10031ff0 f   Rtt32:Mpacpi.obj
 0001:00031040       _GetParentPCIBus           10032040 f   Rtt32:Mpacpi.obj
 0001:00031090       _ScanPCI                   10032090 f   Rtt32:Mpacpi.obj
 0001:00031260       _FindIRQ                   10032260 f   Rtt32:Mpacpi.obj
 0001:00031360       _ParsePRT                  10032360 f   Rtt32:Mpacpi.obj
 0001:00031460       _FindResourceIRQ           10032460 f   Rtt32:Mpacpi.obj
 0001:000317a0       _FindRSDPSig               100327a0 f   Rtt32:Acpi.obj
 0001:00031800       _FindSig                   10032800 f   Rtt32:Acpi.obj
 0001:000318a0       _GetKind                   100328a0 f   Rtt32:Pport.obj
 0001:00031a40       _WaitNotBusy               10032a40 f   Rtt32:Pport.obj
 0001:00031b20       _FileTypeByName            10032b20 f   Rtt32:Files.obj
 0001:00031d30       _FDefaultSystem            10032d30 f   Rtt32:Files.obj
 0001:00031d70       _FSystem                   10032d70 f   Rtt32:Files.obj
 0001:00031da0       _FindDrive                 10032da0 f   Rtt32:Files.obj
 0001:00031de0       _FindDisk                  10032de0 f   Rtt32:Files.obj
 0001:00031e20       _stricmpn                  10032e20 f   Rtt32:Files.obj
 0001:00031f30       _AllocTypes                10032f30 f   Rtt32:Files.obj
 0001:00032280       @alloc@8                   10033280 f   Rtt32:Heap.obj
 0001:00032430       @AddFreeBlock@12           10033430 f   Rtt32:Heap.obj
 0001:000324d0       @SameSeg@12                100334d0 f   Rtt32:Heap.obj
 0001:00032520       @SplitBlock@12             10033520 f   Rtt32:Heap.obj
 0001:000325c0       @FindBlockFirstFit@8       100335c0 f   Rtt32:Heap.obj
 0001:000325f0       @FindBlockBestFit@8        100335f0 f   Rtt32:Heap.obj
 0001:00032640       @AddSegment@16             10033640 f   Rtt32:Heap.obj
 0001:00032750       @RoundPowerTwo@4           10033750 f   Rtt32:Heap.obj
 0001:000327e0       @dealloc@8                 100337e0 f   Rtt32:Heap.obj
 0001:000328e0       @InternalRealloc@12        100338e0 f   Rtt32:Heap.obj
 0001:00032980       @InternalHeapSize@4        10033980 f   Rtt32:Heap.obj
 0001:00032bba       ReturnCall                 10033bba     Rtt32:Fdisp.obj
 0001:00032d60       _UnicodeNeedsUtf8Bytes     10033d60 f   Rtt32:Wchar.obj
 0001:00032d80       _UnicodeToUtf8             10033d80 f   Rtt32:Wchar.obj
 0001:00032de0       _WCharToChar               10033de0 f   Rtt32:Wchar.obj
 0001:00032fe0       _Utf8CharWidth             10033fe0 f   Rtt32:Wchar.obj
 0001:00033010       _Utf8ToUnicode             10034010 f   Rtt32:Wchar.obj
 0001:000330f0       _UtoA                      100340f0 f   Rtt32:Wchar.obj
 0001:000331d0       _AtoU                      100341d0 f   Rtt32:Wchar.obj
 0001:00033d40       _CountChars                10034d40 f   Rtt32:Getdatef.obj
 0001:00033d60       _FormatInt                 10034d60 f   Rtt32:Getdatef.obj
 0001:00033d90       _ShowDigit                 10034d90 f   Rtt32:Getdatef.obj
 0001:00034480       _AcpiNsResolveReferences   10035480 f   Acpica:nsxfeval.obj
 0001:00034730       _AcpiTbLoadNamespace       10035730 f   Acpica:tbxfload.obj
 0001:000351d0       _AcpiRsValidateParameters  100361d0 f   Acpica:rsxface.obj
 0001:00035310       _AcpiUtCreateMutex         10036310 f   Acpica:utmutex.obj
 0001:00035360       _AcpiUtDeleteMutex         10036360 f   Acpica:utmutex.obj
 0001:00035660       _AcpiUtTerminate           10036660 f   Acpica:utinit.obj
 0001:00035670       _AcpiUtFreeGpeLists        10036670 f   Acpica:utinit.obj
 0001:00036460       _AcpiUtUpdateRefCount      10037460 f   Acpica:utdelete.obj
 0001:00036570       _AcpiUtDeleteInternalObj   10037570 f   Acpica:utdelete.obj
 0001:00036a30       _AcpiUtCopyIsimpleToEsimple 10037a30 f   Acpica:utcopy.obj
 0001:00036bb0       _AcpiUtCopyIpackageToEpackage 10037bb0 f   Acpica:utcopy.obj
 0001:00036c20       _AcpiUtCopyIelementToEelement 10037c20 f   Acpica:utcopy.obj
 0001:00036cf0       _AcpiUtCopyEsimpleToIsimple 10037cf0 f   Acpica:utcopy.obj
 0001:00036e90       _AcpiUtCopyEpackageToIpackage 10037e90 f   Acpica:utcopy.obj
 0001:00036fb0       _AcpiUtCopySimpleObject    10037fb0 f   Acpica:utcopy.obj
 0001:00037130       _AcpiUtCopyIpackageToIpackage 10038130 f   Acpica:utcopy.obj
 0001:000371b0       _AcpiUtCopyIelementToIelement 100381b0 f   Acpica:utcopy.obj
 0001:00037550       _AcpiUtGetSimpleObjectSize 10038550 f   Acpica:utobject.obj
 0001:00037690       _AcpiUtGetPackageObjectSize 10038690 f   Acpica:utobject.obj
 0001:000376f0       _AcpiUtGetElementLength    100386f0 f   Acpica:utobject.obj
 0001:00037a10       _AcpiNsExecModuleCode      10038a10 f   Acpica:nseval.obj
 0001:00039190       _AcpiEvFixedEventInitialize 1003a190 f   Acpica:evevent.obj
 0001:00039270       _AcpiEvFixedEventDispatch  1003a270 f   Acpica:evevent.obj
 0001:000395c0       _AcpiEvInstallHandler      1003a5c0 f   Acpica:evhandler.obj
 0001:00039940       _AcpiTbGetRootTableEntry   1003a940 f   Acpica:tbutils.obj
 0001:0003a100       _AcpiEvRegRun              1003b100 f   Acpica:evregion.obj
 0001:0003a160       _AcpiEvOrphanEcRegMethod   1003b160 f   Acpica:evregion.obj
 0001:0003ac00       _AcpiTbCompareTables       1003bc00 f   Acpica:tbinstal.obj
 0001:0003b180       _AcpiPsGetNextPackageLength 1003c180 f   Acpica:psargs.obj
 0001:0003b7c0       _AcpiPsGetNextField        1003c7c0 f   Acpica:psargs.obj
 0001:0003c1c0       _AcpiRsStrcpy              1003d1c0 f   Acpica:rsutils.obj
 0001:0003c370       _AcpiEvNotifyDispatch      1003d370 f   Acpica:evmisc.obj
 0001:0003cb30       _AcpiExLinkMutex           1003db30 f   Acpica:exmutex.obj
 0001:0003cf50       _AcpiEvInstallGpeBlock     1003df50 f   Acpica:evgpeblk.obj
 0001:0003cfe0       _AcpiEvCreateGpeInfoBlocks 1003dfe0 f   Acpica:evgpeblk.obj
 0001:0003d590       _AcpiNsCheckReference      1003e590 f   Acpica:nspredef.obj
 0001:0003d5e0       _AcpiNsGetBitmappedType    1003e5e0 f   Acpica:nspredef.obj
 0001:0003da10       _AcpiPsStartTrace          1003ea10 f   Acpica:psxface.obj
 0001:0003da90       _AcpiPsStopTrace           1003ea90 f   Acpica:psxface.obj
 0001:0003db00       _AcpiPsUpdateParameterList 1003eb00 f   Acpica:psxface.obj
 0001:0003e3d0       _AcpiNsSearchParentTree    1003f3d0 f   Acpica:nssearch.obj
 0001:0003e7c0       _AcpiEvGlobalLockHandler   1003f7c0 f   Acpica:evglock.obj
 0001:0003ea50       _AcpiEvSciXruptHandler     1003fa50 f   Acpica:evsci.obj
 0001:0003efd0       _AcpiHwReadMultiple        1003ffd0 f   Acpica:hwregs.obj
 0001:0003f030       _AcpiHwWriteMultiple       10040030 f   Acpica:hwregs.obj
 0001:0003f2b0       _AcpiEvIsPciRootBridge     100402b0 f   Acpica:evrgnini.obj
 0001:0003f9f0       _AcpiTbFixString           100409f0 f   Acpica:tbprint.obj
 0001:0003fa20       _AcpiTbCleanupTableHeader  10040a20 f   Acpica:tbprint.obj
 0001:0003fbf0       _AcpiTbConvertFadt         10040bf0 f   Acpica:tbfadt.obj
 0001:0003fe30       _AcpiTbInitGenericAddress  10040e30 f   Acpica:tbfadt.obj
 0001:0003fea0       _AcpiTbSelectAddress       10040ea0 f   Acpica:tbfadt.obj
 0001:0003ff20       _AcpiTbSetupFadtRegisters  10040f20 f   Acpica:tbfadt.obj
 0001:000400a0       _AcpiHwValidateIoRequest   100410a0 f   Acpica:hwvalid.obj
 0001:00040220       _AcpiDsExecuteArguments    10041220 f   Acpica:dsargs.obj
 0001:00040520       _AcpiDsInitOneObject       10041520 f   Acpica:dsinit.obj
 0001:000409e0       _AcpiDsDetectNamedOpcodes  100419e0 f   Acpica:dsmethod.obj
 0001:00040c30       _AcpiDsCreateMethodMutex   10041c30 f   Acpica:dsmethod.obj
 0001:00041bb0       _AcpiDsResultStackPush     10042bb0 f   Acpica:dswstate.obj
 0001:00041c20       _AcpiDsResultStackPop      10042c20 f   Acpica:dswstate.obj
 0001:00042300       _AcpiPsGetArguments        10043300 f   Acpica:psloop.obj
 0001:000425b0       _AcpiPsLinkModuleCode      100435b0 f   Acpica:psloop.obj
 0001:00042f90       _AcpiHwGpeEnableWrite      10043f90 f   Acpica:hwgpe.obj
 0001:00043470       _AcpiEvAsynchExecuteGpeMethod 10044470 f   Acpica:evgpe.obj
 0001:00043520       _AcpiEvAsynchEnableGpe     10044520 f   Acpica:evgpe.obj
 0001:00043580       _AcpiNsMatchComplexRepair  10044580 f   Acpica:nsrepair2.obj
 0001:000435b0       _AcpiNsRepair_ALR          100445b0 f   Acpica:nsrepair2.obj
 0001:000435e0       _AcpiNsRepair_FDE          100445e0 f   Acpica:nsrepair2.obj
 0001:00043690       _AcpiNsRepair_CID          10044690 f   Acpica:nsrepair2.obj
 0001:00043710       _AcpiNsRepair_CST          10044710 f   Acpica:nsrepair2.obj
 0001:000437d0       _AcpiNsRepair_HID          100447d0 f   Acpica:nsrepair2.obj
 0001:00043880       _AcpiNsRepair_PRT          10044880 f   Acpica:nsrepair2.obj
 0001:00043910       _AcpiNsRepair_PSS          10044910 f   Acpica:nsrepair2.obj
 0001:00043990       _AcpiNsRepair_TSS          10044990 f   Acpica:nsrepair2.obj
 0001:000439e0       _AcpiNsCheckSortedList     100449e0 f   Acpica:nsrepair2.obj
 0001:00043ad0       _AcpiNsSortList            10044ad0 f   Acpica:nsrepair2.obj
 0001:00043b90       _AcpiNsRemoveElement       10044b90 f   Acpica:nsrepair2.obj
 0001:00043f30       _AcpiNsCheckPackageList    10044f30 f   Acpica:nsprepkg.obj
 0001:00044170       _AcpiNsCheckPackageElements 10045170 f   Acpica:nsprepkg.obj
 0001:000443d0       _AcpiNsMatchSimpleRepair   100453d0 f   Acpica:nsrepair.obj
 0001:000446e0       _AcpiExGetSerialAccessLength 100456e0 f   Acpica:exfield.obj
 0001:00044b00       _AcpiHwBuildPciList        10045b00 f   Acpica:hwpci.obj
 0001:00044b80       _AcpiHwProcessPciList      10045b80 f   Acpica:hwpci.obj
 0001:00044bd0       _AcpiHwDeletePciList       10045bd0 f   Acpica:hwpci.obj
 0001:00044bf0       _AcpiHwGetPciDeviceInfo    10045bf0 f   Acpica:hwpci.obj
 0001:00044ea0       _AcpiDsInitBufferField     10045ea0 f   Acpica:dsopcode.obj
 0001:00045590       _AcpiDsMethodDataSetValue  10046590 f   Acpica:dsmthdat.obj
 0001:000457c0       _AcpiDsMethodDataDeleteValue 100467c0 f   Acpica:dsmthdat.obj
 0001:00045890       _AcpiExResolveObjectToValue 10046890 f   Acpica:exresolv.obj
 0001:00045f90       _AcpiDsBuildInternalObject 10046f90 f   Acpica:dsobject.obj
 0001:00046670       _AcpiExAllocateNameString  10047670 f   Acpica:exnames.obj
 0001:00046710       _AcpiExNameSegment         10047710 f   Acpica:exnames.obj
 0001:00046f70       _AcpiPsGetAmlOpcode        10047f70 f   Acpica:psobject.obj
 0001:00047d20       _AcpiRsCountSetBits        10048d20 f   Acpica:rscalc.obj
 0001:00047d40       _AcpiRsStreamOptionLength  10048d40 f   Acpica:rscalc.obj
 0001:00048260       _AcpiExSetupRegion         10049260 f   Acpica:exfldio.obj
 0001:000484e0       _AcpiExFieldDatumIo        100494e0 f   Acpica:exfldio.obj
 0001:000486a0       _AcpiExRegisterOverflow    100496a0 f   Acpica:exfldio.obj
 0001:00049140       _AcpiExCheckObjectType     1004a140 f   Acpica:exresop.obj
 0001:00049200       _AcpiExDecodeFieldAccess   1004a200 f   Acpica:exprep.obj
 0001:00049790       _AcpiExStoreObjectToIndex  1004a790 f   Acpica:exstore.obj
 0001:000499f0       _AcpiExStoreDirectToNode   1004a9f0 f   Acpica:exstore.obj
 0001:0004a690       _AcpiDsGetFieldNames       1004b690 f   Acpica:dsfield.obj
 0001:0004ae00       _AcpiExDoMatch             1004be00 f   Acpica:exoparg6.obj
 0001:0004c7d0       _AcpiExConvertToAscii      1004d7d0 f   Acpica:exconvrt.obj
 0001:0004d980       _AcpiExAddTable            1004e980 f   Acpica:exconfig.obj
 0001:0004dc60       _AcpiExRegionRead          1004ec60 f   Acpica:exconfig.obj
 0001:0004e7e0       _DefaultUnhandledHandler@4 1004f7e0 f   Rtt32:Except.obj
 0001:0004eaa0       _XHandlerOfRaise           1004faa0 f   Rtt32:Except.obj
 0001:0004f5b0       _TakeEHCIOwnership         100505b0 f   Usbinit.obj
 0001:0004f6c0       _IsPCIDevice               100506c0 f   Usbinit.obj
 0001:0004f730       _GetHCResources            10050730 f   Usbinit.obj
 0001:0004f923       ?dllmain_crt_dispatch@@YGHQAUHINSTANCE__@@KQAX@Z 10050923 f   Libcmt:dll_dllmain.obj
 0001:0004f976       ?dllmain_crt_process_attach@@YAHQAUHINSTANCE__@@QAX@Z 10050976 f   Libcmt:dll_dllmain.obj
 0001:0004fa88       ?dllmain_crt_process_detach@@YAH_N@Z 10050a88 f   Libcmt:dll_dllmain.obj
 0001:0004fb05       ?dllmain_dispatch@@YAHQAUHINSTANCE__@@KQAX@Z 10050b05 f   Libcmt:dll_dllmain.obj
 0001:0004fc01       ?dllmain_raw@@YGHQAUHINSTANCE__@@KQAX@Z 10050c01 f   Libcmt:dll_dllmain.obj
 0001:0004fc4e       ?find_pe_section@@YAPAU_IMAGE_SECTION_HEADER@@QAEI@Z 10050c4e f   Libcmt:utility.obj
 0001:0004ff90       $$000000                   10050f90     Libcmt:ulldiv.obj
 0001:00050000       $$000000                   10051000     Libcmt:ullrem.obj
 0001:00050080       $$000000                   10051080     Libcmt:ullshr.obj
 0001:000500a0       $$000000                   100510a0     Libcmt:llshl.obj
 0001:000500c0       $$000000                   100510c0     Libcmt:llmul.obj
 0001:00050350       $$000000                   10051350     Libcmt:_sehprolg4_.obj
 0001:00050680       $$000000                   10051680     libvcruntime:strchr.obj
 0001:000507b0       $$000000                   100517b0     libvcruntime:strrchr.obj
 0001:000508f0       $$000000                   100518f0     libvcruntime:memmove.obj
 0001:00050b54       TrailingUpVec              10051b54     libvcruntime:memmove.obj
 0001:00050c00       TrailingDownVec            10051c00     libvcruntime:memmove.obj
 0001:00050e70       $$000000                   10051e70     libvcruntime:strstr.obj
 0001:000510e0       _ValidateLocalCookies      100520e0 f   libvcruntime:_chandler4_.obj
 0001:00051310       $$000000                   10052310     libvcruntime:memset.obj
 0001:00051470       $$000000                   10052470     libvcruntime:_exsup4_.obj
 0001:00051500       __unwind_handler4          10052500 f   libvcruntime:_exsup4_.obj
 0001:00051789       ?try_get_function@@YAPAXW4function_id@?A0x89697e75@@QBDQBW4module_id@2@2@Z 10052789 f   libvcruntime:winapi_downlevel.obj
 0001:00051829       ?try_get_module@@YAPAUHINSTANCE__@@W4module_id@?A0x89697e75@@@Z 10052829 f   libvcruntime:winapi_downlevel.obj
 0001:00051a70       $$000000                   10052a70     libvcruntime:_exsup_.obj
 0001:00051a90       __unwind_handler           10052a90 f   libvcruntime:_exsup_.obj
 0001:00051ba7       ??$common_vsprintf@Vstandard_base@__crt_stdio_output@@D@@YAH_KQADIQBDQAU__crt_locale_pointers@@1@Z 10052ba7 f   libucrt:output.obj
 0001:000522df       $LN54                      100532df     libucrt:output.obj
 0001:000527f9       $LN19                      100537f9     libucrt:output.obj
 0001:00052e77       ??$?RV<lambda_03b1d95aef87969028cfba75ccab2455>@@AAV<lambda_6e4b09c48022b2350581041d5f6b0c4c>@@V<lambda_22bdf7517842c4b3e53723af5aa32b9e>@@@?$__crt_seh_guarded_call@X@@QAEX$$QAV<lambda_03b1d95aef87969028cfba75ccab2455>@@AAV<lambda_6e4b09c48022b2350581041d5f6b0c4c>@@$$QAV<lambda_22bdf7517842c4b3e53723af5aa32b9e>@@@Z 10053e77 f   libucrt:exit.obj
 0001:00052eba       ??R<lambda_6e4b09c48022b2350581041d5f6b0c4c>@@QBE@XZ 10053eba f   libucrt:exit.obj
 0001:00052f96       ?atexit_exception_filter@@YAHK@Z 10053f96 f   libucrt:exit.obj
 0001:00052fa9       ?common_exit@@YAXHW4_crt_exit_cleanup_mode@@W4_crt_exit_return_mode@@@Z 10053fa9 f   libucrt:exit.obj
 0001:0005300f       ?exit_or_terminate_process@@YAXI@Z 1005400f f   libucrt:exit.obj
 0001:00053051       ?is_managed_app@@YA_NXZ    10054051 f   libucrt:exit.obj
 0001:00053095       ?try_cor_exit_process@@YAXI@Z 10054095 f   libucrt:exit.obj
 0001:00053150       $$000000                   10054150     libucrt:strpbrk.obj
 0001:00053190       $$000000                   10054190     libucrt:strncpy.obj
 0001:000532b4       ??$thread_start@P6GIPAX@Z@@YGKQAX@Z 100542b4 f   libucrt:thread.obj
 0001:00053332       ??1?$__crt_unique_heap_ptr@U__acrt_thread_parameter@@Uthread_parameter_free_policy@?A0x4e93fcdd@@@@QAE@XZ 10054332 f   libucrt:thread.obj
 0001:00053369       ?common_end_thread@@YAXI@Z 10054369 f   libucrt:thread.obj
 0001:000533c0       ?create_thread_parameter@@YAPAU__acrt_thread_parameter@@QAX0@Z 100543c0 f   libucrt:thread.obj
 0001:000534b0       ?shortsort@@YAXPAD0IP6AHPBX1@Z@Z 100544b0 f   libucrt:qsort.obj
 0001:00053550       ?swap@@YAXPAD0I@Z          10054550 f   libucrt:qsort.obj
 0001:00053b56       ??$common_configure_argv@D@@YAHW4_crt_argv_mode@@@Z 10054b56 f   libucrt:argv_parsing.obj
 0001:00053c8c       ??$parse_command_line@D@@YAXPADPAPAD0PAI2@Z 10054c8c f   libucrt:argv_parsing.obj
 0001:00053e5b       ??$common_initialize_environment_nolock@D@@YAHXZ 10054e5b f   libucrt:environment_initialization.obj
 0001:00053eb4       ??$create_environment@D@@YAQAPADQAD@Z 10054eb4 f   libucrt:environment_initialization.obj
 0001:00053f85       ??$free_environment@D@@YAXQAPAD@Z 10054f85 f   libucrt:environment_initialization.obj
 0001:00053f85       ??$free_environment@_W@@YAXQAPA_W@Z 10054f85 f   libucrt:environment_initialization.obj
 0001:00053ff4       ??$uninitialize_environment_internal@D@@YAXAAPAPAD@Z 10054ff4 f   libucrt:environment_initialization.obj
 0001:0005400f       ??$uninitialize_environment_internal@_W@@YAXAAPAPA_W@Z 1005500f f   libucrt:environment_initialization.obj
 0001:00054066       ??$?RV<lambda_69a2805e680e0e292e8ba93315fe43a8>@@AAV<lambda_f03950bc5685219e0bcd2087efbe011e>@@V<lambda_03fcd07e894ec930e3f35da366ca99d6>@@@?$__crt_seh_guarded_call@H@@QAEH$$QAV<lambda_69a2805e680e0e292e8ba93315fe43a8>@@AAV<lambda_f03950bc5685219e0bcd2087efbe011e>@@$$QAV<lambda_03fcd07e894ec930e3f35da366ca99d6>@@@Z 10055066 f   libucrt:onexit.obj
 0001:000540b7       ??$?RV<lambda_7ac4055421038abea736e08bd20712a4>@@AAV<lambda_a10e4b102d4a2c3aac6f4f48bbdf488f>@@V<lambda_1da61822885009acd1bf848af4f9644b>@@@?$__crt_seh_guarded_call@H@@QAEH$$QAV<lambda_7ac4055421038abea736e08bd20712a4>@@AAV<lambda_a10e4b102d4a2c3aac6f4f48bbdf488f>@@$$QAV<lambda_1da61822885009acd1bf848af4f9644b>@@@Z 100550b7 f   libucrt:onexit.obj
 0001:00054127       ??R<lambda_a10e4b102d4a2c3aac6f4f48bbdf488f>@@QBEHXZ 10055127 f   libucrt:onexit.obj
 0001:00054268       ??R<lambda_f03950bc5685219e0bcd2087efbe011e>@@QBEHXZ 10055268 f   libucrt:onexit.obj
 0001:0005443d       _initialize_global_variables 1005543d f   libucrt:initialization.obj
 0001:0005444f       _initialize_c              1005544f f   libucrt:initialization.obj
 0001:00054469       _uninitialize_environment  10055469 f   libucrt:initialization.obj
 0001:00054471       _initialize_pointers       10055471 f   libucrt:initialization.obj
 0001:000544ae       _uninitialize_vcruntime    100554ae f   libucrt:initialization.obj
 0001:000544b7       _uninitialize_allocated_memory 100554b7 f   libucrt:initialization.obj
 0001:0005451b       ??R<lambda_af42a3ee9806e9a7305d451646e05244>@@QBEXAAPAU__crt_multibyte_data@@@Z 1005551b f   libucrt:initialization.obj
 0001:00054c16       ??$common_tox_l@$1?internal_isupper_l@@YA_NHQAU__crt_locale_pointers@@@Z$1?internal_map_lower@@YAHH0@Z@@YAHHKQAU__crt_locale_pointers@@@Z 10055c16 f   libucrt:tolower_toupper.obj
 0001:00054d60       ?internal_isupper_l@@YA_NHQAU__crt_locale_pointers@@@Z 10055d60 f   libucrt:tolower_toupper.obj
 0001:000553b9       ??$?RV<lambda_15ade71b0218206bbe3333a0c9b79046>@@AAV<lambda_da44e0f8b0f19ba52fefafb335991732>@@V<lambda_207f2d024fc103971653565357d6cd41>@@@?$__crt_seh_guarded_call@X@@QAEX$$QAV<lambda_15ade71b0218206bbe3333a0c9b79046>@@AAV<lambda_da44e0f8b0f19ba52fefafb335991732>@@$$QAV<lambda_207f2d024fc103971653565357d6cd41>@@@Z 100563b9 f   libucrt:per_thread_data.obj
 0001:00055401       ??$?RV<lambda_38edbb1296d33220d7e4dd0ed76b244a>@@AAV<lambda_5ce1d447e08cb34b2473517608e21441>@@V<lambda_fb385d3da700c9147fc39e65dd577a8c>@@@?$__crt_seh_guarded_call@X@@QAEX$$QAV<lambda_38edbb1296d33220d7e4dd0ed76b244a>@@AAV<lambda_5ce1d447e08cb34b2473517608e21441>@@$$QAV<lambda_fb385d3da700c9147fc39e65dd577a8c>@@@Z 10056401 f   libucrt:per_thread_data.obj
 0001:00055462       ??$?RV<lambda_6affb1475c98b40b75cdec977db92e3c>@@AAV<lambda_b8d4b9c228a6ecc3f80208dbb4b4a104>@@V<lambda_608742c3c92a14382c1684fc64f96c88>@@@?$__crt_seh_guarded_call@X@@QAEX$$QAV<lambda_6affb1475c98b40b75cdec977db92e3c>@@AAV<lambda_b8d4b9c228a6ecc3f80208dbb4b4a104>@@$$QAV<lambda_608742c3c92a14382c1684fc64f96c88>@@@Z 10056462 f   libucrt:per_thread_data.obj
 0001:000554ad       ??$?RV<lambda_a7e850c220f1c8d1e6efeecdedd162c6>@@AAV<lambda_46720907175c18b6c9d2717bc0d2d362>@@V<lambda_9048902d66e8d99359bc9897bbb930a8>@@@?$__crt_seh_guarded_call@X@@QAEX$$QAV<lambda_a7e850c220f1c8d1e6efeecdedd162c6>@@AAV<lambda_46720907175c18b6c9d2717bc0d2d362>@@$$QAV<lambda_9048902d66e8d99359bc9897bbb930a8>@@@Z 100564ad f   libucrt:per_thread_data.obj
 0001:000554fd       ?construct_ptd@@YAXQAU__acrt_ptd@@QAPAU__crt_locale_data@@@Z 100564fd f   libucrt:per_thread_data.obj
 0001:00055598       ?destroy_fls@@YGXPAX@Z     10056598 f   libucrt:per_thread_data.obj
 0001:000555b9       ?destroy_ptd@@YAXQAU__acrt_ptd@@@Z 100565b9 f   libucrt:per_thread_data.obj
 0001:00055688       ?replace_current_thread_locale_nolock@@YAXQAU__acrt_ptd@@QAU__crt_locale_data@@@Z 10056688 f   libucrt:per_thread_data.obj
 0001:00055a24       ?fp_format_a@@YAHQBNPADIQADIH_NIQAU__crt_locale_pointers@@@Z 10056a24 f   libucrt:cvt.obj
 0001:00055d3c       ?fp_format_e@@YAHQBNQADI1IH_NIQAU__crt_locale_pointers@@@Z 10056d3c f   libucrt:cvt.obj
 0001:00055dd7       ?fp_format_e_internal@@YAHQADIH_NIQAU_strflt@@1QAU__crt_locale_pointers@@@Z 10056dd7 f   libucrt:cvt.obj
 0001:00055f21       ?fp_format_f@@YAHQBNQADI1IHQAU__crt_locale_pointers@@@Z 10056f21 f   libucrt:cvt.obj
 0001:00055fae       ?fp_format_f_internal@@YAHQADIHQAU_strflt@@_NQAU__crt_locale_pointers@@@Z 10056fae f   libucrt:cvt.obj
 0001:00056085       ?fp_format_g@@YAHQBNQADI1IH_NIQAU__crt_locale_pointers@@@Z 10057085 f   libucrt:cvt.obj
 0001:00056148       ?fp_format_nan_or_infinity@@YAHW4__acrt_fp_class@@_NPADI1@Z 10057148 f   libucrt:cvt.obj
 0001:00056240       ?shift_bytes@@YAXQADI0H@Z  10057240 f   libucrt:cvt.obj
 0001:00056535       ??$?RV<lambda_e5124f882df8998aaf41531e079ba474>@@AAV<lambda_3e16ef9562a7dcce91392c22ab16ea36>@@V<lambda_e25ca0880e6ef98be67edffd8c599615>@@@?$__crt_seh_guarded_call@X@@QAEX$$QAV<lambda_e5124f882df8998aaf41531e079ba474>@@AAV<lambda_3e16ef9562a7dcce91392c22ab16ea36>@@$$QAV<lambda_e25ca0880e6ef98be67edffd8c599615>@@@Z 10057535 f   libucrt:wsetlocale.obj
 0001:000565cd       ?initialize_inherited_file_handles_nolock@@YAXXZ 100575cd f   libucrt:ioinit.obj
 0001:00056683       ?initialize_stdio_handles_nolock@@YAXXZ 10057683 f   libucrt:ioinit.obj
 0001:000568d1       ?try_get_LCMapStringEx@@YAP6GHPB_WK0HPA_WHPAU_nlsversioninfo@@PAXJ@ZXZ 100578d1 f   libucrt:winapi_thunks.obj
 0001:000568eb       ?try_get_LocaleNameToLCID@@YAP6GKPB_WK@ZXZ 100578eb f   libucrt:winapi_thunks.obj
 0001:00056905       ?try_get_first_available_module@@YAPAUHINSTANCE__@@QBW4module_id@?A0x391cf84c@@0@Z 10057905 f   libucrt:winapi_thunks.obj
 0001:000569cd       ?try_get_function@@YAPAXW4function_id@?A0x391cf84c@@QBDQBW4module_id@2@2@Z 100579cd f   libucrt:winapi_thunks.obj
 0001:00056e83       ?<lambda_invoker_cdecl>@<lambda_86056e3c024bff449830248dc1621ed2>@@CAHPBX0@Z 10057e83 f   libucrt:argv_wildcards.obj
 0001:00056e9b       ??$common_expand_argv_wildcards@D@@YAHQAPADQAPAPAD@Z 10057e9b f   libucrt:argv_wildcards.obj
 0001:0005707b       ??$copy_and_add_argument_to_buffer@D@@YAHQBD0IAAV?$argument_list@D@?A0x5f5c8891@@@Z 1005807b f   libucrt:argv_wildcards.obj
 0001:0005712e       ??$expand_argument_wildcards@D@@YAHQAD0AAV?$argument_list@D@?A0x5f5c8891@@@Z 1005812e f   libucrt:argv_wildcards.obj
 0001:000572b2       ?expand_if_necessary@?$argument_list@D@?A0x5f5c8891@@AAEHXZ 100582b2 f   libucrt:argv_wildcards.obj
 0001:00057344       ??$?RV<lambda_ceb1ee4838e85a9d631eb091e2fbe199>@@AAV<lambda_ae742caa10f662c28703da3d2ea5e57e>@@V<lambda_cd08b5d6af4937fe54fc07d0c9bf6b37>@@@?$__crt_seh_guarded_call@X@@QAEX$$QAV<lambda_ceb1ee4838e85a9d631eb091e2fbe199>@@AAV<lambda_ae742caa10f662c28703da3d2ea5e57e>@@$$QAV<lambda_cd08b5d6af4937fe54fc07d0c9bf6b37>@@@Z 10058344 f   libucrt:mbctype.obj
 0001:00057387       ??R<lambda_ae742caa10f662c28703da3d2ea5e57e>@@QBEXXZ 10058387 f   libucrt:mbctype.obj
 0001:0005740a       ?CPtoLocaleName@@YAPB_WH@Z 1005840a f   libucrt:mbctype.obj
 0001:00057448       ?getSystemCP@@YAHH@Z       10058448 f   libucrt:mbctype.obj
 0001:000574bb       ?setSBCS@@YAXPAU__crt_multibyte_data@@@Z 100584bb f   libucrt:mbctype.obj
 0001:00057520       ?setSBUpLow@@YAXPAU__crt_multibyte_data@@@Z 10058520 f   libucrt:mbctype.obj
 0001:000576b4       ?setmbcp_internal@@YAHH_NQAU__acrt_ptd@@QAPAU__crt_multibyte_data@@@Z 100586b4 f   libucrt:mbctype.obj
 0001:000577d1       ?update_thread_multibyte_data_internal@@YAPAU__crt_multibyte_data@@QAU__acrt_ptd@@QAU1@@Z 100587d1 f   libucrt:mbctype.obj
 0001:00057ab6       ?x_ismbbtype_l@@YAHPAU__crt_locale_pointers@@IHH@Z 10058ab6 f   libucrt:ismbbyte.obj
 0001:00057b40       _report_memory_leaks       10058b40 f   libucrt:initialization.obj
 0001:00057b40       _initialize_environment    10058b40 f   libucrt:initialization.obj
 0001:00057b40       _initialize_global_state_isolation 10058b40 f   libucrt:initialization.obj
 0001:00057b40       _uninitialize_c            10058b40 f   libucrt:initialization.obj
 0001:00057b40       _uninitialize_global_state_isolation 10058b40 f   libucrt:initialization.obj
 0001:00057b43       ?find_end_of_double_null_terminated_sequence@@YAPB_WQB_W@Z 10058b43 f   libucrt:get_environment_from_os.obj
 0001:00057dc3       ??$?RV<lambda_cbab9ec6f41b0180b23cc171c22676b0>@@AAV<lambda_44731a7d0e6d81c3e6aa82d741081786>@@V<lambda_4b292cb8dd18144e164572427af410ab>@@@?$__crt_seh_guarded_call@P6AXH@Z@@QAEP6AXH@Z$$QAV<lambda_cbab9ec6f41b0180b23cc171c22676b0>@@AAV<lambda_44731a7d0e6d81c3e6aa82d741081786>@@$$QAV<lambda_4b292cb8dd18144e164572427af410ab>@@@Z 10058dc3 f   libucrt:signal.obj
 0001:00057e1d       ?get_global_action_nolock@@YAPAP6AXH@ZH@Z 10058e1d f   libucrt:signal.obj
 0001:00057e5f       ?siglookup@@YAPAU__crt_signal_action_t@@HQAU1@@Z 10058e5f f   libucrt:signal.obj
 0001:000582a2       ?__acrt_LCMapStringA_stat@@YAHPAU__crt_locale_pointers@@PB_WKPBDHPADHHH@Z 100592a2 f   libucrt:lcmapstringa.obj
 0001:0005a1f9       _memcpy_s                  1005b1f9 f   libucrt:cfout.obj
 0001:0005a1f9       _memcpy_s                  1005b1f9 f   libucrt:mbctype.obj
 0001:0005a31a       ??$?RV<lambda_2866be3712abc81a800a822484c830d8>@@AAV<lambda_39ca0ed439415581b5b15c265174cece>@@V<lambda_2b24c74d71094a6cd0cb82e44167d71b>@@@?$__crt_seh_guarded_call@X@@QAEX$$QAV<lambda_2866be3712abc81a800a822484c830d8>@@AAV<lambda_39ca0ed439415581b5b15c265174cece>@@$$QAV<lambda_2b24c74d71094a6cd0cb82e44167d71b>@@@Z 1005b31a f   libucrt:fflush.obj
 0001:0005a39b       ??$?RV<lambda_2cc53f568c5a2bb6f192f930a45d44ea>@@AAV<lambda_ab61a845afdef5b7c387490eaf3616ee>@@V<lambda_c2ffc0b7726aa6be21d5f0026187e748>@@@?$__crt_seh_guarded_call@X@@QAEX$$QAV<lambda_2cc53f568c5a2bb6f192f930a45d44ea>@@AAV<lambda_ab61a845afdef5b7c387490eaf3616ee>@@$$QAV<lambda_c2ffc0b7726aa6be21d5f0026187e748>@@@Z 1005b39b f   libucrt:fflush.obj
 0001:0005a3de       ??R<lambda_ab61a845afdef5b7c387490eaf3616ee>@@QBE@XZ 1005b3de f   libucrt:fflush.obj
 0001:0005a46c       ?common_flush_all@@YAH_N@Z 1005b46c f   libucrt:fflush.obj
 0001:0005a4bb       ?common_flush_all_should_try_to_flush_stream@@YA_NV__crt_stdio_stream@@QAH@Z 1005b4bb f   libucrt:fflush.obj
 0001:0005a4ed       ?is_stream_flushable_or_commitable@@YA_NJ@Z 1005b4ed f   libucrt:fflush.obj
 0001:0005a7be       ?free_crt_array_internal@@YAXQAPBXI@Z 1005b7be f   libucrt:inittime.obj
 0001:0005acb5       ?GetTableIndexFromLocaleName@@YAHPB_W@Z 1005bcb5 f   libucrt:lcidtoname_downlevel.obj
 0001:0005ad9d       ??$common_tcsncpy_s@D@@YAHQADIQBDI@Z 1005bd9d f   libucrt:strncpy_s.obj
 0001:0005aefd       ?initialize_multibyte@@YAHXZ 1005befd f   libucrt:multibyte_initializer.obj
 0001:0005aff0       $$000000                   1005bff0     libucrt:log10.obj
 0001:0005b140       $$000000                   1005c140     libucrt:ceil_pentium4.obj
 0001:0005b25d       ?write_double_translated_ansi_nolock@@YA?AUwrite_result@?A0x17268360@@HQBDI@Z 1005c25d f   libucrt:write.obj
 0001:0005b421       ?write_double_translated_unicode_nolock@@YA?AUwrite_result@?A0x17268360@@QBDI@Z 1005c421 f   libucrt:write.obj
 0001:0005b48e       ?write_requires_double_translation_nolock@@YA_NH@Z 1005c48e f   libucrt:write.obj
 0001:0005b504       ?write_text_ansi_nolock@@YA?AUwrite_result@?A0x17268360@@HQBDI@Z 1005c504 f   libucrt:write.obj
 0001:0005b5e3       ?write_text_utf16le_nolock@@YA?AUwrite_result@?A0x17268360@@HQBDI@Z 1005c5e3 f   libucrt:write.obj
 0001:0005b6d1       ?write_text_utf8_nolock@@YA?AUwrite_result@?A0x17268360@@HQBDI@Z 1005c6d1 f   libucrt:write.obj
 0001:0005baf8       ??$common_lseek_nolock@_J@@YA_JH_JH@Z 1005caf8 f   libucrt:lseek.obj
 0001:0005bc80       ??$?RV<lambda_9e9de3de5fa147e2223d7db92bc10aa6>@@AAV<lambda_38ce7e780aa69e748d6df282ebc68efe>@@V<lambda_8ca6da459f0f6780f1cff60fdc3d00e5>@@@?$__crt_seh_guarded_call@H@@QAEH$$QAV<lambda_9e9de3de5fa147e2223d7db92bc10aa6>@@AAV<lambda_38ce7e780aa69e748d6df282ebc68efe>@@$$QAV<lambda_8ca6da459f0f6780f1cff60fdc3d00e5>@@@Z 1005cc80 f   libucrt:commit.obj
 0001:0005bd9d       ?to_abstract_control@@YA?AW4__acrt_fenv_abstract_control@@W4__acrt_fenv_machine_sse_control@@@Z 1005cd9d f   libucrt:_fenvutils.obj
 0001:0005be59       ?to_abstract_control@@YA?AW4__acrt_fenv_abstract_control@@W4__acrt_fenv_machine_x87_control@@@Z 1005ce59 f   libucrt:_fenvutils.obj
 0001:0005bf14       ?to_machine_sse_control@@YA?AW4__acrt_fenv_machine_sse_control@@W4__acrt_fenv_abstract_control@@@Z 1005cf14 f   libucrt:_fenvutils.obj
 0001:0005c00f       ?to_machine_x87_control@@YA?AW4__acrt_fenv_machine_x87_control@@W4__acrt_fenv_abstract_control@@@Z 1005d00f f   libucrt:_fenvutils.obj
 0001:0005c4a0       $$000000                   1005d4a0     libucrt:log10_pentium4.obj
 0001:0005c730       $$000000                   1005d730     libucrt:87tran.obj
 0001:0005c930       $$000000                   1005d930     libucrt:87disp.obj
 0001:0005cb30       $$000000                   1005db30     libucrt:common.obj
 0001:0005ccc0       $$000000                   1005dcc0     libucrt:genexcep.obj
 0001:0005d018       ??$?RV<lambda_218ce3db14220d0be481dae8ef3383b6>@@AAV<lambda_628dfdc04ba53c8bfc02c9951375f3f5>@@V<lambda_57dc472bd5c9d5f3b2cbca59b8a843ae>@@@?$__crt_seh_guarded_call@H@@QAEH$$QAV<lambda_218ce3db14220d0be481dae8ef3383b6>@@AAV<lambda_628dfdc04ba53c8bfc02c9951375f3f5>@@$$QAV<lambda_57dc472bd5c9d5f3b2cbca59b8a843ae>@@@Z 1005e018 f   libucrt:close.obj
 0001:0005d200       $$000000                   1005e200     libucrt:_strnicm.obj
 0001:0005ddf8       ?__dcrt_lowio_initialize_console_output@@YAXXZ 1005edf8 f   libucrt:initcon.obj
 0001:0005e0a0       $$000000                   1005f0a0     Libcmt:ulldvrm.obj
 0001:0005e140       $$000000                   1005f140     Libcmt:_sehprolg4gs_.obj
 0001:0005e1a0       $$000000                   1005f1a0     Libcmt:lldvrm.obj
 0001:0005e280       $$000000                   1005f280     Libcmt:alloca16.obj
 0001:0005e2b0       $$000000                   1005f2b0     Libcmt:_ftol2_.obj
 0001:0005e370       $$000000                   1005f370     Libcmt:chkstk.obj
 0001:0005e3a0       $$000000                   1005f3a0     libvcruntime:memcpy.obj
 0001:0005e604       TrailingUpVec              1005f604     libvcruntime:memcpy.obj
 0001:0005e6b0       TrailingDownVec            1005f6b0     libvcruntime:memcpy.obj
 0002:00000040       _OTCR                      10060040     Rtusb:Rtusb.obj
 0002:00000084       _Messages                  10060084     Rtusb:Rtusb.obj
 0002:00000100       _?Speeds@?2??DeviceSpeed@@9@9 10060100     Rtusb:Rtusb.obj
 0002:00000110       _List1                     10060110     Rtusb:Usbkb.obj
 0002:00000178       _List2                     10060178     Rtusb:Usbkb.obj
 0002:00000180       _Enhanced                  10060180     Rtusb:Usbkb.obj
 0002:00000194       _?ErrorMap@?1??RequestSense@@9@9 10060194     Rtusb:Usbdisk.obj
 0002:000001d8       _?ErrorMap@?1??XHCIError@@9@9 100601d8     Rtusb:Xhci.obj
 0002:0000026c       _?Speed@?1??BuildSlotContext@@9@9 1006026c     Rtusb:Xhci.obj
 0002:00000270       _VRootHubConfDescriptor    10060270     Rtusb:Xhci.obj
 0002:00000290       _XHCIDriver                10060290     Rtusb:Xhci.obj
 0002:000002b8       _VRootHubConfDescriptor    100602b8     Rtusb:Ehci.obj
 0002:000002d8       _EHCIDriver                100602d8     Rtusb:Ehci.obj
 0002:00000300       _VRootHubConfDescriptor    10060300     Rtusb:Uhci.obj
 0002:00000320       _UHCIDriver                10060320     Rtusb:Uhci.obj
 0002:00000348       _VRootHubConfDescriptor    10060348     Rtusb:Ohci.obj
 0002:00000368       _OHCIDriver                10060368     Rtusb:Ohci.obj
 0002:0000038c       _?Manufacturer@?1??_rtuVirtualString@@9@9 1006038c     Rtusb:Usbutil.obj
 0002:00000394       _?RootHub@?1??_rtuVirtualString@@9@9 10060394     Rtusb:Usbutil.obj
 0002:000003a8       _DefaultPortBases          100603a8     RtfilesX:Drvide.obj
 0002:000003b0       _DefaultIRQs               100603b0     RtfilesX:Drvide.obj
 0002:000003b4       _?CommandMap@?1??IDEReadSectors@@9@9 100603b4     RtfilesX:Drvide.obj
 0002:000003b8       _?CommandMap@?1??IDEWriteSectors@@9@9 100603b8     RtfilesX:Drvide.obj
 0002:000003bc       _?ReadCommandMap@?1??UDMA@@9@9 100603bc     RtfilesX:Drvide.obj
 0002:000003c0       _?WriteCommandMap@?1??UDMA@@9@9 100603c0     RtfilesX:Drvide.obj
 0002:000003f0       _ErrorMap                  100603f0     RtfilesX:Drvusb.obj
 0002:000004a8       _?CommandMap@?L@??ReadSectors@@9@9 100604a8     RtfilesX:Drvahci.obj
 0002:000004ac       _?CommandMap@?5??WriteSectors@@9@9 100604ac     RtfilesX:Drvahci.obj
 0002:000004d8       _Messages                  100604d8     RtfilesX:Rtfiles.obj
 0002:00000584       _HexDigits                 10060584     RtfilesX:Rtfiles.obj
 0002:00000598       _ShortNameChars            10060598     RtfilesX:Rtfiles.obj
 0002:000005e8       _LongNameChars             100605e8     RtfilesX:Rtfiles.obj
 0002:000005f0       _?NeedLower@?4??MakeDOSName@@9@9 100605f0     RtfilesX:Rtfiles.obj
 0002:000005f4       _?NeedUpper@?4??MakeDOSName@@9@9 100605f4     RtfilesX:Rtfiles.obj
 0002:000005f8       _VDSig                     100605f8     RtfilesX:Rtfiles.obj
 0002:00000600       _ErrorMap                  10060600     RtfilesX:Rtfw32.obj
 0002:000008c8       _MasterBootCode            100608c8     RtfilesX:Rtfbs.obj
 0002:00000a88       _BootCode                  10060a88     RtfilesX:Rtfbs.obj
 0002:00000b04       _CRCTable                  10060b04     RtfilesX:Rtfgptcrc.obj
 0002:00000f8c       _HexDigits                 10060f8c     Rtk32:Kernel.obj
 0002:00000fa0       _Hex                       10060fa0     Rtk32:Kernel.obj
 0002:00000fb8       _AnonymousCS               10060fb8     Rtk32:Rtwin32.obj
 0002:000011dc       _Font8x16                  100611dc     Rtt32:Screen.obj
 0002:000021dc       _TextColors                100621dc     Rtt32:Screen.obj
 0002:0000221c       _PixelMask                 1006221c     Rtt32:Screen.obj
 0002:00002228       _GUID_MPS                  10062228     Rtt32:Mp.obj
 0002:00002238       _?InitCode@?1??RTMPStartCPU@@9@9 10062238     Rtt32:Mp.obj
 0002:000023b0       _?DivTable@?1??RTMPInitAPICTimer@@9@9 100623b0     Rtt32:Mp.obj
 0002:000023b8       _Combined                  100623b8     Rtt32:Keybrd.obj
 0002:00002548       _SCToVK_US                 10062548     Rtt32:Keybrd.obj
 0002:0000271c       _VKToLower_US              1006271c     Rtt32:Keybrd.obj
 0002:00002830       _VKToUpper_US              10062830     Rtt32:Keybrd.obj
 0002:00002918       _AltCar_US                 10062918     Rtt32:Keybrd.obj
 0002:00002920       _SCToVK_German             10062920     Rtt32:Keybrd.obj
 0002:0000294c       _VKToLower_German          1006294c     Rtt32:Keybrd.obj
 0002:00002978       _VKToUpper_German          10062978     Rtt32:Keybrd.obj
 0002:000029c4       _AltCar_German             100629c4     Rtt32:Keybrd.obj
 0002:000029f4       _SCToVK_French             100629f4     Rtt32:Keybrd.obj
 0002:00002a30       _VKToLower_French          10062a30     Rtt32:Keybrd.obj
 0002:00002a84       _VKToUpper_French          10062a84     Rtt32:Keybrd.obj
 0002:00002ad8       _AltCar_French             10062ad8     Rtt32:Keybrd.obj
 0002:00002b0c       _SCToVK_Spanish            10062b0c     Rtt32:Keybrd.obj
 0002:00002b38       _VKToLower_Spanish         10062b38     Rtt32:Keybrd.obj
 0002:00002b60       _VKToUpper_Spanish         10062b60     Rtt32:Keybrd.obj
 0002:00002bac       _AltCar_Spanish            10062bac     Rtt32:Keybrd.obj
 0002:00002bdc       _SCToVK_Italian            10062bdc     Rtt32:Keybrd.obj
 0002:00002c04       _VKToLower_Italian         10062c04     Rtt32:Keybrd.obj
 0002:00002c28       _VKToUpper_Italian         10062c28     Rtt32:Keybrd.obj
 0002:00002c74       _AltCar_Italian            10062c74     Rtt32:Keybrd.obj
 0002:00002c8c       _SCToVK_Portuguese         10062c8c     Rtt32:Keybrd.obj
 0002:00002cb4       _VKToLower_Portuguese      10062cb4     Rtt32:Keybrd.obj
 0002:00002cd8       _VKToUpper_Portuguese      10062cd8     Rtt32:Keybrd.obj
 0002:00002d1c       _AltCar_Portuguese         10062d1c     Rtt32:Keybrd.obj
 0002:00002d48       _EnglishUS                 10062d48     Rtt32:Keybrd.obj
 0002:00002d60       _German                    10062d60     Rtt32:Keybrd.obj
 0002:00002d78       _French                    10062d78     Rtt32:Keybrd.obj
 0002:00002d90       _Spanish                   10062d90     Rtt32:Keybrd.obj
 0002:00002da8       _Italian                   10062da8     Rtt32:Keybrd.obj
 0002:00002dc0       _Portuguese                10062dc0     Rtt32:Keybrd.obj
 0002:00002ec8       _?Access@?BF@??LoadDLM@@9@9 10062ec8     Rtt32:Loadl.obj
 0002:00002ee8       _REF_DATE                  10062ee8     Rtt32:Systime.obj
 0002:00002ef0       _DayTable                  10062ef0     Rtt32:Systime.obj
 0002:00002f00       _Alignment                 10062f00     Rtt32:Systime.obj
 0002:00002f08       _GUID_SMBIOS               10062f08     Rtt32:Smi.obj
 0002:00002f18       _?Mask@?1??SetConsoleCursorInfo@@9@9 10062f18     Rtt32:Conout.obj
 0002:00002f30       _GUID_ACPI                 10062f30     Rtt32:Acpi.obj
 0002:00002f40       _GUID_ACPI_10              10062f40     Rtt32:Acpi.obj
 0002:00002f50       _GUID_ACPI_20              10062f50     Rtt32:Acpi.obj
 0002:00002f60       _GUID_EFI_ACPI             10062f60     Rtt32:Acpi.obj
 0002:00002f70       _Digit                     10062f70     Rtt32:Heap.obj
 0002:00002f80       _?Zero@?1??GetThreadTimes@@9@9 10062f80     Rtt32:Unsupported.obj
 0002:0000310c       _AMPM                      1006310c     Rtt32:Getdatef.obj
 0002:00003114       _GS_ExceptionPointers      10063114     Libcmt:gs_report.obj
 0002:0000311c       ?module_names@?A0x89697e75@@3QBQB_WB 1006311c     libvcruntime:winapi_downlevel.obj
 0002:000031cc       ?candidate_modules@?1??try_get_FlsAlloc@@YAP6GKP6GXPAX@Z@ZXZ@4QBW4module_id@?A0x89697e75@@B 100631cc     libvcruntime:winapi_downlevel.obj
 0002:000031e0       ?candidate_modules@?1??try_get_FlsFree@@YAP6GHK@ZXZ@4QBW4module_id@?A0x89697e75@@B 100631e0     libvcruntime:winapi_downlevel.obj
 0002:000031f0       ?candidate_modules@?1??try_get_FlsGetValue@@YAP6GPAXK@ZXZ@4QBW4module_id@?A0x89697e75@@B 100631f0     libvcruntime:winapi_downlevel.obj
 0002:00003204       ?candidate_modules@?1??try_get_FlsSetValue@@YAP6GHKPAX@ZXZ@4QBW4module_id@?A0x89697e75@@B 10063204     libvcruntime:winapi_downlevel.obj
 0002:00003218       ?candidate_modules@?1??try_get_InitializeCriticalSectionEx@@YAP6GHPAU_RTL_CRITICAL_SECTION@@KK@ZXZ@4QBW4module_id@?A0x89697e75@@B 10063218     libvcruntime:winapi_downlevel.obj
 0002:00003240       ?tokenTable@@3QBQBDB       10063240     libvcruntime:undname.obj
 0002:00003278       ?nameTable@@3QBQBDB        10063278     libvcruntime:undname.obj
 0002:000033bc       ?rttiTable@@3QBQBDB        100633bc     libvcruntime:undname.obj
 0002:00003ae0       ___acrt_initializers       10063ae0     libucrt:initialization.obj
 0002:00003b58       ?errtable@@3QBUerrentry@?A0x31fdb9ec@@B 10063b58     libucrt:errno.obj
 0002:000041c8       ?module_names@?A0x391cf84c@@3QBQB_WB 100641c8     libucrt:winapi_thunks.obj
 0002:00004640       ?candidate_modules@?1??try_get_FlsAlloc@@YAP6GKP6GXPAX@Z@ZXZ@4QBW4module_id@?A0x391cf84c@@B 10064640     libucrt:winapi_thunks.obj
 0002:00004648       ?candidate_modules@?1??try_get_FlsFree@@YAP6GHK@ZXZ@4QBW4module_id@?A0x391cf84c@@B 10064648     libucrt:winapi_thunks.obj
 0002:00004650       ?candidate_modules@?1??try_get_FlsGetValue@@YAP6GPAXK@ZXZ@4QBW4module_id@?A0x391cf84c@@B 10064650     libucrt:winapi_thunks.obj
 0002:00004658       ?candidate_modules@?1??try_get_FlsSetValue@@YAP6GHKPAX@ZXZ@4QBW4module_id@?A0x391cf84c@@B 10064658     libucrt:winapi_thunks.obj
 0002:00004660       ?candidate_modules@?1??try_get_InitializeCriticalSectionEx@@YAP6GHPAU_RTL_CRITICAL_SECTION@@KK@ZXZ@4QBW4module_id@?A0x391cf84c@@B 10064660     libucrt:winapi_thunks.obj
 0002:00004668       ?candidate_modules@?1??try_get_LCMapStringEx@@YAP6GHPB_WK0HPA_WHPAU_nlsversioninfo@@PAXJ@ZXZ@4QBW4module_id@?A0x391cf84c@@B 10064668     libucrt:winapi_thunks.obj
 0002:00004680       ?candidate_modules@?1??try_get_LocaleNameToLCID@@YAP6GKPB_WK@ZXZ@4QBW4module_id@?A0x391cf84c@@B 10064680     libucrt:winapi_thunks.obj
 0002:0000469c       ?candidate_modules@?1??try_get_RoInitialize@@YAP6GJW4RO_INIT_TYPE@@@ZXZ@4QBW4module_id@?A0x391cf84c@@B 1006469c     libucrt:winapi_thunks.obj
 0002:000046b0       ?candidate_modules@?1??try_get_RoUninitialize@@YAP6GXXZXZ@4QBW4module_id@?A0x391cf84c@@B 100646b0     libucrt:winapi_thunks.obj
 0002:000046c4       ?candidate_modules@?1??try_get_AppPolicyGetProcessTerminationMethod@@YAP6GJPAXPAW4AppPolicyProcessTerminationMethod@@@ZXZ@4QBW4module_id@?A0x391cf84c@@B 100646c4     libucrt:winapi_thunks.obj
 0002:000046f0       ?candidate_modules@?1??try_get_AppPolicyGetThreadInitializationType@@YAP6GJPAXPAW4AppPolicyThreadInitializationType@@@ZXZ@4QBW4module_id@?A0x391cf84c@@B 100646f0     libucrt:winapi_thunks.obj
 0002:0000471c       ?_mb_locale_names@@3QBQB_WB 1006471c     libucrt:mbctype.obj
 0002:00005750       ?LcidToLocaleNameTable@?A0x881e4c05@@3QBULcidToLocaleName@1@B 10065750     libucrt:lcidtoname_downlevel.obj
 0002:00006870       ?LocaleNameToIndexTable@?A0x881e4c05@@3QBULocaleNameIndex@1@B 10066870     libucrt:lcidtoname_downlevel.obj
 0002:000077c0       LOG_name                   100677c0     libucrt:log10.obj
 0002:000077d0       _One                       100677d0     libucrt:ceil_pentium4.obj
 0002:000077e0       _Bns                       100677e0     libucrt:ceil_pentium4.obj
 0002:000077f0       _Zero                      100677f0     libucrt:ceil_pentium4.obj
 0002:00007800       _S                         10067800     libucrt:ceil_pentium4.obj
 0002:00007810       _NegZero                   10067810     libucrt:ceil_pentium4.obj
 0002:00007820       emask                      10067820     libucrt:log10_pentium4.obj
 0002:00007830       CC                         10067830     libucrt:log10_pentium4.obj
 0002:00007840       Magic                      10067840     libucrt:log10_pentium4.obj
 0002:00007850       hi_mask                    10067850     libucrt:log10_pentium4.obj
 0002:00007860       LOG10_2                    10067860     libucrt:log10_pentium4.obj
 0002:00007870       place_L                    10067870     libucrt:log10_pentium4.obj
 0002:00007890       One                        10067890     libucrt:log10_pentium4.obj
 0002:000078a0       Zero                       100678a0     libucrt:log10_pentium4.obj
 0002:000078b0       Two52                      100678b0     libucrt:log10_pentium4.obj
 0002:000078c0       Infs                       100678c0     libucrt:log10_pentium4.obj
 0002:000078d0       NaN                        100678d0     libucrt:log10_pentium4.obj
 0002:000078e0       coeff                      100678e0     libucrt:log10_pentium4.obj
 0002:0000793e       _log2max                   1006793e     libucrt:87tran.obj
 0002:00007948       _smallarg                  10067948     libucrt:87tran.obj
 0002:00007952       _half                      10067952     libucrt:87tran.obj
 0002:0000799e       One                        1006799e     libucrt:87disp.obj
 0002:000079a6       Three                      100679a6     libucrt:87disp.obj
 0002:000079ae       XAMtoTagTab                100679ae     libucrt:87disp.obj
 0002:000079c0       One                        100679c0     libucrt:common.obj
 0002:000079d4       DblMax                     100679d4     libucrt:common.obj
 0002:000079dc       DblMin                     100679dc     libucrt:common.obj
 0002:000079e4       IeeeAdjO                   100679e4     libucrt:common.obj
 0002:000079ec       IeeeAdjU                   100679ec     libucrt:common.obj
 0002:000079f4       _infinity                  100679f4     libucrt:common.obj
 0002:000079fc       _zero                      100679fc     libucrt:common.obj
 0002:00007a38       _over                      10067a38     libucrt:fpctrl.obj
 0002:00007a44       _under                     10067a44     libucrt:fpctrl.obj
 0002:00008278       ?_names@?1??_get_fname@@9@9 10068278     libucrt:fpexcept.obj
 0002:00008428       __AcpiModuleName           10068428     Acpica:utxface.obj
 0002:00008430       __AcpiModuleName           10068430     Acpica:nsxfeval.obj
 0002:0000843c       __AcpiModuleName           1006843c     Acpica:utxfinit.obj
 0002:00008448       __AcpiModuleName           10068448     Acpica:tbxfload.obj
 0002:00008454       __AcpiModuleName           10068454     Acpica:tbxface.obj
 0002:0000845c       __AcpiModuleName           1006845c     Acpica:osontime.obj
 0002:00008468       __AcpiModuleName           10068468     Acpica:nsxfobj.obj
 0002:00008470       __AcpiModuleName           10068470     Acpica:nsxfname.obj
 0002:0000847c       __AcpiModuleName           1006847c     Acpica:rsxface.obj
 0002:00008484       __AcpiModuleName           10068484     Acpica:utmutex.obj
 0002:0000848c       __AcpiModuleName           1006848c     Acpica:utinit.obj
 0002:00008498       __AcpiModuleName           10068498     Acpica:utglobal.obj
 0002:00008520       __AcpiModuleName           10068520     Acpica:utxferror.obj
 0002:0000852c       __AcpiModuleName           1006852c     Acpica:utalloc.obj
 0002:00008534       __AcpiModuleName           10068534     Acpica:utclib.obj
 0002:00008640       __AcpiModuleName           10068640     Acpica:utosi.obj
 0002:00008648       __AcpiModuleName           10068648     Acpica:utaddress.obj
 0002:00008654       __AcpiModuleName           10068654     Acpica:utdecode.obj
 0002:00008680       _AcpiGbl_BadType           10068680     Acpica:utdecode.obj
 0002:0000868c       __AcpiModuleName           1006868c     Acpica:utdelete.obj
 0002:00008698       __AcpiModuleName           10068698     Acpica:exutils.obj
 0002:000086a0       __AcpiModuleName           100686a0     Acpica:utcopy.obj
 0002:000086a8       __AcpiModuleName           100686a8     Acpica:utobject.obj
 0002:000086b4       __AcpiModuleName           100686b4     Acpica:nseval.obj
 0002:000086bc       __AcpiModuleName           100686bc     Acpica:uterror.obj
 0002:000086c4       __AcpiModuleName           100686c4     Acpica:nsutils.obj
 0002:000086cc       __AcpiModuleName           100686cc     Acpica:utlock.obj
 0002:000086d4       __AcpiModuleName           100686d4     Acpica:nswalk.obj
 0002:000086dc       __AcpiModuleName           100686dc     Acpica:uteval.obj
 0002:000086e4       __AcpiModuleName           100686e4     Acpica:utids.obj
 0002:000086ec       __AcpiModuleName           100686ec     Acpica:nsobject.obj
 0002:000086f8       __AcpiModuleName           100686f8     Acpica:nsaccess.obj
 0002:00008704       __AcpiModuleName           10068704     Acpica:evevent.obj
 0002:0000870c       __AcpiModuleName           1006870c     Acpica:evhandler.obj
 0002:00008718       __AcpiModuleName           10068718     Acpica:tbutils.obj
 0002:00008720       __AcpiModuleName           10068720     Acpica:evxfevnt.obj
 0002:0000872c       __AcpiModuleName           1006872c     Acpica:hwacpi.obj
 0002:00008734       __AcpiModuleName           10068734     Acpica:nsinit.obj
 0002:0000873c       __AcpiModuleName           1006873c     Acpica:evregion.obj
 0002:00008748       __AcpiModuleName           10068748     Acpica:nsload.obj
 0002:00008750       __AcpiModuleName           10068750     Acpica:tbdata.obj
 0002:00008758       __AcpiModuleName           10068758     Acpica:tbinstal.obj
 0002:00008764       __AcpiModuleName           10068764     Acpica:nsnames.obj
 0002:0000876c       __AcpiModuleName           1006876c     Acpica:utmisc.obj
 0002:00008774       __AcpiModuleName           10068774     Acpica:psargs.obj
 0002:0000877c       __AcpiModuleName           1006877c     Acpica:psparse.obj
 0002:00008784       __AcpiModuleName           10068784     Acpica:rsutils.obj
 0002:0000878c       __AcpiModuleName           1006878c     Acpica:evmisc.obj
 0002:00008794       _AcpiGbl_ExceptionNames_Env 10068794     Acpica:utexcep.obj
 0002:0000880c       _AcpiGbl_ExceptionNames_Pgm 1006880c     Acpica:utexcep.obj
 0002:00008834       _AcpiGbl_ExceptionNames_Tbl 10068834     Acpica:utexcep.obj
 0002:0000884c       _AcpiGbl_ExceptionNames_Aml 1006884c     Acpica:utexcep.obj
 0002:000088d4       _AcpiGbl_ExceptionNames_Ctrl 100688d4     Acpica:utexcep.obj
 0002:0000890c       __AcpiModuleName           1006890c     Acpica:utexcep.obj
 0002:00008914       __AcpiModuleName           10068914     Acpica:utstring.obj
 0002:00008920       __AcpiModuleName           10068920     Acpica:utstate.obj
 0002:00008928       __AcpiModuleName           10068928     Acpica:exmutex.obj
 0002:00008930       __AcpiModuleName           10068930     Acpica:evgpeblk.obj
 0002:0000893c       __AcpiModuleName           1006893c     Acpica:uthex.obj
 0002:00008944       __AcpiModuleName           10068944     Acpica:utmath.obj
 0002:00009164       __AcpiModuleName           10069164     Acpica:nspredef.obj
 0002:00009170       __AcpiModuleName           10069170     Acpica:exresnte.obj
 0002:0000917c       __AcpiModuleName           1006917c     Acpica:psxface.obj
 0002:00009184       __AcpiModuleName           10069184     Acpica:nsarguments.obj
 0002:00009190       __AcpiModuleName           10069190     Acpica:utpredef.obj
 0002:0000919c       __AcpiModuleName           1006919c     Acpica:nsalloc.obj
 0002:000091a4       __AcpiModuleName           100691a4     Acpica:dswscope.obj
 0002:000091b0       __AcpiModuleName           100691b0     Acpica:nssearch.obj
 0002:000091bc       __AcpiModuleName           100691bc     Acpica:evgpeinit.obj
 0002:000091c8       __AcpiModuleName           100691c8     Acpica:evglock.obj
 0002:000091d0       __AcpiModuleName           100691d0     Acpica:evsci.obj
 0002:000091d8       __AcpiModuleName           100691d8     Acpica:hwxface.obj
 0002:000091e0       __AcpiModuleName           100691e0     Acpica:hwregs.obj
 0002:000091e8       __AcpiModuleName           100691e8     Acpica:evrgnini.obj
 0002:000091f4       __AcpiModuleName           100691f4     Acpica:exregion.obj
 0002:00009200       __AcpiModuleName           10069200     Acpica:tbprint.obj
 0002:00009208       __AcpiModuleName           10069208     Acpica:tbfadt.obj
 0002:00009210       __AcpiModuleName           10069210     Acpica:hwvalid.obj
 0002:00009218       _AcpiProtectedPorts        10069218     Acpica:hwvalid.obj
 0002:000092e4       __AcpiModuleName           100692e4     Acpica:dsargs.obj
 0002:000092ec       __AcpiModuleName           100692ec     Acpica:dsinit.obj
 0002:000092f4       __AcpiModuleName           100692f4     Acpica:nsparse.obj
 0002:000092fc       __AcpiModuleName           100692fc     Acpica:utownerid.obj
 0002:00009308       __AcpiModuleName           10069308     Acpica:dsmethod.obj
 0002:00009314       __AcpiModuleName           10069314     Acpica:pstree.obj
 0002:0000931c       __AcpiModuleName           1006931c     Acpica:psutils.obj
 0002:00009324       __AcpiModuleName           10069324     Acpica:pswalk.obj
 0002:0000932c       __AcpiModuleName           1006932c     Acpica:psopinfo.obj
 0002:00009338       _AcpiGbl_ArgumentCount     10069338     Acpica:psopinfo.obj
 0002:000094d0       __AcpiModuleName           100694d0     Acpica:dsutils.obj
 0002:000094d8       __AcpiModuleName           100694d8     Acpica:psscope.obj
 0002:000094e0       __AcpiModuleName           100694e0     Acpica:dswstate.obj
 0002:000094ec       __AcpiModuleName           100694ec     Acpica:psloop.obj
 0002:000094f4       __AcpiModuleName           100694f4     Acpica:utresrc.obj
 0002:00009520       _AcpiGbl_ResourceTypes     10069520     Acpica:utresrc.obj
 0002:00009540       __AcpiModuleName           10069540     Acpica:rscreate.obj
 0002:0000954c       __AcpiModuleName           1006954c     Acpica:evgpeutil.obj
 0002:00009558       __AcpiModuleName           10069558     Acpica:hwgpe.obj
 0002:00009560       __AcpiModuleName           10069560     Acpica:exsystem.obj
 0002:0000956c       __AcpiModuleName           1006956c     Acpica:evgpe.obj
 0002:00009578       __AcpiModuleName           10069578     Acpica:nsrepair2.obj
 0002:00009588       _AcpiNsRepairableNames     10069588     Acpica:nsrepair2.obj
 0002:000095d8       __AcpiModuleName           100695d8     Acpica:nsprepkg.obj
 0002:000095e8       __AcpiModuleName           100695e8     Acpica:nsrepair.obj
 0002:000095f8       _AcpiObjectRepairInfo      100695f8     Acpica:nsrepair.obj
 0002:00009658       __AcpiModuleName           10069658     Acpica:exfield.obj
 0002:00009660       __AcpiModuleName           10069660     Acpica:evxface.obj
 0002:00009668       __AcpiModuleName           10069668     Acpica:hwpci.obj
 0002:00009670       __AcpiModuleName           10069670     Acpica:evxfregn.obj
 0002:0000967c       __AcpiModuleName           1006967c     Acpica:dsopcode.obj
 0002:00009688       __AcpiModuleName           10069688     Acpica:dsmthdat.obj
 0002:00009698       __AcpiModuleName           10069698     Acpica:psopcode.obj
 0002:00009eb8       __AcpiModuleName           10069eb8     Acpica:exresolv.obj
 0002:00009ec4       __AcpiModuleName           10069ec4     Acpica:dsobject.obj
 0002:00009ed0       __AcpiModuleName           10069ed0     Acpica:exnames.obj
 0002:00009ed8       __AcpiModuleName           10069ed8     Acpica:dswload.obj
 0002:00009ee0       __AcpiModuleName           10069ee0     Acpica:psobject.obj
 0002:00009eec       __AcpiModuleName           10069eec     Acpica:dswexec.obj
 0002:00009ef4       __AcpiModuleName           10069ef4     Acpica:rslist.obj
 0002:00009efc       __AcpiModuleName           10069efc     Acpica:rscalc.obj
 0002:00009f04       __AcpiModuleName           10069f04     Acpica:nsconvert.obj
 0002:00009f10       __AcpiModuleName           10069f10     Acpica:exfldio.obj
 0002:00009f18       __AcpiModuleName           10069f18     Acpica:exresop.obj
 0002:00009f20       __AcpiModuleName           10069f20     Acpica:exprep.obj
 0002:00009f28       __AcpiModuleName           10069f28     Acpica:tbfind.obj
 0002:00009f30       __AcpiModuleName           10069f30     Acpica:exstore.obj
 0002:00009f38       __AcpiModuleName           10069f38     Acpica:dswload2.obj
 0002:00009f44       __AcpiModuleName           10069f44     Acpica:excreate.obj
 0002:00009f50       __AcpiModuleName           10069f50     Acpica:dsfield.obj
 0002:00009f58       __AcpiModuleName           10069f58     Acpica:exoparg6.obj
 0002:00009f64       __AcpiModuleName           10069f64     Acpica:exoparg3.obj
 0002:00009f70       __AcpiModuleName           10069f70     Acpica:exoparg2.obj
 0002:00009f7c       __AcpiModuleName           10069f7c     Acpica:exoparg1.obj
 0002:00009f88       __AcpiModuleName           10069f88     Acpica:exconvrt.obj
 0002:00009f94       __AcpiModuleName           10069f94     Acpica:dscontrol.obj
 0002:00009fa0       __AcpiModuleName           10069fa0     Acpica:rsmisc.obj
 0002:00009fa8       __AcpiModuleName           10069fa8     Acpica:rsinfo.obj
 0002:00009fec       __AcpiModuleName           10069fec     Acpica:exdebug.obj
 0002:00009ff4       __AcpiModuleName           10069ff4     Acpica:exstoren.obj
 0002:0000a000       __AcpiModuleName           1006a000     Acpica:exconfig.obj
 0002:0000a00c       __AcpiModuleName           1006a00c     Acpica:exmisc.obj
 0002:0000a014       __AcpiModuleName           1006a014     Acpica:rsaddr.obj
 0002:0000a06c       _AcpiRsConvertGeneralFlags 1006a06c     Acpica:rsaddr.obj
 0002:0000a084       _AcpiRsConvertMemFlags     1006a084     Acpica:rsaddr.obj
 0002:0000a098       _AcpiRsConvertIoFlags      1006a098     Acpica:rsaddr.obj
 0002:0000a0a8       __AcpiModuleName           1006a0a8     Acpica:rsserial.obj
 0002:0000a1e4       __AcpiModuleName           1006a1e4     Acpica:rsmemory.obj
 0002:0000a254       __AcpiModuleName           1006a254     Acpica:rsio.obj
 0002:0000a2e0       __AcpiModuleName           1006a2e0     Acpica:rsirq.obj
 0002:0000a394       __AcpiModuleName           1006a394     Acpica:utbuffer.obj
 0002:0000a3a0       __AcpiModuleName           1006a3a0     Acpica:exstorob.obj
 0002:0000a620       __sehtable$?dllmain_crt_process_attach@@YAHQAUHINSTANCE__@@QAX@Z 1006a620     Libcmt:dll_dllmain.obj
 0002:0000a640       __sehtable$?dllmain_crt_process_detach@@YAH_N@Z 1006a640     Libcmt:dll_dllmain.obj
 0002:0000a660       __sehtable$?dllmain_dispatch@@YAHQAUHINSTANCE__@@KQAX@Z 1006a660     Libcmt:dll_dllmain.obj
 0002:0000a680       __sehtable$___scrt_is_nonwritable_in_current_image 1006a680     Libcmt:utility.obj
 0002:0000a6a0       __sehtable$??R<lambda_6e4b09c48022b2350581041d5f6b0c4c>@@QBE@XZ 1006a6a0     libucrt:exit.obj
 0002:0000a6c0       __sehtable$??$?RV<lambda_03b1d95aef87969028cfba75ccab2455>@@AAV<lambda_6e4b09c48022b2350581041d5f6b0c4c>@@V<lambda_22bdf7517842c4b3e53723af5aa32b9e>@@@?$__crt_seh_guarded_call@X@@QAEX$$QAV<lambda_03b1d95aef87969028cfba75ccab2455>@@AAV<lambda_6e4b09c48022b2350581041d5f6b0c4c>@@$$QAV<lambda_22bdf7517842c4b3e53723af5aa32b9e>@@@Z 1006a6c0     libucrt:exit.obj
 0002:0000a6e0       __sehtable$??$thread_start@P6GIPAX@Z@@YGKQAX@Z 1006a6e0     libucrt:thread.obj
 0002:0000a700       __sehtable$??$?RV<lambda_7ac4055421038abea736e08bd20712a4>@@AAV<lambda_a10e4b102d4a2c3aac6f4f48bbdf488f>@@V<lambda_1da61822885009acd1bf848af4f9644b>@@@?$__crt_seh_guarded_call@H@@QAEH$$QAV<lambda_7ac4055421038abea736e08bd20712a4>@@AAV<lambda_a10e4b102d4a2c3aac6f4f48bbdf488f>@@$$QAV<lambda_1da61822885009acd1bf848af4f9644b>@@@Z 1006a700     libucrt:onexit.obj
 0002:0000a720       __sehtable$??$?RV<lambda_69a2805e680e0e292e8ba93315fe43a8>@@AAV<lambda_f03950bc5685219e0bcd2087efbe011e>@@V<lambda_03fcd07e894ec930e3f35da366ca99d6>@@@?$__crt_seh_guarded_call@H@@QAEH$$QAV<lambda_69a2805e680e0e292e8ba93315fe43a8>@@AAV<lambda_f03950bc5685219e0bcd2087efbe011e>@@$$QAV<lambda_03fcd07e894ec930e3f35da366ca99d6>@@@Z 1006a720     libucrt:onexit.obj
 0002:0000a740       __sehtable$_terminate      1006a740     libucrt:terminate.obj
 0002:0000a760       __sehtable$??$?RV<lambda_15ade71b0218206bbe3333a0c9b79046>@@AAV<lambda_da44e0f8b0f19ba52fefafb335991732>@@V<lambda_207f2d024fc103971653565357d6cd41>@@@?$__crt_seh_guarded_call@X@@QAEX$$QAV<lambda_15ade71b0218206bbe3333a0c9b79046>@@AAV<lambda_da44e0f8b0f19ba52fefafb335991732>@@$$QAV<lambda_207f2d024fc103971653565357d6cd41>@@@Z 1006a760     libucrt:per_thread_data.obj
 0002:0000a780       __sehtable$??$?RV<lambda_a7e850c220f1c8d1e6efeecdedd162c6>@@AAV<lambda_46720907175c18b6c9d2717bc0d2d362>@@V<lambda_9048902d66e8d99359bc9897bbb930a8>@@@?$__crt_seh_guarded_call@X@@QAEX$$QAV<lambda_a7e850c220f1c8d1e6efeecdedd162c6>@@AAV<lambda_46720907175c18b6c9d2717bc0d2d362>@@$$QAV<lambda_9048902d66e8d99359bc9897bbb930a8>@@@Z 1006a780     libucrt:per_thread_data.obj
 0002:0000a7a0       __sehtable$??$?RV<lambda_38edbb1296d33220d7e4dd0ed76b244a>@@AAV<lambda_5ce1d447e08cb34b2473517608e21441>@@V<lambda_fb385d3da700c9147fc39e65dd577a8c>@@@?$__crt_seh_guarded_call@X@@QAEX$$QAV<lambda_38edbb1296d33220d7e4dd0ed76b244a>@@AAV<lambda_5ce1d447e08cb34b2473517608e21441>@@$$QAV<lambda_fb385d3da700c9147fc39e65dd577a8c>@@@Z 1006a7a0     libucrt:per_thread_data.obj
 0002:0000a7c0       __sehtable$??$?RV<lambda_6affb1475c98b40b75cdec977db92e3c>@@AAV<lambda_b8d4b9c228a6ecc3f80208dbb4b4a104>@@V<lambda_608742c3c92a14382c1684fc64f96c88>@@@?$__crt_seh_guarded_call@X@@QAEX$$QAV<lambda_6affb1475c98b40b75cdec977db92e3c>@@AAV<lambda_b8d4b9c228a6ecc3f80208dbb4b4a104>@@$$QAV<lambda_608742c3c92a14382c1684fc64f96c88>@@@Z 1006a7c0     libucrt:per_thread_data.obj
 0002:0000a7e0       __sehtable$??$?RV<lambda_e5124f882df8998aaf41531e079ba474>@@AAV<lambda_3e16ef9562a7dcce91392c22ab16ea36>@@V<lambda_e25ca0880e6ef98be67edffd8c599615>@@@?$__crt_seh_guarded_call@X@@QAEX$$QAV<lambda_e5124f882df8998aaf41531e079ba474>@@AAV<lambda_3e16ef9562a7dcce91392c22ab16ea36>@@$$QAV<lambda_e25ca0880e6ef98be67edffd8c599615>@@@Z 1006a7e0     libucrt:wsetlocale.obj
 0002:0000a800       __sehtable$___acrt_initialize_lowio 1006a800     libucrt:ioinit.obj
 0002:0000a820       __sehtable$?update_thread_multibyte_data_internal@@YAPAU__crt_multibyte_data@@QAU__acrt_ptd@@QAU1@@Z 1006a820     libucrt:mbctype.obj
 0002:0000a840       __sehtable$??$?RV<lambda_ceb1ee4838e85a9d631eb091e2fbe199>@@AAV<lambda_ae742caa10f662c28703da3d2ea5e57e>@@V<lambda_cd08b5d6af4937fe54fc07d0c9bf6b37>@@@?$__crt_seh_guarded_call@X@@QAEX$$QAV<lambda_ceb1ee4838e85a9d631eb091e2fbe199>@@AAV<lambda_ae742caa10f662c28703da3d2ea5e57e>@@$$QAV<lambda_cd08b5d6af4937fe54fc07d0c9bf6b37>@@@Z 1006a840     libucrt:mbctype.obj
 0002:0000a860       __sehtable$__query_new_handler 1006a860     libucrt:new_handler.obj
 0002:0000a880       __sehtable$_raise          1006a880     libucrt:signal.obj
 0002:0000a8a0       __sehtable$??$?RV<lambda_cbab9ec6f41b0180b23cc171c22676b0>@@AAV<lambda_44731a7d0e6d81c3e6aa82d741081786>@@V<lambda_4b292cb8dd18144e164572427af410ab>@@@?$__crt_seh_guarded_call@P6AXH@Z@@QAEP6AXH@Z$$QAV<lambda_cbab9ec6f41b0180b23cc171c22676b0>@@AAV<lambda_44731a7d0e6d81c3e6aa82d741081786>@@$$QAV<lambda_4b292cb8dd18144e164572427af410ab>@@@Z 1006a8a0     libucrt:signal.obj
 0002:0000a8c0       __sehtable$___acrt_update_thread_locale_data 1006a8c0     libucrt:locale_refcounting.obj
 0002:0000a8e0       __sehtable$__fcloseall     1006a8e0     libucrt:closeall.obj
 0002:0000a900       __sehtable$??$?RV<lambda_2866be3712abc81a800a822484c830d8>@@AAV<lambda_39ca0ed439415581b5b15c265174cece>@@V<lambda_2b24c74d71094a6cd0cb82e44167d71b>@@@?$__crt_seh_guarded_call@X@@QAEX$$QAV<lambda_2866be3712abc81a800a822484c830d8>@@AAV<lambda_39ca0ed439415581b5b15c265174cece>@@$$QAV<lambda_2b24c74d71094a6cd0cb82e44167d71b>@@@Z 1006a900     libucrt:fflush.obj
 0002:0000a920       __sehtable$??$?RV<lambda_2cc53f568c5a2bb6f192f930a45d44ea>@@AAV<lambda_ab61a845afdef5b7c387490eaf3616ee>@@V<lambda_c2ffc0b7726aa6be21d5f0026187e748>@@@?$__crt_seh_guarded_call@X@@QAEX$$QAV<lambda_2cc53f568c5a2bb6f192f930a45d44ea>@@AAV<lambda_ab61a845afdef5b7c387490eaf3616ee>@@$$QAV<lambda_c2ffc0b7726aa6be21d5f0026187e748>@@@Z 1006a920     libucrt:fflush.obj
 0002:0000a940       __sehtable$___acrt_lowio_ensure_fh_exists 1006a940     libucrt:osfinfo.obj
 0002:0000a960       __sehtable$__write         1006a960     libucrt:write.obj
 0002:0000a980       __sehtable$_fclose         1006a980     libucrt:fclose.obj
 0002:0000a9a0       __sehtable$??$?RV<lambda_9e9de3de5fa147e2223d7db92bc10aa6>@@AAV<lambda_38ce7e780aa69e748d6df282ebc68efe>@@V<lambda_8ca6da459f0f6780f1cff60fdc3d00e5>@@@?$__crt_seh_guarded_call@H@@QAEH$$QAV<lambda_9e9de3de5fa147e2223d7db92bc10aa6>@@AAV<lambda_38ce7e780aa69e748d6df282ebc68efe>@@$$QAV<lambda_8ca6da459f0f6780f1cff60fdc3d00e5>@@@Z 1006a9a0     libucrt:commit.obj
 0002:0000a9c0       __sehtable$??$?RV<lambda_218ce3db14220d0be481dae8ef3383b6>@@AAV<lambda_628dfdc04ba53c8bfc02c9951375f3f5>@@V<lambda_57dc472bd5c9d5f3b2cbca59b8a843ae>@@@?$__crt_seh_guarded_call@H@@QAEH$$QAV<lambda_218ce3db14220d0be481dae8ef3383b6>@@AAV<lambda_628dfdc04ba53c8bfc02c9951375f3f5>@@$$QAV<lambda_57dc472bd5c9d5f3b2cbca59b8a843ae>@@@Z 1006a9c0     libucrt:close.obj
 0002:0000a9e0       __sehtable$__IsNonwritableInCurrentImage 1006a9e0     Libcmt:pesect.obj
 0002:0000aa00       .edata                     1006aa00     Rttdll.exp
 0002:0000aa28       rgpv                       1006aa28     Rttdll.exp
 0002:0000ab1c       rgszName                   1006ab1c     Rttdll.exp
 0002:0000ac10       rgwOrd                     1006ac10     Rttdll.exp
 0002:0000ac8a       szName                     1006ac8a     Rttdll.exp
 0002:0000ac95       $N00001                    1006ac95     Rttdll.exp
 0002:0000aca4       $N00002                    1006aca4     Rttdll.exp
 0002:0000acb0       $N00003                    1006acb0     Rttdll.exp
 0002:0000acbd       $N00004                    1006acbd     Rttdll.exp
 0002:0000accc       $N00005                    1006accc     Rttdll.exp
 0002:0000acd8       $N00006                    1006acd8     Rttdll.exp
 0002:0000ace4       $N00007                    1006ace4     Rttdll.exp
 0002:0000acf7       $N00008                    1006acf7     Rttdll.exp
 0002:0000ad03       $N00009                    1006ad03     Rttdll.exp
 0002:0000ad0d       $N00010                    1006ad0d     Rttdll.exp
 0002:0000ad25       $N00011                    1006ad25     Rttdll.exp
 0002:0000ad36       $N00012                    1006ad36     Rttdll.exp
 0002:0000ad49       $N00013                    1006ad49     Rttdll.exp
 0002:0000ad5b       $N00014                    1006ad5b     Rttdll.exp
 0002:0000ad68       $N00015                    1006ad68     Rttdll.exp
 0002:0000ad78       $N00016                    1006ad78     Rttdll.exp
 0002:0000ad8d       $N00017                    1006ad8d     Rttdll.exp
 0002:0000ad9c       $N00018                    1006ad9c     Rttdll.exp
 0002:0000adb7       $N00019                    1006adb7     Rttdll.exp
 0002:0000adc3       $N00020                    1006adc3     Rttdll.exp
 0002:0000add0       $N00021                    1006add0     Rttdll.exp
 0002:0000addd       $N00022                    1006addd     Rttdll.exp
 0002:0000adee       $N00023                    1006adee     Rttdll.exp
 0002:0000ae0d       $N00024                    1006ae0d     Rttdll.exp
 0002:0000ae1d       $N00025                    1006ae1d     Rttdll.exp
 0002:0000ae2a       $N00026                    1006ae2a     Rttdll.exp
 0002:0000ae38       $N00027                    1006ae38     Rttdll.exp
 0002:0000ae44       $N00028                    1006ae44     Rttdll.exp
 0002:0000ae4f       $N00029                    1006ae4f     Rttdll.exp
 0002:0000ae5b       $N00030                    1006ae5b     Rttdll.exp
 0002:0000ae67       $N00031                    1006ae67     Rttdll.exp
 0002:0000ae7b       $N00032                    1006ae7b     Rttdll.exp
 0002:0000ae8d       $N00033                    1006ae8d     Rttdll.exp
 0002:0000ae9f       $N00034                    1006ae9f     Rttdll.exp
 0002:0000aea8       $N00035                    1006aea8     Rttdll.exp
 0002:0000aec3       $N00036                    1006aec3     Rttdll.exp
 0002:0000aed0       $N00037                    1006aed0     Rttdll.exp
 0002:0000aee0       $N00038                    1006aee0     Rttdll.exp
 0002:0000aef6       $N00039                    1006aef6     Rttdll.exp
 0002:0000af0b       $N00040                    1006af0b     Rttdll.exp
 0002:0000af24       $N00041                    1006af24     Rttdll.exp
 0002:0000af33       $N00042                    1006af33     Rttdll.exp
 0002:0000af40       $N00043                    1006af40     Rttdll.exp
 0002:0000af4d       $N00044                    1006af4d     Rttdll.exp
 0002:0000af5c       $N00045                    1006af5c     Rttdll.exp
 0002:0000af69       $N00046                    1006af69     Rttdll.exp
 0002:0000af73       $N00047                    1006af73     Rttdll.exp
 0002:0000af79       $N00048                    1006af79     Rttdll.exp
 0002:0000af8f       $N00049                    1006af8f     Rttdll.exp
 0002:0000afa1       $N00050                    1006afa1     Rttdll.exp
 0002:0000afaf       $N00051                    1006afaf     Rttdll.exp
 0002:0000afb8       $N00052                    1006afb8     Rttdll.exp
 0002:0000afc0       $N00053                    1006afc0     Rttdll.exp
 0002:0000afcc       $N00054                    1006afcc     Rttdll.exp
 0002:0000afd8       $N00055                    1006afd8     Rttdll.exp
 0002:0000afe5       $N00056                    1006afe5     Rttdll.exp
 0002:0000aff0       $N00057                    1006aff0     Rttdll.exp
 0002:0000b004       $N00058                    1006b004     Rttdll.exp
 0002:0000b018       $N00059                    1006b018     Rttdll.exp
 0002:0000b022       $N00060                    1006b022     Rttdll.exp
 0002:0000b037       $N00061                    1006b037     Rttdll.exp
 0003:00000000       $SG60427                   1006c000     MyWin32API.obj
 0003:0000002c       $SG60433                   1006c02c     MyWin32API.obj
 0003:0000005c       $SG60439                   1006c05c     MyWin32API.obj
 0003:0000008c       $SG60445                   1006c08c     MyWin32API.obj
 0003:000000bc       $SG60451                   1006c0bc     MyWin32API.obj
 0003:000000e8       $SG60457                   1006c0e8     MyWin32API.obj
 0003:00000114       $SG60463                   1006c114     MyWin32API.obj
 0003:00000144       $SG60471                   1006c144     MyWin32API.obj
 0003:0000016c       $SG60479                   1006c16c     MyWin32API.obj
 0003:00000198       $SG60483                   1006c198     MyWin32API.obj
 0003:000001c0       $SG60410                   1006c1c0     MyWin32API.obj
 0003:0000021c       $SG32853                   1006c21c     Init.obj
 0003:00000240       $SG32855                   1006c240     Init.obj
 0003:00000948       $SG10481                   1006c948     Usbinit.obj
 0003:000009ac       $SG10518                   1006c9ac     Usbinit.obj
 0003:000009dc       $SG10519                   1006c9dc     Usbinit.obj
 0003:000009fc       $SG10555                   1006c9fc     Usbinit.obj
 0003:00000a10       $SG10558                   1006ca10     Usbinit.obj
 0003:00000a18       $SG10559                   1006ca18     Usbinit.obj
 0003:00000a20       $SG10560                   1006ca20     Usbinit.obj
 0003:00000a28       $SG10562                   1006ca28     Usbinit.obj
 0003:00000a30       _Callbacks                 1006ca30     Rtusb:Rtusb.obj
 0003:00000ab0       _CallbackCount             1006cab0     Rtusb:Rtusb.obj
 0003:00000ab4       $SG2042                    1006cab4     Rtusb:Rtusb.obj
 0003:00000ac0       $SG2043                    1006cac0     Rtusb:Rtusb.obj
 0003:00000acc       $SG2044                    1006cacc     Rtusb:Rtusb.obj
 0003:00000ae0       $SG2045                    1006cae0     Rtusb:Rtusb.obj
 0003:00000af4       $SG2046                    1006caf4     Rtusb:Rtusb.obj
 0003:00000afc       $SG2047                    1006cafc     Rtusb:Rtusb.obj
 0003:00000b08       $SG2048                    1006cb08     Rtusb:Rtusb.obj
 0003:00000b1c       $SG2049                    1006cb1c     Rtusb:Rtusb.obj
 0003:00000b28       $SG2050                    1006cb28     Rtusb:Rtusb.obj
 0003:00000b38       $SG2051                    1006cb38     Rtusb:Rtusb.obj
 0003:00000b48       $SG2052                    1006cb48     Rtusb:Rtusb.obj
 0003:00000b58       $SG2053                    1006cb58     Rtusb:Rtusb.obj
 0003:00000b60       $SG2054                    1006cb60     Rtusb:Rtusb.obj
 0003:00000b70       $SG2055                    1006cb70     Rtusb:Rtusb.obj
 0003:00000b80       $SG2056                    1006cb80     Rtusb:Rtusb.obj
 0003:00000b8c       $SG2057                    1006cb8c     Rtusb:Rtusb.obj
 0003:00000b9c       $SG2058                    1006cb9c     Rtusb:Rtusb.obj
 0003:00000bac       $SG2059                    1006cbac     Rtusb:Rtusb.obj
 0003:00000bc4       $SG2060                    1006cbc4     Rtusb:Rtusb.obj
 0003:00000bd4       $SG2061                    1006cbd4     Rtusb:Rtusb.obj
 0003:00000be4       $SG2062                    1006cbe4     Rtusb:Rtusb.obj
 0003:00000bf8       $SG2063                    1006cbf8     Rtusb:Rtusb.obj
 0003:00000c00       $SG2064                    1006cc00     Rtusb:Rtusb.obj
 0003:00000c14       $SG2065                    1006cc14     Rtusb:Rtusb.obj
 0003:00000c24       $SG2066                    1006cc24     Rtusb:Rtusb.obj
 0003:00000c50       $SG2067                    1006cc50     Rtusb:Rtusb.obj
 0003:00000c68       $SG2068                    1006cc68     Rtusb:Rtusb.obj
 0003:00000c74       $SG2069                    1006cc74     Rtusb:Rtusb.obj
 0003:00000c84       $SG2070                    1006cc84     Rtusb:Rtusb.obj
 0003:00000c94       $SG2071                    1006cc94     Rtusb:Rtusb.obj
 0003:00000ca8       $SG2072                    1006cca8     Rtusb:Rtusb.obj
 0003:00000cbc       $SG2229                    1006ccbc     Rtusb:Rtusb.obj
 0003:00000cd0       $SG2503                    1006ccd0     Rtusb:Rtusb.obj
 0003:00000cf4       $SG2506                    1006ccf4     Rtusb:Rtusb.obj
 0003:00000d04       $SG2509                    1006cd04     Rtusb:Rtusb.obj
 0003:00000d3c       $SG2523                    1006cd3c     Rtusb:Rtusb.obj
 0003:00000d64       $SG2598                    1006cd64     Rtusb:Rtusb.obj
 0003:00000d9c       $SG2627                    1006cd9c     Rtusb:Rtusb.obj
 0003:00000da8       $SG2631                    1006cda8     Rtusb:Rtusb.obj
 0003:00000db8       $SG2640                    1006cdb8     Rtusb:Rtusb.obj
 0003:00000de8       $SG2211                    1006cde8     Rtusb:Rtusb.obj
 0003:00000dfc       $SG2662                    1006cdfc     Rtusb:Rtusb.obj
 0003:00000e34       $SG2193                    1006ce34     Rtusb:Rtusb.obj
 0003:00000e58       $SG2768                    1006ce58     Rtusb:Rtusb.obj
 0003:00000e80       $SG2731                    1006ce80     Rtusb:Rtusb.obj
 0003:00000e8c       $SG2781                    1006ce8c     Rtusb:Rtusb.obj
 0003:00000eb4       $SG2783                    1006ceb4     Rtusb:Rtusb.obj
 0003:00000edc       $SG2804                    1006cedc     Rtusb:Rtusb.obj
 0003:00000f08       $SG2838                    1006cf08     Rtusb:Rtusb.obj
 0003:00000f38       $SG2840                    1006cf38     Rtusb:Rtusb.obj
 0003:00000f58       $SG2842                    1006cf58     Rtusb:Rtusb.obj
 0003:00000f78       $SG2848                    1006cf78     Rtusb:Rtusb.obj
 0003:00000f98       $SG2869                    1006cf98     Rtusb:Rtusb.obj
 0003:00000fa8       $SG2884                    1006cfa8     Rtusb:Rtusb.obj
 0003:00000fcc       $SG2886                    1006cfcc     Rtusb:Rtusb.obj
 0003:00001000       $SG2894                    1006d000     Rtusb:Rtusb.obj
 0003:00001020       $SG2898                    1006d020     Rtusb:Rtusb.obj
 0003:00001040       $SG2902                    1006d040     Rtusb:Rtusb.obj
 0003:00001070       $SG2906                    1006d070     Rtusb:Rtusb.obj
 0003:00001080       $SG2907                    1006d080     Rtusb:Rtusb.obj
 0003:0000108c       $SG2908                    1006d08c     Rtusb:Rtusb.obj
 0003:000010a0       $SG2909                    1006d0a0     Rtusb:Rtusb.obj
 0003:000010ac       $SG2910                    1006d0ac     Rtusb:Rtusb.obj
 0003:000010b4       $SG2912                    1006d0b4     Rtusb:Rtusb.obj
 0003:000010cc       $SG2150                    1006d0cc     Rtusb:Rtusb.obj
 0003:000010d8       $SG2160                    1006d0d8     Rtusb:Rtusb.obj
 0003:00001100       $SG2120                    1006d100     Rtusb:Rtusb.obj
 0003:0000110c       $SG2121                    1006d10c     Rtusb:Rtusb.obj
 0003:00001110       $SG2131                    1006d110     Rtusb:Rtusb.obj
 0003:00001150       $SG2552                    1006d150     Rtusb:Rtusb.obj
 0003:00001168       $SG3021                    1006d168     Rtusb:Rtusb.obj
 0003:00001184       $SG3023                    1006d184     Rtusb:Rtusb.obj
 0003:00001198       $SG3051                    1006d198     Rtusb:Rtusb.obj
 0003:000011ac       $SG3053                    1006d1ac     Rtusb:Rtusb.obj
 0003:000011c8       $SG3057                    1006d1c8     Rtusb:Rtusb.obj
 0003:000011fc       $SG3080                    1006d1fc     Rtusb:Rtusb.obj
 0003:00001224       $SG3087                    1006d224     Rtusb:Rtusb.obj
 0003:00001244       $SG3100                    1006d244     Rtusb:Rtusb.obj
 0003:00001268       $SG3262                    1006d268     Rtusb:Rtusb.obj
 0003:00001284       $SG3264                    1006d284     Rtusb:Rtusb.obj
 0003:00001294       $SG3272                    1006d294     Rtusb:Rtusb.obj
 0003:000012c0       $SG2050                    1006d2c0     Rtusb:Usbkb.obj
 0003:000012d0       $SG2051                    1006d2d0     Rtusb:Usbkb.obj
 0003:000012dc       $SG2053                    1006d2dc     Rtusb:Usbkb.obj
 0003:000012e8       $SG2054                    1006d2e8     Rtusb:Usbkb.obj
 0003:000012f8       $SG2015                    1006d2f8     Rtusb:Usbkb.obj
 0003:0000131c       $SG2017                    1006d31c     Rtusb:Usbkb.obj
 0003:00001334       $SG2018                    1006d334     Rtusb:Usbkb.obj
 0003:00001338       $SG2402                    1006d338     Rtusb:Usbdisk.obj
 0003:00001354       $SG2543                    1006d354     Rtusb:Usbdisk.obj
 0003:00001360       $SG2446                    1006d360     Rtusb:Xhci.obj
 0003:00001380       $SG2463                    1006d380     Rtusb:Xhci.obj
 0003:00001394       $SG2465                    1006d394     Rtusb:Xhci.obj
 0003:000013a4       $SG2476                    1006d3a4     Rtusb:Xhci.obj
 0003:000013b0       $SG2480                    1006d3b0     Rtusb:Xhci.obj
 0003:000013d8       $SG2488                    1006d3d8     Rtusb:Xhci.obj
 0003:00001408       $SG2496                    1006d408     Rtusb:Xhci.obj
 0003:00001434       $SG2201                    1006d434     Rtusb:Xhci.obj
 0003:0000145c       $SG2392                    1006d45c     Rtusb:Xhci.obj
 0003:00001474       $SG2405                    1006d474     Rtusb:Xhci.obj
 0003:00001490       $SG2428                    1006d490     Rtusb:Xhci.obj
 0003:000014a8       $SG2431                    1006d4a8     Rtusb:Xhci.obj
 0003:000014c8       $SG2324                    1006d4c8     Rtusb:Xhci.obj
 0003:000014ec       $SG2809                    1006d4ec     Rtusb:Xhci.obj
 0003:00001510       $SG2814                    1006d510     Rtusb:Xhci.obj
 0003:00001538       $SG2816                    1006d538     Rtusb:Xhci.obj
 0003:00001560       $SG2587                    1006d560     Rtusb:Xhci.obj
 0003:00001588       $SG2589                    1006d588     Rtusb:Xhci.obj
 0003:000015b4       $SG2595                    1006d5b4     Rtusb:Xhci.obj
 0003:000015dc       $SG2596                    1006d5dc     Rtusb:Xhci.obj
 0003:000015e0       $SG2597                    1006d5e0     Rtusb:Xhci.obj
 0003:000015e4       $SG2836                    1006d5e4     Rtusb:Xhci.obj
 0003:0000161c       $SG2840                    1006d61c     Rtusb:Xhci.obj
 0003:00001648       $SG3052                    1006d648     Rtusb:Xhci.obj
 0003:00001650       $SG3070                    1006d650     Rtusb:Xhci.obj
 0003:0000166c       _Iso                       1006d66c     Rtusb:Ehci.obj
 0003:00001670       $SG2545                    1006d670     Rtusb:Ehci.obj
 0003:00001690       $SG2547                    1006d690     Rtusb:Ehci.obj
 0003:000016a4       $SG2549                    1006d6a4     Rtusb:Ehci.obj
 0003:000016b4       $SG2550                    1006d6b4     Rtusb:Ehci.obj
 0003:000016c4       $SG2571                    1006d6c4     Rtusb:Ehci.obj
 0003:000016e4       $SG2578                    1006d6e4     Rtusb:Ehci.obj
 0003:00001708       $SG2611                    1006d708     Rtusb:Ehci.obj
 0003:0000171c       $SG2507                    1006d71c     Rtusb:Ehci.obj
 0003:00001734       $SG2765                    1006d734     Rtusb:Ehci.obj
 0003:00001758       $SG2853                    1006d758     Rtusb:Ehci.obj
 0003:00001778       $SG3106                    1006d778     Rtusb:Ehci.obj
 0003:000017a0       $SG3180                    1006d7a0     Rtusb:Ehci.obj
 0003:000017cc       $SG3245                    1006d7cc     Rtusb:Ehci.obj
 0003:00001800       $SG3262                    1006d800     Rtusb:Ehci.obj
 0003:0000182c       $SG3264                    1006d82c     Rtusb:Ehci.obj
 0003:00001858       $SG3269                    1006d858     Rtusb:Ehci.obj
 0003:00001884       $SG3405                    1006d884     Rtusb:Ehci.obj
 0003:0000188c       _Iso                       1006d88c     Rtusb:Uhci.obj
 0003:00001890       $SG2483                    1006d890     Rtusb:Uhci.obj
 0003:000018b0       $SG2485                    1006d8b0     Rtusb:Uhci.obj
 0003:000018c4       $SG2487                    1006d8c4     Rtusb:Uhci.obj
 0003:000018d4       $SG2515                    1006d8d4     Rtusb:Uhci.obj
 0003:000018e8       $SG2532                    1006d8e8     Rtusb:Uhci.obj
 0003:000018fc       $SG2541                    1006d8fc     Rtusb:Uhci.obj
 0003:00001920       $SG2437                    1006d920     Rtusb:Uhci.obj
 0003:00001938       $SG2169                    1006d938     Rtusb:Uhci.obj
 0003:00001970       $SG2173                    1006d970     Rtusb:Uhci.obj
 0003:000019a8       $SG2702                    1006d9a8     Rtusb:Uhci.obj
 0003:000019cc       $SG2950                    1006d9cc     Rtusb:Uhci.obj
 0003:000019f8       $SG3019                    1006d9f8     Rtusb:Uhci.obj
 0003:00001a00       $SG2455                    1006da00     Rtusb:Ohci.obj
 0003:00001a20       $SG2457                    1006da20     Rtusb:Ohci.obj
 0003:00001a34       $SG2459                    1006da34     Rtusb:Ohci.obj
 0003:00001a40       $SG2460                    1006da40     Rtusb:Ohci.obj
 0003:00001a50       $SG2487                    1006da50     Rtusb:Ohci.obj
 0003:00001a80       $SG2498                    1006da80     Rtusb:Ohci.obj
 0003:00001aac       $SG2500                    1006daac     Rtusb:Ohci.obj
 0003:00001adc       $SG2427                    1006dadc     Rtusb:Ohci.obj
 0003:00001b08       $SG2429                    1006db08     Rtusb:Ohci.obj
 0003:00001b30       $SG2431                    1006db30     Rtusb:Ohci.obj
 0003:00001b5c       $SG2441                    1006db5c     Rtusb:Ohci.obj
 0003:00001b8c       $SG2320                    1006db8c     Rtusb:Ohci.obj
 0003:00001ba4       $SG2643                    1006dba4     Rtusb:Ohci.obj
 0003:00001bc8       $SG2752                    1006dbc8     Rtusb:Ohci.obj
 0003:00001bec       $SG2754                    1006dbec     Rtusb:Ohci.obj
 0003:00001c18       $SG2937                    1006dc18     Rtusb:Ohci.obj
 0003:00001c44       $SG2142                    1006dc44     Rtusb:Ohci.obj
 0003:00001c60       $SG3206                    1006dc60     Rtusb:Ohci.obj
 0003:00001c68       _LastPool                  1006dc68     Rtusb:Usbutil.obj
 0003:00001c6c       _DiagHandler               1006dc6c     Rtusb:Usbutil.obj
 0003:00001c70       $SG2067                    1006dc70     Rtusb:Usbutil.obj
 0003:00001ca4       $SG2078                    1006dca4     Rtusb:Usbutil.obj
 0003:00001cd8       $SG2113                    1006dcd8     Rtusb:Usbutil.obj
 0003:00001cec       $SG2085                    1006dcec     Rtusb:Usbutil.obj
 0003:00001d00       $SG2126                    1006dd00     Rtusb:Usbutil.obj
 0003:00001d14       $SG2138                    1006dd14     Rtusb:Usbutil.obj
 0003:00001d24       $SG20600                   1006dd24     Rtusb:Sysurtk32.obj
 0003:00001d58       $SG20610                   1006dd58     Rtusb:Sysurtk32.obj
 0003:00001d6c       $SG20622                   1006dd6c     Rtusb:Sysurtk32.obj
 0003:00001d9c       $SG20699                   1006dd9c     Rtusb:Sysurtk32.obj
 0003:00001e00       _Console                   1006de00     RtfilesX:Rttw32.obj
 0003:00001e18       _LPTFiles                  1006de18     RtfilesX:Rttw32.obj
 0003:00001e30       _FATFiles                  1006de30     RtfilesX:Rttw32.obj
 0003:00001e58       $SG2672                    1006de58     RtfilesX:Drvide.obj
 0003:00001e9c       $SG2694                    1006de9c     RtfilesX:Drvide.obj
 0003:00001ee0       $SG2760                    1006dee0     RtfilesX:Drvide.obj
 0003:00001f24       $SG2935                    1006df24     RtfilesX:Drvide.obj
 0003:00001f30       $SG2955                    1006df30     RtfilesX:Drvide.obj
 0003:00001f3c       $SG3019                    1006df3c     RtfilesX:Drvide.obj
 0003:00001f50       $SG3020                    1006df50     RtfilesX:Drvide.obj
 0003:00001f54       $SG3586                    1006df54     RtfilesX:Drvusb.obj
 0003:00001f74       $SG3708                    1006df74     RtfilesX:Drvusb.obj
 0003:00001f94       $SG3709                    1006df94     RtfilesX:Drvusb.obj
 0003:00001f98       $SG3710                    1006df98     RtfilesX:Drvusb.obj
 0003:00001fc0       $SG3711                    1006dfc0     RtfilesX:Drvusb.obj
 0003:00001ff8       $SG2430                    1006dff8     RtfilesX:Drvahci.obj
 0003:00002004       $SG2439                    1006e004     RtfilesX:Drvahci.obj
 0003:00002014       $SG2873                    1006e014     RtfilesX:Drvahci.obj
 0003:00002028       $SG2874                    1006e028     RtfilesX:Drvahci.obj
 0003:0000202c       _CriticalError             1006e02c     RtfilesX:Rtfiles.obj
 0003:00002030       _TLSIndex                  1006e030     RtfilesX:Rtfiles.obj
 0003:00002034       _Upper                     1006e034     RtfilesX:Rtfiles.obj
 0003:00002038       _CurrentCodePage           1006e038     RtfilesX:Rtfiles.obj
 0003:0000203c       _UnicodeMap                1006e03c     RtfilesX:Rtfiles.obj
 0003:00002040       _DiagHandler               1006e040     RtfilesX:Rtfiles.obj
 0003:00002044       $SG2169                    1006e044     RtfilesX:Rtfiles.obj
 0003:00002050       $SG2170                    1006e050     RtfilesX:Rtfiles.obj
 0003:00002060       $SG2171                    1006e060     RtfilesX:Rtfiles.obj
 0003:00002070       $SG2172                    1006e070     RtfilesX:Rtfiles.obj
 0003:00002084       $SG2173                    1006e084     RtfilesX:Rtfiles.obj
 0003:00002094       $SG2174                    1006e094     RtfilesX:Rtfiles.obj
 0003:000020a8       $SG2175                    1006e0a8     RtfilesX:Rtfiles.obj
 0003:000020b8       $SG2176                    1006e0b8     RtfilesX:Rtfiles.obj
 0003:000020c4       $SG2177                    1006e0c4     RtfilesX:Rtfiles.obj
 0003:000020d8       $SG2178                    1006e0d8     RtfilesX:Rtfiles.obj
 0003:000020e8       $SG2179                    1006e0e8     RtfilesX:Rtfiles.obj
 0003:000020fc       $SG2180                    1006e0fc     RtfilesX:Rtfiles.obj
 0003:00002110       $SG2181                    1006e110     RtfilesX:Rtfiles.obj
 0003:0000212c       $SG2182                    1006e12c     RtfilesX:Rtfiles.obj
 0003:00002148       $SG2183                    1006e148     RtfilesX:Rtfiles.obj
 0003:0000215c       $SG2184                    1006e15c     RtfilesX:Rtfiles.obj
 0003:00002174       $SG2185                    1006e174     RtfilesX:Rtfiles.obj
 0003:00002184       $SG2186                    1006e184     RtfilesX:Rtfiles.obj
 0003:0000219c       $SG2187                    1006e19c     RtfilesX:Rtfiles.obj
 0003:000021ac       $SG2188                    1006e1ac     RtfilesX:Rtfiles.obj
 0003:000021bc       $SG2189                    1006e1bc     RtfilesX:Rtfiles.obj
 0003:000021d4       $SG2190                    1006e1d4     RtfilesX:Rtfiles.obj
 0003:000021e8       $SG2191                    1006e1e8     RtfilesX:Rtfiles.obj
 0003:000021f4       $SG2192                    1006e1f4     RtfilesX:Rtfiles.obj
 0003:00002204       $SG2193                    1006e204     RtfilesX:Rtfiles.obj
 0003:00002210       $SG2194                    1006e210     RtfilesX:Rtfiles.obj
 0003:0000221c       $SG2195                    1006e21c     RtfilesX:Rtfiles.obj
 0003:0000222c       $SG2196                    1006e22c     RtfilesX:Rtfiles.obj
 0003:00002240       $SG2197                    1006e240     RtfilesX:Rtfiles.obj
 0003:00002258       $SG2198                    1006e258     RtfilesX:Rtfiles.obj
 0003:00002268       $SG2199                    1006e268     RtfilesX:Rtfiles.obj
 0003:00002280       $SG2200                    1006e280     RtfilesX:Rtfiles.obj
 0003:0000228c       $SG2201                    1006e28c     RtfilesX:Rtfiles.obj
 0003:00002298       $SG2202                    1006e298     RtfilesX:Rtfiles.obj
 0003:000022b8       $SG2203                    1006e2b8     RtfilesX:Rtfiles.obj
 0003:000022cc       $SG2204                    1006e2cc     RtfilesX:Rtfiles.obj
 0003:000022dc       $SG2205                    1006e2dc     RtfilesX:Rtfiles.obj
 0003:000022f0       $SG2206                    1006e2f0     RtfilesX:Rtfiles.obj
 0003:00002304       $SG2207                    1006e304     RtfilesX:Rtfiles.obj
 0003:00002314       $SG2208                    1006e314     RtfilesX:Rtfiles.obj
 0003:00002328       $SG2209                    1006e328     RtfilesX:Rtfiles.obj
 0003:00002330       $SG2210                    1006e330     RtfilesX:Rtfiles.obj
 0003:0000233c       $SG2211                    1006e33c     RtfilesX:Rtfiles.obj
 0003:00002348       $SG3105                    1006e348     RtfilesX:Rtfiles.obj
 0003:00002364       $SG3108                    1006e364     RtfilesX:Rtfiles.obj
 0003:0000237c       $SG3046                    1006e37c     RtfilesX:Rtfiles.obj
 0003:000023b0       $SG3160                    1006e3b0     RtfilesX:Rtfiles.obj
 0003:000023d4       $SG3606                    1006e3d4     RtfilesX:Rtfiles.obj
 0003:000023dc       $SG3591                    1006e3dc     RtfilesX:Rtfiles.obj
 0003:000023fc       $SG3597                    1006e3fc     RtfilesX:Rtfiles.obj
 0003:00002430       $SG3599                    1006e430     RtfilesX:Rtfiles.obj
 0003:00002438       $SG3897                    1006e438     RtfilesX:Rtfiles.obj
 0003:00002444       $SG4203                    1006e444     RtfilesX:Rtfiles.obj
 0003:0000244c       $SG4208                    1006e44c     RtfilesX:Rtfiles.obj
 0003:00002460       $SG4260                    1006e460     RtfilesX:Rtfiles.obj
 0003:0000248c       $SG4295                    1006e48c     RtfilesX:Rtfiles.obj
 0003:000024b8       $SG4743                    1006e4b8     RtfilesX:Rtfiles.obj
 0003:000024bc       $SG4748                    1006e4bc     RtfilesX:Rtfiles.obj
 0003:000024c0       $SG4776                    1006e4c0     RtfilesX:Rtfiles.obj
 0003:000024c4       $SG4780                    1006e4c4     RtfilesX:Rtfiles.obj
 0003:000024c8       $SG4785                    1006e4c8     RtfilesX:Rtfiles.obj
 0003:000024cc       $SG4788                    1006e4cc     RtfilesX:Rtfiles.obj
 0003:000024d0       $SG4831                    1006e4d0     RtfilesX:Rtfiles.obj
 0003:000024d4       $SG4834                    1006e4d4     RtfilesX:Rtfiles.obj
 0003:000024d8       $SG5099                    1006e4d8     RtfilesX:Rtfiles.obj
 0003:000024dc       $SG5104                    1006e4dc     RtfilesX:Rtfiles.obj
 0003:000024e8       $SG5237                    1006e4e8     RtfilesX:Rtfiles.obj
 0003:000024ec       $SG5241                    1006e4ec     RtfilesX:Rtfiles.obj
 0003:000024fc       $SG5306                    1006e4fc     RtfilesX:Rtfiles.obj
 0003:00002500       $SG5450                    1006e500     RtfilesX:Rtfiles.obj
 0003:00002504       $SG5453                    1006e504     RtfilesX:Rtfiles.obj
 0003:00002508       $SG5455                    1006e508     RtfilesX:Rtfiles.obj
 0003:0000250c       $SG6144                    1006e50c     RtfilesX:Rtfiles.obj
 0003:00002510       $SG6215                    1006e510     RtfilesX:Rtfiles.obj
 0003:00002514       $SG6325                    1006e514     RtfilesX:Rtfiles.obj
 0003:0000251c       $SG6353                    1006e51c     RtfilesX:Rtfiles.obj
 0003:00002530       $SG6363                    1006e530     RtfilesX:Rtfiles.obj
 0003:00002538       $SG7340                    1006e538     RtfilesX:Rtfiles.obj
 0003:0000253c       $SG7341                    1006e53c     RtfilesX:Rtfiles.obj
 0003:00002540       $SG7342                    1006e540     RtfilesX:Rtfiles.obj
 0003:00002544       $SG7445                    1006e544     RtfilesX:Rtfiles.obj
 0003:00002548       $SG7450                    1006e548     RtfilesX:Rtfiles.obj
 0003:0000254c       $SG7459                    1006e54c     RtfilesX:Rtfiles.obj
 0003:00002550       $SG7464                    1006e550     RtfilesX:Rtfiles.obj
 0003:00002554       $SG7466                    1006e554     RtfilesX:Rtfiles.obj
 0003:00002558       $SG7409                    1006e558     RtfilesX:Rtfiles.obj
 0003:0000255c       $SG7412                    1006e55c     RtfilesX:Rtfiles.obj
 0003:00002560       $SG7511                    1006e560     RtfilesX:Rtfiles.obj
 0003:0000256c       $SG7518                    1006e56c     RtfilesX:Rtfiles.obj
 0003:00002578       $SG7586                    1006e578     RtfilesX:Rtfiles.obj
 0003:000025b4       $SG7597                    1006e5b4     RtfilesX:Rtfiles.obj
 0003:000025e8       $SG7949                    1006e5e8     RtfilesX:Rtfiles.obj
 0003:000025ec       $SG7905                    1006e5ec     RtfilesX:Rtfiles.obj
 0003:000025f0       $SG7910                    1006e5f0     RtfilesX:Rtfiles.obj
 0003:000025f4       $SG7932                    1006e5f4     RtfilesX:Rtfiles.obj
 0003:00002614       $SG7935                    1006e614     RtfilesX:Rtfiles.obj
 0003:00002618       $SG7939                    1006e618     RtfilesX:Rtfiles.obj
 0003:0000261c       $SG8016                    1006e61c     RtfilesX:Rtfiles.obj
 0003:0000263c       $SG20263                   1006e63c     RtfilesX:Rtfw32.obj
 0003:00002644       $SG20265                   1006e644     RtfilesX:Rtfw32.obj
 0003:0000264c       $SG20267                   1006e64c     RtfilesX:Rtfw32.obj
 0003:00002654       $SG20269                   1006e654     RtfilesX:Rtfw32.obj
 0003:00002660       $SG1586                    1006e660     RtfilesX:Rtfex.obj
 0003:00002684       $SG1606                    1006e684     RtfilesX:Rtfex.obj
 0003:00002798       _TimeQueue                 1006e798     Rtk32:Kernel.obj
 0003:000027a8       _TerminatedQueue           1006e7a8     Rtk32:Kernel.obj
 0003:000027b0       _ReadyQ                    1006e7b0     Rtk32:Kernel.obj
 0003:000027d0       _OutMsg                    1006e7d0     Rtk32:Kernel.obj
 0003:000027d4       _CurrentFineTime           1006e7d4     Rtk32:Kernel.obj
 0003:000027d8       _?msg@?1??ShowIRQ@@9@9     1006e7d8     Rtk32:Kernel.obj
 0003:000027dc       _StartStopHook             1006e7dc     Rtk32:Kernel.obj
 0003:000027e0       $SG1927                    1006e7e0     Rtk32:Kernel.obj
 0003:000027ec       _?Message@?1??CheckMem@@9@9 1006e7ec     Rtk32:Kernel.obj
 0003:000027f0       $SG2036                    1006e7f0     Rtk32:Kernel.obj
 0003:00002818       $SG2040                    1006e818     Rtk32:Kernel.obj
 0003:00002840       $SG2074                    1006e840     Rtk32:Kernel.obj
 0003:000028ac       $SG2079                    1006e8ac     Rtk32:Kernel.obj
 0003:000028b0       $SG2080                    1006e8b0     Rtk32:Kernel.obj
 0003:000028b4       $SG2086                    1006e8b4     Rtk32:Kernel.obj
 0003:000028f8       $SG2238                    1006e8f8     Rtk32:Kernel.obj
 0003:00002918       $SG2244                    1006e918     Rtk32:Kernel.obj
 0003:00002938       $SG2214                    1006e938     Rtk32:Kernel.obj
 0003:0000295c       $SG2216                    1006e95c     Rtk32:Kernel.obj
 0003:00002988       $SG2219                    1006e988     Rtk32:Kernel.obj
 0003:000029b8       $SG2222                    1006e9b8     Rtk32:Kernel.obj
 0003:000029e0       $SG2227                    1006e9e0     Rtk32:Kernel.obj
 0003:00002a08       $SG2278                    1006ea08     Rtk32:Kernel.obj
 0003:00002a38       $SG2301                    1006ea38     Rtk32:Kernel.obj
 0003:00002a68       $SG2323                    1006ea68     Rtk32:Kernel.obj
 0003:00002a88       $SG2397                    1006ea88     Rtk32:Kernel.obj
 0003:00002a9c       $SG2401                    1006ea9c     Rtk32:Kernel.obj
 0003:00002ab0       $SG2362                    1006eab0     Rtk32:Kernel.obj
 0003:00002ac8       $SG2369                    1006eac8     Rtk32:Kernel.obj
 0003:00002ad0       $SG2378                    1006ead0     Rtk32:Kernel.obj
 0003:00002ae8       $SG2388                    1006eae8     Rtk32:Kernel.obj
 0003:00002b00       $SG2412                    1006eb00     Rtk32:Kernel.obj
 0003:00002b04       $SG2414                    1006eb04     Rtk32:Kernel.obj
 0003:00002b18       $SG2421                    1006eb18     Rtk32:Kernel.obj
 0003:00002b28       $SG2445                    1006eb28     Rtk32:Kernel.obj
 0003:00002b3c       $SG2448                    1006eb3c     Rtk32:Kernel.obj
 0003:00002b50       $SG2456                    1006eb50     Rtk32:Kernel.obj
 0003:00002b68       $SG2464                    1006eb68     Rtk32:Kernel.obj
 0003:00002b80       $SG2472                    1006eb80     Rtk32:Kernel.obj
 0003:00002b90       $SG2479                    1006eb90     Rtk32:Kernel.obj
 0003:00002ba8       $SG2495                    1006eba8     Rtk32:Kernel.obj
 0003:00002bb8       $SG2507                    1006ebb8     Rtk32:Kernel.obj
 0003:00002bd0       $SG2653                    1006ebd0     Rtk32:Kernel.obj
 0003:00002bf8       $SG2703                    1006ebf8     Rtk32:Kernel.obj
 0003:00002c10       $SG2741                    1006ec10     Rtk32:Kernel.obj
 0003:00002c2c       $SG2747                    1006ec2c     Rtk32:Kernel.obj
 0003:00002c44       $SG2753                    1006ec44     Rtk32:Kernel.obj
 0003:00002c50       $SG2756                    1006ec50     Rtk32:Kernel.obj
 0003:00002c70       $SG2104                    1006ec70     Rtk32:Kernel.obj
 0003:00002c78       $SG2159                    1006ec78     Rtk32:Kernel.obj
 0003:00002c88       $SG2887                    1006ec88     Rtk32:Kernel.obj
 0003:00002cb8       $SG3008                    1006ecb8     Rtk32:Kernel.obj
 0003:00002cc4       $SG3011                    1006ecc4     Rtk32:Kernel.obj
 0003:00002cd0       $SG3040                    1006ecd0     Rtk32:Kernel.obj
 0003:00002cf4       $SG3042                    1006ecf4     Rtk32:Kernel.obj
 0003:00002d28       $SG3045                    1006ed28     Rtk32:Kernel.obj
 0003:00002d38       $SG3051                    1006ed38     Rtk32:Kernel.obj
 0003:00002d50       $SG3055                    1006ed50     Rtk32:Kernel.obj
 0003:00002d5c       $SG3062                    1006ed5c     Rtk32:Kernel.obj
 0003:00002d78       $SG3028                    1006ed78     Rtk32:Kernel.obj
 0003:00002dd0       $SG18996                   1006edd0     Rtk32:Rtkeybrd.obj
 0003:00002ddc       $SG18998                   1006eddc     Rtk32:Rtkeybrd.obj
 0003:00002dec       _IRQs                      1006edec     Rtk32:Shareint.obj
 0003:00002e6c       $SG1411                    1006ee6c     Rtk32:Shareint.obj
 0003:00002e9c       $SG17957                   1006ee9c     Rtk32:Rtlthread.obj
 0003:00002eb4       $SG1637                    1006eeb4     Rtk32:Mbox.obj
 0003:00002ebc       $SG1639                    1006eebc     Rtk32:Mbox.obj
 0003:00002ec4       $SG1651                    1006eec4     Rtk32:Mbox.obj
 0003:00002ef4       $SG1653                    1006eef4     Rtk32:Mbox.obj
 0003:00002f24       $SG1637                    1006ef24     Rtk32:Sema.obj
 0003:00002f30       $SG1644                    1006ef30     Rtk32:Sema.obj
 0003:00002f48       $SG1647                    1006ef48     Rtk32:Sema.obj
 0003:00002f70       $SG1649                    1006ef70     Rtk32:Sema.obj
 0003:00002f94       $SG1734                    1006ef94     Rtk32:Sema.obj
 0003:00002fb0       $SG1737                    1006efb0     Rtk32:Sema.obj
 0003:00002fc8       $SG1759                    1006efc8     Rtk32:Sema.obj
 0003:00002ff8       $SG1773                    1006eff8     Rtk32:Sema.obj
 0003:00003024       $SG1780                    1006f024     Rtk32:Sema.obj
 0003:00003038       $SG1789                    1006f038     Rtk32:Sema.obj
 0003:00003064       $SG1792                    1006f064     Rtk32:Sema.obj
 0003:00003090       $SG1829                    1006f090     Rtk32:Sema.obj
 0003:000030ac       $SG1836                    1006f0ac     Rtk32:Sema.obj
 0003:000030d0       $SG1838                    1006f0d0     Rtk32:Sema.obj
 0003:000030ec       $SG1847                    1006f0ec     Rtk32:Sema.obj
 0003:00003110       $SG1868                    1006f110     Rtk32:Sema.obj
 0003:00003138       $SG1889                    1006f138     Rtk32:Sema.obj
 0003:0000315c       $SG1896                    1006f15c     Rtk32:Sema.obj
 0003:00003180       $SG1898                    1006f180     Rtk32:Sema.obj
 0003:0000319c       $SG1910                    1006f19c     Rtk32:Sema.obj
 0003:000031c4       $SG1372                    1006f1c4     Rtk32:Userdata.obj
 0003:000031f4       $SG1388                    1006f1f4     Rtk32:Userdata.obj
 0003:00003214       $SG1402                    1006f214     Rtk32:Userdata.obj
 0003:00003234       $SG1414                    1006f234     Rtk32:Userdata.obj
 0003:0000325c       _TOUserData                1006f25c     Rtk32:Rtwin32.obj
 0003:00003260       _WTimerRoot                1006f260     Rtk32:Rtwin32.obj
 0003:00003268       _?TickSpin@?1??GetTickCount@@9@9 1006f268     Rtk32:Rtwin32.obj
 0003:00003278       $SG19604                   1006f278     Rtk32:Rtwin32.obj
 0003:0000328c       $SG19605                   1006f28c     Rtk32:Rtwin32.obj
 0003:0000329c       $SG19612                   1006f29c     Rtk32:Rtwin32.obj
 0003:000032b0       $SG19576                   1006f2b0     Rtk32:Rtwin32.obj
 0003:000032b8       $SG19577                   1006f2b8     Rtk32:Rtwin32.obj
 0003:000032c4       $SG19578                   1006f2c4     Rtk32:Rtwin32.obj
 0003:000032cc       $SG19579                   1006f2cc     Rtk32:Rtwin32.obj
 0003:000032d4       $SG19580                   1006f2d4     Rtk32:Rtwin32.obj
 0003:000032dc       $SG19582                   1006f2dc     Rtk32:Rtwin32.obj
 0003:000032f0       $SG19583                   1006f2f0     Rtk32:Rtwin32.obj
 0003:00003300       $SG19551                   1006f300     Rtk32:Rtwin32.obj
 0003:00003310       $SG19552                   1006f310     Rtk32:Rtwin32.obj
 0003:00003348       $SG19705                   1006f348     Rtk32:Rtwin32.obj
 0003:00003358       $SG19783                   1006f358     Rtk32:Rtwin32.obj
 0003:00003360       $SG19833                   1006f360     Rtk32:Rtwin32.obj
 0003:00003398       $SG1639                    1006f398     Rtk32:Rttrace.obj
 0003:000033a8       RTKHandler                 1006f3a8     Clkpc:Clkpct.obj
 0003:000033bc       NewTimerRel                1006f3bc     Clkpc:Clkpct.obj
 0003:000033c2       Initialized                1006f3c2     Clkpc:Clkpct.obj
 0003:000033c4       $SG19560                   1006f3c4     Drvrt32:Sysrt32.obj
 0003:000033c8       $SG19588                   1006f3c8     Drvrt32:Sysrt32.obj
 0003:000033f0       DataSegment                1006f3f0     Drvrt32:Cpu386f.obj
 0003:000033f2       TraceCPUTime               1006f3f2     Drvrt32:Cpu386f.obj
 0003:000033f4       $SG1599                    1006f3f4     Drvrt32:Tdsgetp.obj
 0003:000033fc       $SG1500                    1006f3fc     Drvrt32:Stheap.obj
 0003:00003418       _Ver                       1006f418     Rtt32:System.obj
 0003:000034b0       $SG19492                   1006f4b0     Rtt32:System.obj
 0003:000034c0       $SG19531                   1006f4c0     Rtt32:System.obj
 0003:000034e8       $SG19590                   1006f4e8     Rtt32:System.obj
 0003:000034f8       $SG19593                   1006f4f8     Rtt32:System.obj
 0003:00003500       $SG19707                   1006f500     Rtt32:System.obj
 0003:00003528       _IntLock                   1006f528     Rtt32:Conin.obj
 0003:00003540       $SG19447                   1006f540     Rtt32:Conin.obj
 0003:00003564       _Blank                     1006f564     Rtt32:Screen.obj
 0003:00003568       _Digit                     1006f568     Rtt32:Screen.obj
 0003:00003580       _IntLock                   1006f580     Rtt32:Cmos.obj
 0003:00003590       $SG19444                   1006f590     Rtt32:Cmos.obj
 0003:000035a0       $SG19458                   1006f5a0     Rtt32:Cmos.obj
 0003:000035b8       $SG19486                   1006f5b8     Rtt32:Cmos.obj
 0003:000035d0       $SG19514                   1006f5d0     Rtt32:Cmos.obj
 0003:000035e8       $SG19547                   1006f5e8     Rtt32:Cmosheap.obj
 0003:00003614       $SG19487                   1006f614     Rtt32:Cmosheap.obj
 0003:00003638       $SG19488                   1006f638     Rtt32:Cmosheap.obj
 0003:00003640       $SG19489                   1006f640     Rtt32:Cmosheap.obj
 0003:0000364c       $SG19490                   1006f64c     Rtt32:Cmosheap.obj
 0003:00003650       $SG19680                   1006f650     Rtt32:Rtmapmem.obj
 0003:00003678       _?DummyMPFPS@?3??_rttFindMPFPS@@9@9 1006f678     Rtt32:Mp.obj
 0003:00003688       _?CanRDTSC@?1??MPDebugHandler@@9@9 1006f688     Rtt32:Mp.obj
 0003:00003690       $SG19649                   1006f690     Rtt32:Mp.obj
 0003:000036b8       $SG19871                   1006f6b8     Rtt32:Mp.obj
 0003:000036e0       $SG20134                   1006f6e0     Rtt32:Mp.obj
 0003:00003700       $SG19820                   1006f700     Rtt32:Mp.obj
 0003:00003730       $SG19706                   1006f730     Rtt32:Mp.obj
 0003:00003740       $SG19727                   1006f740     Rtt32:Mp.obj
 0003:00003750       $SG19752                   1006f750     Rtt32:Mp.obj
 0003:00003778       $SG19593                   1006f778     Rtt32:Mp.obj
 0003:00003790       $SG19945                   1006f790     Rtt32:Mp.obj
 0003:000037d0       $SG20121                   1006f7d0     Rtt32:Mp.obj
 0003:0000380c       $SG20123                   1006f80c     Rtt32:Mp.obj
 0003:00003848       $SG20248                   1006f848     Rtt32:Mp.obj
 0003:00003868       $SG20322                   1006f868     Rtt32:Mp.obj
 0003:00003890       $SG20499                   1006f890     Rtt32:Mp.obj
 0003:000038b8       $SG20514                   1006f8b8     Rtt32:Mp.obj
 0003:000038e8       $SG20562                   1006f8e8     Rtt32:Mp.obj
 0003:00003918       $SG20722                   1006f918     Rtt32:Mp.obj
 0003:0000393c       $SG20739                   1006f93c     Rtt32:Mp.obj
 0003:00003964       $SG20742                   1006f964     Rtt32:Mp.obj
 0003:00003988       $SG20745                   1006f988     Rtt32:Mp.obj
 0003:000039a0       $SG20658                   1006f9a0     Rtt32:Mp.obj
 0003:000039c0       $SG20698                   1006f9c0     Rtt32:Mp.obj
 0003:00003a08       $SG20705                   1006fa08     Rtt32:Mp.obj
 0003:00003a50       $SG20789                   1006fa50     Rtt32:Mp.obj
 0003:00003a78       $SG20791                   1006fa78     Rtt32:Mp.obj
 0003:00003ab8       _Init                      1006fab8     Rtt32:Apicacpi.obj
 0003:00003ac0       _PCIBIOSEntryPoint         1006fac0     Rtt32:Rttbios.obj
 0003:00003ac4       _KEYIRQ                    1006fac4     Rtt32:Keybrd.obj
 0003:00003ac8       _L                         1006fac8     Rtt32:Keybrd.obj
 0003:00003acc       _AllLs                     1006facc     Rtt32:Keybrd.obj
 0003:00003b14       IdleCount                  1006fb14     Rtt32:Rttarget.obj
 0003:00003b18       GMode                      1006fb18     Rtt32:Rttarget.obj
 0003:00003b1c       ExtMem                     1006fb1c     Rtt32:Rttarget.obj
 0003:00003b20       VideoRAM                   1006fb20     Rtt32:Rttarget.obj
 0003:00003b44       $SG19459                   1006fb44     Rtt32:W32lpt.obj
 0003:00003b48       $SG19457                   1006fb48     Rtt32:Confiles.obj
 0003:00003b50       $SG19460                   1006fb50     Rtt32:Confiles.obj
 0003:00003b58       _NextType                  1006fb58     Rtt32:Handles.obj
 0003:00003b5c       $SG19468                   1006fb5c     Rtt32:Handles.obj
 0003:00003b74       $SG19490                   1006fb74     Rtt32:Handles.obj
 0003:00003b90       $SG19503                   1006fb90     Rtt32:Handles.obj
 0003:00003ba4       $SG19590                   1006fba4     Rtt32:Handles.obj
 0003:00003bac       $SG19595                   1006fbac     Rtt32:Handles.obj
 0003:00003bb8       _Lock                      1006fbb8     Rtt32:Loadl.obj
 0003:00003bc8       $SG19450                   1006fbc8     Rtt32:Loadl.obj
 0003:00003bd8       $SG19520                   1006fbd8     Rtt32:Loadl.obj
 0003:00003c04       $SG19529                   1006fc04     Rtt32:Loadl.obj
 0003:00003c38       $SG19626                   1006fc38     Rtt32:Loadl.obj
 0003:00003c40       $SG19577                   1006fc40     Rtt32:Loadl.obj
 0003:00003c50       $SG19578                   1006fc50     Rtt32:Loadl.obj
 0003:00003c5c       $SG19579                   1006fc5c     Rtt32:Loadl.obj
 0003:00003c6c       $SG19580                   1006fc6c     Rtt32:Loadl.obj
 0003:00003c80       $SG19581                   1006fc80     Rtt32:Loadl.obj
 0003:00003c8c       $SG19582                   1006fc8c     Rtt32:Loadl.obj
 0003:00003c9c       $SG19583                   1006fc9c     Rtt32:Loadl.obj
 0003:00003cac       $SG19584                   1006fcac     Rtt32:Loadl.obj
 0003:00003cc0       $SG20065                   1006fcc0     Rtt32:Loadl.obj
 0003:00003ce4       $SG20066                   1006fce4     Rtt32:Loadl.obj
 0003:00003ce8       $SG19683                   1006fce8     Rtt32:Loadl.obj
 0003:00003d04       $SG19688                   1006fd04     Rtt32:Loadl.obj
 0003:00003d20       $SG19693                   1006fd20     Rtt32:Loadl.obj
 0003:00003d3c       $SG19702                   1006fd3c     Rtt32:Loadl.obj
 0003:00003d58       $SG19725                   1006fd58     Rtt32:Loadl.obj
 0003:00003d7c       $SG19737                   1006fd7c     Rtt32:Loadl.obj
 0003:00003d98       $SG19783                   1006fd98     Rtt32:Loadl.obj
 0003:00003db8       $SG19852                   1006fdb8     Rtt32:Loadl.obj
 0003:00003ddc       $SG19854                   1006fddc     Rtt32:Loadl.obj
 0003:00003de0       $SG19872                   1006fde0     Rtt32:Loadl.obj
 0003:00003e00       $SG19874                   1006fe00     Rtt32:Loadl.obj
 0003:00003e04       $SG19878                   1006fe04     Rtt32:Loadl.obj
 0003:00003e08       $SG19964                   1006fe08     Rtt32:Loadl.obj
 0003:00003e0c       $SG19971                   1006fe0c     Rtt32:Loadl.obj
 0003:00003e14       $SG19995                   1006fe14     Rtt32:Loadl.obj
 0003:00003e1c       $SG19996                   1006fe1c     Rtt32:Loadl.obj
 0003:00003e28       $SG19938                   1006fe28     Rtt32:Loadl.obj
 0003:00003e2c       $SG19941                   1006fe2c     Rtt32:Loadl.obj
 0003:00003e34       $SG19944                   1006fe34     Rtt32:Loadl.obj
 0003:00003e40       $SG20159                   1006fe40     Rtt32:Loadl.obj
 0003:00003e50       $SG20163                   1006fe50     Rtt32:Loadl.obj
 0003:00003e6c       $SG20167                   1006fe6c     Rtt32:Loadl.obj
 0003:00003e7c       $SG20171                   1006fe7c     Rtt32:Loadl.obj
 0003:00003e8c       $SG20176                   1006fe8c     Rtt32:Loadl.obj
 0003:00003eb4       $SG20177                   1006feb4     Rtt32:Loadl.obj
 0003:00003ec4       $SG20178                   1006fec4     Rtt32:Loadl.obj
 0003:00003ee4       $SG20208                   1006fee4     Rtt32:Loadl.obj
 0003:00003f00       $SG20211                   1006ff00     Rtt32:Loadl.obj
 0003:00003f0c       $SG20214                   1006ff0c     Rtt32:Loadl.obj
 0003:00003f14       $SG20217                   1006ff14     Rtt32:Loadl.obj
 0003:00003f20       $SG20220                   1006ff20     Rtt32:Loadl.obj
 0003:00003f2c       $SG20223                   1006ff2c     Rtt32:Loadl.obj
 0003:00003f3c       $SG20226                   1006ff3c     Rtt32:Loadl.obj
 0003:00003f50       $SG20229                   1006ff50     Rtt32:Loadl.obj
 0003:00003f5c       $SG20232                   1006ff5c     Rtt32:Loadl.obj
 0003:00003f70       $SG20235                   1006ff70     Rtt32:Loadl.obj
 0003:00003f80       $SG20238                   1006ff80     Rtt32:Loadl.obj
 0003:00003f90       $SG20241                   1006ff90     Rtt32:Loadl.obj
 0003:00003fa0       $SG20244                   1006ffa0     Rtt32:Loadl.obj
 0003:00003fac       $SG20247                   1006ffac     Rtt32:Loadl.obj
 0003:00003fcc       CPUType                    1006ffcc     Rtt32:Inter.obj
 0003:00003fd0       _TZ                        1006ffd0     Rtt32:Systime.obj
 0003:00004080       _CurrentTime               10070080     Rtt32:Systime.obj
 0003:00004098       AllocFlags                 10070098     Rtt32:Tls.obj
 0003:000040bc       IDT                        100700bc     Rtt32:Hltcpl3.obj
 0003:00004a04       _CursorVisible             10070a04     Rtt32:Conout.obj
 0003:00004a05       _CursorHeight              10070a05     Rtt32:Conout.obj
 0003:00004a06       _DefaultAttr               10070a06     Rtt32:Conout.obj
 0003:00004a0c       $SG19527                   10070a0c     Rtt32:Uefitables.obj
 0003:00004ad8       NewESP                     10070ad8     Rtt32:Mpasm.obj
 0003:00004adc       $SG19474                   10070adc     Rtt32:Ispfp.obj
 0003:00004aec       $SG21878                   10070aec     Rtt32:Mpacpi.obj
 0003:00004b08       $SG21882                   10070b08     Rtt32:Mpacpi.obj
 0003:00004b10       $SG21883                   10070b10     Rtt32:Mpacpi.obj
 0003:00004b34       $SG21899                   10070b34     Rtt32:Mpacpi.obj
 0003:00004b50       $SG21900                   10070b50     Rtt32:Mpacpi.obj
 0003:00004b54       $SG21901                   10070b54     Rtt32:Mpacpi.obj
 0003:00004b5c       $SG21696                   10070b5c     Rtt32:Mpacpi.obj
 0003:00004b64       $SG21812                   10070b64     Rtt32:Mpacpi.obj
 0003:00004b6c       $SG21824                   10070b6c     Rtt32:Mpacpi.obj
 0003:00004b74       $SG21830                   10070b74     Rtt32:Mpacpi.obj
 0003:00004bb0       $SG21832                   10070bb0     Rtt32:Mpacpi.obj
 0003:00004bf0       $SG21834                   10070bf0     Rtt32:Mpacpi.obj
 0003:00004bf4       $SG21758                   10070bf4     Rtt32:Mpacpi.obj
 0003:00004c38       $SG21762                   10070c38     Rtt32:Mpacpi.obj
 0003:00004c60       _ACPI_GUIDs                10070c60     Rtt32:Acpi.obj
 0003:00004c74       $SG19712                   10070c74     Rtt32:Acpi.obj
 0003:00004c80       $SG19716                   10070c80     Rtt32:Acpi.obj
 0003:00004c8c       $SG19719                   10070c8c     Rtt32:Acpi.obj
 0003:00004c98       _PortBase                  10070c98     Rtt32:Pport.obj
 0003:00004cac       $SG19505                   10070cac     Rtt32:Files.obj
 0003:00004cb0       $SG19508                   10070cb0     Rtt32:Files.obj
 0003:00004cb8       $SG19509                   10070cb8     Rtt32:Files.obj
 0003:00004cc0       $SG19512                   10070cc0     Rtt32:Files.obj
 0003:00004cc4       $SG19515                   10070cc4     Rtt32:Files.obj
 0003:00004cc8       $SG19517                   10070cc8     Rtt32:Files.obj
 0003:00004ccc       $SG19519                   10070ccc     Rtt32:Files.obj
 0003:00004cd0       $SG19521                   10070cd0     Rtt32:Files.obj
 0003:00004cd8       $SG19523                   10070cd8     Rtt32:Files.obj
 0003:00004ce4       $SG19525                   10070ce4     Rtt32:Files.obj
 0003:00004ce8       $SG19527                   10070ce8     Rtt32:Files.obj
 0003:00004cec       $SG19529                   10070cec     Rtt32:Files.obj
 0003:00004cfc       $SG19531                   10070cfc     Rtt32:Files.obj
 0003:00004d00       _Heap                      10070d00     Rtt32:Heap.obj
 0003:00004d40       _ProcessHeap               10070d40     Rtt32:Heap.obj
 0003:00004d48       $SG19490                   10070d48     Rtt32:Heap.obj
 0003:00004d70       $SG19617                   10070d70     Rtt32:Heap.obj
 0003:00004da0       $SG19771                   10070da0     Rtt32:Heap.obj
 0003:00004dc0       $SG19799                   10070dc0     Rtt32:Heap.obj
 0003:00004de0       $SG19858                   10070de0     Rtt32:Heap.obj
 0003:00004e04       _Str2                      10070e04     Rtt32:Wchar.obj
 0003:00004e08       _CurrentCodePage           10070e08     Rtt32:Wchar.obj
 0003:00004e0c       _UnicodeMap                10070e0c     Rtt32:Wchar.obj
 0003:00004e10       $SG19827                   10070e10     Rtt32:Wchar.obj
 0003:00004e30       _DayShort                  10070e30     Rtt32:Getdatef.obj
 0003:00004e4c       _DayLong                   10070e4c     Rtt32:Getdatef.obj
 0003:00004e68       _MonthShort                10070e68     Rtt32:Getdatef.obj
 0003:00004e98       _MonthLong                 10070e98     Rtt32:Getdatef.obj
 0003:00004ec8       _DefaultFormatD            10070ec8     Rtt32:Getdatef.obj
 0003:00004ecc       _DefaultFormatT            10070ecc     Rtt32:Getdatef.obj
 0003:00004ed0       $SG19440                   10070ed0     Rtt32:Getdatef.obj
 0003:00004ed4       $SG19441                   10070ed4     Rtt32:Getdatef.obj
 0003:00004ed8       $SG19442                   10070ed8     Rtt32:Getdatef.obj
 0003:00004edc       $SG19443                   10070edc     Rtt32:Getdatef.obj
 0003:00004ee0       $SG19444                   10070ee0     Rtt32:Getdatef.obj
 0003:00004ee4       $SG19445                   10070ee4     Rtt32:Getdatef.obj
 0003:00004ee8       $SG19446                   10070ee8     Rtt32:Getdatef.obj
 0003:00004eec       $SG19448                   10070eec     Rtt32:Getdatef.obj
 0003:00004ef4       $SG19449                   10070ef4     Rtt32:Getdatef.obj
 0003:00004efc       $SG19450                   10070efc     Rtt32:Getdatef.obj
 0003:00004f04       $SG19451                   10070f04     Rtt32:Getdatef.obj
 0003:00004f10       $SG19452                   10070f10     Rtt32:Getdatef.obj
 0003:00004f1c       $SG19453                   10070f1c     Rtt32:Getdatef.obj
 0003:00004f24       $SG19454                   10070f24     Rtt32:Getdatef.obj
 0003:00004f30       $SG19456                   10070f30     Rtt32:Getdatef.obj
 0003:00004f34       $SG19457                   10070f34     Rtt32:Getdatef.obj
 0003:00004f38       $SG19458                   10070f38     Rtt32:Getdatef.obj
 0003:00004f3c       $SG19459                   10070f3c     Rtt32:Getdatef.obj
 0003:00004f40       $SG19460                   10070f40     Rtt32:Getdatef.obj
 0003:00004f44       $SG19461                   10070f44     Rtt32:Getdatef.obj
 0003:00004f48       $SG19462                   10070f48     Rtt32:Getdatef.obj
 0003:00004f4c       $SG19463                   10070f4c     Rtt32:Getdatef.obj
 0003:00004f50       $SG19464                   10070f50     Rtt32:Getdatef.obj
 0003:00004f54       $SG19465                   10070f54     Rtt32:Getdatef.obj
 0003:00004f58       $SG19466                   10070f58     Rtt32:Getdatef.obj
 0003:00004f5c       $SG19467                   10070f5c     Rtt32:Getdatef.obj
 0003:00004f60       $SG19469                   10070f60     Rtt32:Getdatef.obj
 0003:00004f68       $SG19470                   10070f68     Rtt32:Getdatef.obj
 0003:00004f74       $SG19471                   10070f74     Rtt32:Getdatef.obj
 0003:00004f7c       $SG19472                   10070f7c     Rtt32:Getdatef.obj
 0003:00004f84       $SG19473                   10070f84     Rtt32:Getdatef.obj
 0003:00004f88       $SG19474                   10070f88     Rtt32:Getdatef.obj
 0003:00004f90       $SG19475                   10070f90     Rtt32:Getdatef.obj
 0003:00004f98       $SG19476                   10070f98     Rtt32:Getdatef.obj
 0003:00004fa0       $SG19477                   10070fa0     Rtt32:Getdatef.obj
 0003:00004fac       $SG19478                   10070fac     Rtt32:Getdatef.obj
 0003:00004fb4       $SG19479                   10070fb4     Rtt32:Getdatef.obj
 0003:00004fc0       $SG19480                   10070fc0     Rtt32:Getdatef.obj
 0003:00004fcc       $SG19483                   10070fcc     Rtt32:Getdatef.obj
 0003:00004fd8       $SG19485                   10070fd8     Rtt32:Getdatef.obj
 0003:00005000       ?__vcrt_flsindex@@3KA      10071000     libvcruntime:per_thread_data.obj
 0003:00005024       ?errno_no_memory@@3HA      10071024     libucrt:errno.obj
 0003:00005028       ?doserrno_no_memory@@3KA   10071028     libucrt:errno.obj
 0003:0000502c       ?__acrt_flsindex@@3KA      1007102c     libucrt:per_thread_data.obj
 0003:000053c0       __mbctypes                 100713c0     libucrt:mbctype.obj
 0003:000054c8       __mbcasemaps               100714c8     libucrt:mbctype.obj
 0003:000055c8       ?__rgctypeflag@@3PADA      100715c8     libucrt:mbctype.obj
 0003:000055d0       ?__rgcode_page_info@@3PAUcode_page_info@@A 100715d0     libucrt:mbctype.obj
 0003:00005720       ?__dcrt_lowio_console_output_handle@@3PAXA 10071720     libucrt:initcon.obj
 0003:00005724       $SG5576                    10071724     Acpica:utxface.obj
 0003:0000574c       $SG6327                    1007174c     Acpica:nsxfeval.obj
 0003:00005774       $SG6415                    10071774     Acpica:utxfinit.obj
 0003:00005790       $SG6417                    10071790     Acpica:utxfinit.obj
 0003:000057b4       $SG6419                    100717b4     Acpica:utxfinit.obj
 0003:000057d4       $SG6421                    100717d4     Acpica:utxfinit.obj
 0003:000057f4       $SG6423                    100717f4     Acpica:utxfinit.obj
 0003:0000581c       $SG6432                    1007181c     Acpica:utxfinit.obj
 0003:00005830       $SG6434                    10071830     Acpica:utxfinit.obj
 0003:00005850       $SG5876                    10071850     Acpica:tbxfload.obj
 0003:0000587c       $SG5889                    1007187c     Acpica:tbxfload.obj
 0003:00005884       $SG5914                    10071884     Acpica:tbxfload.obj
 0003:0000588c       $SG5915                    1007188c     Acpica:tbxfload.obj
 0003:00005894       $SG5919                    10071894     Acpica:tbxfload.obj
 0003:000058bc       _SupportedTables           100718bc     Acpica:osontime.obj
 0003:000058cc       $SG21870                   100718cc     Acpica:osontime.obj
 0003:000058d4       $SG21871                   100718d4     Acpica:osontime.obj
 0003:000058dc       $SG21872                   100718dc     Acpica:osontime.obj
 0003:000058e4       $SG21873                   100718e4     Acpica:osontime.obj
 0003:000058ec       $SG5994                    100718ec     Acpica:nsxfname.obj
 0003:000058f0       $SG5334                    100718f0     Acpica:utmutex.obj
 0003:0000591c       $SG5342                    1007191c     Acpica:utmutex.obj
 0003:00005a08       $SG5286                    10071a08     Acpica:utglobal.obj
 0003:00005a10       $SG5287                    10071a10     Acpica:utglobal.obj
 0003:00005a18       $SG5288                    10071a18     Acpica:utglobal.obj
 0003:00005a20       $SG5289                    10071a20     Acpica:utglobal.obj
 0003:00005a28       $SG5290                    10071a28     Acpica:utglobal.obj
 0003:00005a30       $SG5291                    10071a30     Acpica:utglobal.obj
 0003:00005a38       $SG5292                    10071a38     Acpica:utglobal.obj
 0003:00005a40       $SG5293                    10071a40     Acpica:utglobal.obj
 0003:00005a48       $SG5294                    10071a48     Acpica:utglobal.obj
 0003:00005a50       $SG5295                    10071a50     Acpica:utglobal.obj
 0003:00005a58       $SG5296                    10071a58     Acpica:utglobal.obj
 0003:00005a60       $SG5297                    10071a60     Acpica:utglobal.obj
 0003:00005a68       $SG5298                    10071a68     Acpica:utglobal.obj
 0003:00005a70       $SG5299                    10071a70     Acpica:utglobal.obj
 0003:00005a78       $SG5300                    10071a78     Acpica:utglobal.obj
 0003:00005a80       $SG5301                    10071a80     Acpica:utglobal.obj
 0003:00005a88       $SG5303                    10071a88     Acpica:utglobal.obj
 0003:00005a90       $SG5305                    10071a90     Acpica:utglobal.obj
 0003:00005a98       $SG5307                    10071a98     Acpica:utglobal.obj
 0003:00005aa0       $SG5309                    10071aa0     Acpica:utglobal.obj
 0003:00005aa8       $SG5311                    10071aa8     Acpica:utglobal.obj
 0003:00005ab0       $SG5313                    10071ab0     Acpica:utglobal.obj
 0003:00005ab8       $SG5314                    10071ab8     Acpica:utglobal.obj
 0003:00005ad0       $SG5315                    10071ad0     Acpica:utglobal.obj
 0003:00005ad8       $SG5317                    10071ad8     Acpica:utglobal.obj
 0003:00005ae0       $SG5294                    10071ae0     Acpica:utxferror.obj
 0003:00005af0       $SG5299                    10071af0     Acpica:utxferror.obj
 0003:00005b00       $SG5312                    10071b00     Acpica:utxferror.obj
 0003:00005b18       $SG5317                    10071b18     Acpica:utxferror.obj
 0003:00005b28       $SG5328                    10071b28     Acpica:utxferror.obj
 0003:00005b38       $SG5333                    10071b38     Acpica:utxferror.obj
 0003:00005b48       $SG5344                    10071b48     Acpica:utxferror.obj
 0003:00005b50       $SG5349                    10071b50     Acpica:utxferror.obj
 0003:00005b54       $SG5360                    10071b54     Acpica:utxferror.obj
 0003:00005b6c       $SG5365                    10071b6c     Acpica:utxferror.obj
 0003:00005b7c       $SG5376                    10071b7c     Acpica:utxferror.obj
 0003:00005b98       $SG5381                    10071b98     Acpica:utxferror.obj
 0003:00005ba8       $SG5583                    10071ba8     Acpica:utalloc.obj
 0003:00005bb8       $SG5586                    10071bb8     Acpica:utalloc.obj
 0003:00005bc4       $SG5589                    10071bc4     Acpica:utalloc.obj
 0003:00005bd0       $SG5592                    10071bd0     Acpica:utalloc.obj
 0003:00005be0       $SG5595                    10071be0     Acpica:utalloc.obj
 0003:00005bf0       _AcpiDefaultSupportedInterfaces 10071bf0     Acpica:utosi.obj
 0003:00005cd4       $SG5287                    10071cd4     Acpica:utosi.obj
 0003:00005ce4       $SG5289                    10071ce4     Acpica:utosi.obj
 0003:00005cf4       $SG5291                    10071cf4     Acpica:utosi.obj
 0003:00005d08       $SG5293                    10071d08     Acpica:utosi.obj
 0003:00005d18       $SG5295                    10071d18     Acpica:utosi.obj
 0003:00005d2c       $SG5297                    10071d2c     Acpica:utosi.obj
 0003:00005d40       $SG5299                    10071d40     Acpica:utosi.obj
 0003:00005d50       $SG5301                    10071d50     Acpica:utosi.obj
 0003:00005d60       $SG5303                    10071d60     Acpica:utosi.obj
 0003:00005d74       $SG5305                    10071d74     Acpica:utosi.obj
 0003:00005d88       $SG5307                    10071d88     Acpica:utosi.obj
 0003:00005d98       $SG5309                    10071d98     Acpica:utosi.obj
 0003:00005da8       $SG5311                    10071da8     Acpica:utosi.obj
 0003:00005db8       $SG5313                    10071db8     Acpica:utosi.obj
 0003:00005ddc       $SG5315                    10071ddc     Acpica:utosi.obj
 0003:00005dec       $SG5317                    10071dec     Acpica:utosi.obj
 0003:00005e00       $SG5319                    10071e00     Acpica:utosi.obj
 0003:00005e14       $SG5321                    10071e14     Acpica:utosi.obj
 0003:00005e28       $SG5323                    10071e28     Acpica:utosi.obj
 0003:00005e70       _AcpiGbl_EventTypes        10071e70     Acpica:utdecode.obj
 0003:00005e84       _AcpiGbl_NsTypeNames       10071e84     Acpica:utdecode.obj
 0003:00005f00       _AcpiGbl_DescTypeNames     10071f00     Acpica:utdecode.obj
 0003:00005f40       _AcpiGbl_RefClassNames     10071f40     Acpica:utdecode.obj
 0003:00005f5c       $SG5691                    10071f5c     Acpica:utdecode.obj
 0003:00005f6c       $SG5692                    10071f6c     Acpica:utdecode.obj
 0003:00005f78       $SG5693                    10071f78     Acpica:utdecode.obj
 0003:00005f84       $SG5694                    10071f84     Acpica:utdecode.obj
 0003:00005f94       $SG5695                    10071f94     Acpica:utdecode.obj
 0003:00005f9c       $SG5696                    10071f9c     Acpica:utdecode.obj
 0003:00005fa8       $SG5697                    10071fa8     Acpica:utdecode.obj
 0003:00005fb8       $SG5698                    10071fb8     Acpica:utdecode.obj
 0003:00005fc0       $SG5699                    10071fc0     Acpica:utdecode.obj
 0003:00005fd4       $SG5700                    10071fd4     Acpica:utdecode.obj
 0003:00005fe8       $SG5701                    10071fe8     Acpica:utdecode.obj
 0003:00005fec       $SG5721                    10071fec     Acpica:utdecode.obj
 0003:00005ff8       $SG5722                    10071ff8     Acpica:utdecode.obj
 0003:00006004       $SG5723                    10072004     Acpica:utdecode.obj
 0003:00006010       $SG5724                    10072010     Acpica:utdecode.obj
 0003:0000601c       $SG5725                    1007201c     Acpica:utdecode.obj
 0003:0000602c       $SG5735                    1007202c     Acpica:utdecode.obj
 0003:00006034       $SG5736                    10072034     Acpica:utdecode.obj
 0003:0000603c       $SG5737                    1007203c     Acpica:utdecode.obj
 0003:00006044       $SG5738                    10072044     Acpica:utdecode.obj
 0003:0000604c       $SG5739                    1007204c     Acpica:utdecode.obj
 0003:00006054       $SG5740                    10072054     Acpica:utdecode.obj
 0003:00006060       $SG5741                    10072060     Acpica:utdecode.obj
 0003:00006068       $SG5742                    10072068     Acpica:utdecode.obj
 0003:00006070       $SG5743                    10072070     Acpica:utdecode.obj
 0003:00006078       $SG5744                    10072078     Acpica:utdecode.obj
 0003:00006080       $SG5745                    10072080     Acpica:utdecode.obj
 0003:00006088       $SG5746                    10072088     Acpica:utdecode.obj
 0003:00006090       $SG5747                    10072090     Acpica:utdecode.obj
 0003:0000609c       $SG5748                    1007209c     Acpica:utdecode.obj
 0003:000060a4       $SG5749                    100720a4     Acpica:utdecode.obj
 0003:000060b0       $SG5750                    100720b0     Acpica:utdecode.obj
 0003:000060bc       $SG5751                    100720bc     Acpica:utdecode.obj
 0003:000060c8       $SG5752                    100720c8     Acpica:utdecode.obj
 0003:000060d4       $SG5753                    100720d4     Acpica:utdecode.obj
 0003:000060e0       $SG5754                    100720e0     Acpica:utdecode.obj
 0003:000060ec       $SG5755                    100720ec     Acpica:utdecode.obj
 0003:000060f8       $SG5756                    100720f8     Acpica:utdecode.obj
 0003:00006100       $SG5757                    10072100     Acpica:utdecode.obj
 0003:0000610c       $SG5758                    1007210c     Acpica:utdecode.obj
 0003:00006114       $SG5759                    10072114     Acpica:utdecode.obj
 0003:00006120       $SG5760                    10072120     Acpica:utdecode.obj
 0003:00006130       $SG5761                    10072130     Acpica:utdecode.obj
 0003:0000613c       $SG5762                    1007213c     Acpica:utdecode.obj
 0003:00006144       $SG5763                    10072144     Acpica:utdecode.obj
 0003:0000614c       $SG5764                    1007214c     Acpica:utdecode.obj
 0003:00006154       $SG5765                    10072154     Acpica:utdecode.obj
 0003:0000615c       $SG5802                    1007215c     Acpica:utdecode.obj
 0003:00006170       $SG5803                    10072170     Acpica:utdecode.obj
 0003:00006178       $SG5804                    10072178     Acpica:utdecode.obj
 0003:00006188       $SG5805                    10072188     Acpica:utdecode.obj
 0003:00006198       $SG5806                    10072198     Acpica:utdecode.obj
 0003:000061a8       $SG5807                    100721a8     Acpica:utdecode.obj
 0003:000061b8       $SG5808                    100721b8     Acpica:utdecode.obj
 0003:000061d0       $SG5809                    100721d0     Acpica:utdecode.obj
 0003:000061e4       $SG5810                    100721e4     Acpica:utdecode.obj
 0003:000061f4       $SG5811                    100721f4     Acpica:utdecode.obj
 0003:00006204       $SG5812                    10072204     Acpica:utdecode.obj
 0003:00006214       $SG5813                    10072214     Acpica:utdecode.obj
 0003:00006224       $SG5814                    10072224     Acpica:utdecode.obj
 0003:0000622c       $SG5815                    1007222c     Acpica:utdecode.obj
 0003:00006234       $SG5816                    10072234     Acpica:utdecode.obj
 0003:0000623c       $SG5817                    1007223c     Acpica:utdecode.obj
 0003:00006244       $SG5832                    10072244     Acpica:utdecode.obj
 0003:0000624c       $SG5833                    1007224c     Acpica:utdecode.obj
 0003:00006258       $SG5834                    10072258     Acpica:utdecode.obj
 0003:00006260       $SG5835                    10072260     Acpica:utdecode.obj
 0003:00006268       $SG5836                    10072268     Acpica:utdecode.obj
 0003:00006274       $SG5837                    10072274     Acpica:utdecode.obj
 0003:00006284       $SG5838                    10072284     Acpica:utdecode.obj
 0003:0000628c       $SG5706                    1007228c     Acpica:utdecode.obj
 0003:000062a0       $SG5710                    100722a0     Acpica:utdecode.obj
 0003:000062ac       $SG5714                    100722ac     Acpica:utdecode.obj
 0003:000062c0       $SG5717                    100722c0     Acpica:utdecode.obj
 0003:000062d0       $SG5730                    100722d0     Acpica:utdecode.obj
 0003:000062e0       $SG5778                    100722e0     Acpica:utdecode.obj
 0003:000062fc       $SG5785                    100722fc     Acpica:utdecode.obj
 0003:00006304       $SG5796                    10072304     Acpica:utdecode.obj
 0003:0000630c       $SG5800                    1007230c     Acpica:utdecode.obj
 0003:00006314       $SG5822                    10072314     Acpica:utdecode.obj
 0003:00006320       $SG5826                    10072320     Acpica:utdecode.obj
 0003:00006334       $SG5843                    10072334     Acpica:utdecode.obj
 0003:00006340       $SG5847                    10072340     Acpica:utdecode.obj
 0003:00006358       $SG5849                    10072358     Acpica:utdecode.obj
 0003:00006370       $SG5851                    10072370     Acpica:utdecode.obj
 0003:00006388       $SG6680                    10072388     Acpica:utdelete.obj
 0003:000063b0       $SG6607                    100723b0     Acpica:utdelete.obj
 0003:000063e4       $SG6612                    100723e4     Acpica:utdelete.obj
 0003:00006420       $SG6615                    10072420     Acpica:utdelete.obj
 0003:00006448       $SG6617                    10072448     Acpica:utdelete.obj
 0003:00006480       $SG6574                    10072480     Acpica:utdelete.obj
 0003:000064b4       $SG5904                    100724b4     Acpica:exutils.obj
 0003:000064dc       $SG5909                    100724dc     Acpica:exutils.obj
 0003:00006504       $SG5930                    10072504     Acpica:exutils.obj
 0003:00006524       $SG5937                    10072524     Acpica:exutils.obj
 0003:00006544       $SG5964                    10072544     Acpica:exutils.obj
 0003:00006588       $SG5802                    10072588     Acpica:utcopy.obj
 0003:000065c8       $SG5919                    100725c8     Acpica:utcopy.obj
 0003:00006608       $SG6063                    10072608     Acpica:utcopy.obj
 0003:00006624       $SG5762                    10072624     Acpica:utobject.obj
 0003:00006640       $SG5775                    10072640     Acpica:utobject.obj
 0003:0000665c       $SG5799                    1007265c     Acpica:utobject.obj
 0003:00006684       $SG5809                    10072684     Acpica:utobject.obj
 0003:000066ac       $SG5855                    100726ac     Acpica:utobject.obj
 0003:00006704       $SG5858                    10072704     Acpica:utobject.obj
 0003:00006750       $SG6523                    10072750     Acpica:nseval.obj
 0003:00006778       $SG6529                    10072778     Acpica:nseval.obj
 0003:000067ac       $SG6534                    100727ac     Acpica:nseval.obj
 0003:000067d4       $SG6565                    100727d4     Acpica:nseval.obj
 0003:0000680c       $SG5704                    1007280c     Acpica:uterror.obj
 0003:00006820       $SG5709                    10072820     Acpica:uterror.obj
 0003:00006830       $SG5725                    10072830     Acpica:uterror.obj
 0003:0000683c       $SG5730                    1007283c     Acpica:uterror.obj
 0003:0000684c       $SG5746                    1007284c     Acpica:uterror.obj
 0003:00006868       $SG5751                    10072868     Acpica:uterror.obj
 0003:00006878       $SG5767                    10072878     Acpica:uterror.obj
 0003:00006888       $SG5776                    10072888     Acpica:uterror.obj
 0003:000068a0       $SG5782                    100728a0     Acpica:uterror.obj
 0003:000068a8       $SG5784                    100728a8     Acpica:uterror.obj
 0003:000068c8       $SG5786                    100728c8     Acpica:uterror.obj
 0003:000068e8       $SG5787                    100728e8     Acpica:uterror.obj
 0003:000068f8       $SG5803                    100728f8     Acpica:uterror.obj
 0003:00006908       $SG5806                    10072908     Acpica:uterror.obj
 0003:0000692c       $SG5807                    1007292c     Acpica:uterror.obj
 0003:00006934       $SG5808                    10072934     Acpica:uterror.obj
 0003:00006944       $SG5737                    10072944     Acpica:nsutils.obj
 0003:00006950       $SG5741                    10072950     Acpica:nsutils.obj
 0003:00006954       $SG5743                    10072954     Acpica:nsutils.obj
 0003:00006964       $SG5748                    10072964     Acpica:nsutils.obj
 0003:00006978       $SG5753                    10072978     Acpica:nsutils.obj
 0003:00006994       $SG5893                    10072994     Acpica:nsutils.obj
 0003:000069ac       $SG5941                    100729ac     Acpica:nsutils.obj
 0003:000069c8       $SG5711                    100729c8     Acpica:uteval.obj
 0003:000069e0       $SG5716                    100729e0     Acpica:uteval.obj
 0003:000069fc       $SG5730                    100729fc     Acpica:uteval.obj
 0003:00006a1c       $SG5731                    10072a1c     Acpica:uteval.obj
 0003:00006a5c       $SG5866                    10072a5c     Acpica:utids.obj
 0003:00006a64       $SG5952                    10072a64     Acpica:utids.obj
 0003:00006a6c       $SG5702                    10072a6c     Acpica:nsobject.obj
 0003:00006a84       $SG5705                    10072a84     Acpica:nsobject.obj
 0003:00006aac       $SG5710                    10072aac     Acpica:nsobject.obj
 0003:00006ac4       $SG5751                    10072ac4     Acpica:nsobject.obj
 0003:00006ad4       $SG6114                    10072ad4     Acpica:nsaccess.obj
 0003:00006adc       $SG6118                    10072adc     Acpica:nsaccess.obj
 0003:00006b00       $SG6121                    10072b00     Acpica:nsaccess.obj
 0003:00006b24       $SG6160                    10072b24     Acpica:nsaccess.obj
 0003:00006b2c       $SG6163                    10072b2c     Acpica:nsaccess.obj
 0003:00006b50       $SG6168                    10072b50     Acpica:nsaccess.obj
 0003:00006b58       $SG6209                    10072b58     Acpica:nsaccess.obj
 0003:00006b78       $SG6228                    10072b78     Acpica:nsaccess.obj
 0003:00006bc0       $SG6267                    10072bc0     Acpica:nsaccess.obj
 0003:00006bfc       $SG5550                    10072bfc     Acpica:evevent.obj
 0003:00006c20       $SG5552                    10072c20     Acpica:evevent.obj
 0003:00006c4c       $SG5559                    10072c4c     Acpica:evevent.obj
 0003:00006c80       $SG5561                    10072c80     Acpica:evevent.obj
 0003:00006cac       $SG5594                    10072cac     Acpica:evevent.obj
 0003:00006cec       $SG5485                    10072cec     Acpica:tbutils.obj
 0003:00006d30       $SG5493                    10072d30     Acpica:tbutils.obj
 0003:00006d54       $SG5504                    10072d54     Acpica:tbutils.obj
 0003:00006d98       $SG5561                    10072d98     Acpica:tbutils.obj
 0003:00006dc0       $SG5584                    10072dc0     Acpica:tbutils.obj
 0003:00006dc8       $SG5528                    10072dc8     Acpica:tbutils.obj
 0003:00006e10       $SG5476                    10072e10     Acpica:evxfevnt.obj
 0003:00006e34       $SG5486                    10072e34     Acpica:evxfevnt.obj
 0003:00006e5c       $SG5500                    10072e5c     Acpica:evxfevnt.obj
 0003:00006e78       $SG5515                    10072e78     Acpica:evxfevnt.obj
 0003:00006e94       $SG5294                    10072e94     Acpica:hwacpi.obj
 0003:00006ec0       $SG5297                    10072ec0     Acpica:hwacpi.obj
 0003:00006f0c       $SG5310                    10072f0c     Acpica:hwacpi.obj
 0003:00006f30       $SG5316                    10072f30     Acpica:hwacpi.obj
 0003:00006f50       $SG6563                    10072f50     Acpica:evregion.obj
 0003:00006f78       $SG6567                    10072f78     Acpica:evregion.obj
 0003:00006f9c       $SG6570                    10072f9c     Acpica:evregion.obj
 0003:00006fc0       $SG6579                    10072fc0     Acpica:evregion.obj
 0003:00006fe0       $SG6604                    10072fe0     Acpica:evregion.obj
 0003:00006ff8       $SG6611                    10072ff8     Acpica:evregion.obj
 0003:00007020       $SG6614                    10073020     Acpica:evregion.obj
 0003:0000704c       $SG6698                    1007304c     Acpica:evregion.obj
 0003:00007054       $SG5983                    10073054     Acpica:tbdata.obj
 0003:0000708c       $SG5990                    1007308c     Acpica:tbdata.obj
 0003:00007094       $SG5991                    10073094     Acpica:tbdata.obj
 0003:000070c4       $SG5998                    100730c4     Acpica:tbdata.obj
 0003:000070f0       $SG6006                    100730f0     Acpica:tbdata.obj
 0003:00007118       $SG5506                    10073118     Acpica:tbinstal.obj
 0003:00007144       $SG5511                    10073144     Acpica:tbinstal.obj
 0003:0000716c       $SG5532                    1007316c     Acpica:tbinstal.obj
 0003:00007194       $SG5538                    10073194     Acpica:tbinstal.obj
 0003:0000719c       $SG5541                    1007319c     Acpica:tbinstal.obj
 0003:000071c4       $SG5552                    100731c4     Acpica:tbinstal.obj
 0003:000071cc       $SG5553                    100731cc     Acpica:tbinstal.obj
 0003:000071d0       $SG5554                    100731d0     Acpica:tbinstal.obj
 0003:000071d8       $SG5555                    100731d8     Acpica:tbinstal.obj
 0003:0000721c       $SG5584                    1007321c     Acpica:tbinstal.obj
 0003:00007224       $SG5587                    10073224     Acpica:tbinstal.obj
 0003:00007230       $SG5592                    10073230     Acpica:tbinstal.obj
 0003:00007264       $SG5752                    10073264     Acpica:nsnames.obj
 0003:000072a8       $SG5766                    100732a8     Acpica:nsnames.obj
 0003:000072c4       $SG5781                    100732c4     Acpica:nsnames.obj
 0003:000072fc       $SG5696                    100732fc     Acpica:utmisc.obj
 0003:00007304       $SG5697                    10073304     Acpica:utmisc.obj
 0003:0000730c       $SG6409                    1007330c     Acpica:psargs.obj
 0003:00007338       $SG6473                    10073338     Acpica:psargs.obj
 0003:00007350       $SG6644                    10073350     Acpica:psargs.obj
 0003:00007368       $SG6654                    10073368     Acpica:psparse.obj
 0003:00007388       $SG6452                    10073388     Acpica:rsutils.obj
 0003:00007390       $SG6461                    10073390     Acpica:rsutils.obj
 0003:00007398       $SG5999                    10073398     Acpica:evmisc.obj
 0003:000073bc       $SG6002                    100733bc     Acpica:evmisc.obj
 0003:000073e4       $SG6004                    100733e4     Acpica:evmisc.obj
 0003:00007404       $SG6008                    10073404     Acpica:evmisc.obj
 0003:00007418       $SG373                     10073418     Acpica:utexcep.obj
 0003:00007420       $SG374                     10073420     Acpica:utexcep.obj
 0003:0000742c       $SG375                     1007342c     Acpica:utexcep.obj
 0003:00007440       $SG376                     10073440     Acpica:utexcep.obj
 0003:00007450       $SG377                     10073450     Acpica:utexcep.obj
 0003:00007460       $SG378                     10073460     Acpica:utexcep.obj
 0003:00007470       $SG379                     10073470     Acpica:utexcep.obj
 0003:00007480       $SG380                     10073480     Acpica:utexcep.obj
 0003:00007494       $SG381                     10073494     Acpica:utexcep.obj
 0003:0000749c       $SG382                     1007349c     Acpica:utexcep.obj
 0003:000074ac       $SG383                     100734ac     Acpica:utexcep.obj
 0003:000074bc       $SG384                     100734bc     Acpica:utexcep.obj
 0003:000074d0       $SG385                     100734d0     Acpica:utexcep.obj
 0003:000074e4       $SG386                     100734e4     Acpica:utexcep.obj
 0003:000074f8       $SG387                     100734f8     Acpica:utexcep.obj
 0003:0000750c       $SG388                     1007350c     Acpica:utexcep.obj
 0003:00007518       $SG389                     10073518     Acpica:utexcep.obj
 0003:00007524       $SG390                     10073524     Acpica:utexcep.obj
 0003:0000752c       $SG391                     1007352c     Acpica:utexcep.obj
 0003:00007540       $SG392                     10073540     Acpica:utexcep.obj
 0003:00007554       $SG393                     10073554     Acpica:utexcep.obj
 0003:00007564       $SG394                     10073564     Acpica:utexcep.obj
 0003:00007578       $SG395                     10073578     Acpica:utexcep.obj
 0003:00007590       $SG396                     10073590     Acpica:utexcep.obj
 0003:000075a4       $SG397                     100735a4     Acpica:utexcep.obj
 0003:000075b4       $SG398                     100735b4     Acpica:utexcep.obj
 0003:000075c4       $SG399                     100735c4     Acpica:utexcep.obj
 0003:000075d4       $SG400                     100735d4     Acpica:utexcep.obj
 0003:000075e8       $SG401                     100735e8     Acpica:utexcep.obj
 0003:000075fc       $SG402                     100735fc     Acpica:utexcep.obj
 0003:00007608       $SG405                     10073608     Acpica:utexcep.obj
 0003:0000761c       $SG406                     1007361c     Acpica:utexcep.obj
 0003:00007630       $SG407                     10073630     Acpica:utexcep.obj
 0003:00007640       $SG408                     10073640     Acpica:utexcep.obj
 0003:0000764c       $SG409                     1007364c     Acpica:utexcep.obj
 0003:00007660       $SG410                     10073660     Acpica:utexcep.obj
 0003:00007678       $SG411                     10073678     Acpica:utexcep.obj
 0003:00007690       $SG412                     10073690     Acpica:utexcep.obj
 0003:000076a8       $SG413                     100736a8     Acpica:utexcep.obj
 0003:000076b8       $SG416                     100736b8     Acpica:utexcep.obj
 0003:000076cc       $SG417                     100736cc     Acpica:utexcep.obj
 0003:000076dc       $SG418                     100736dc     Acpica:utexcep.obj
 0003:000076ec       $SG419                     100736ec     Acpica:utexcep.obj
 0003:000076fc       $SG420                     100736fc     Acpica:utexcep.obj
 0003:00007714       $SG423                     10073714     Acpica:utexcep.obj
 0003:00007728       $SG424                     10073728     Acpica:utexcep.obj
 0003:0000773c       $SG425                     1007373c     Acpica:utexcep.obj
 0003:00007750       $SG426                     10073750     Acpica:utexcep.obj
 0003:00007768       $SG427                     10073768     Acpica:utexcep.obj
 0003:00007784       $SG428                     10073784     Acpica:utexcep.obj
 0003:000077a0       $SG429                     100737a0     Acpica:utexcep.obj
 0003:000077c0       $SG430                     100737c0     Acpica:utexcep.obj
 0003:000077d8       $SG431                     100737d8     Acpica:utexcep.obj
 0003:000077ec       $SG432                     100737ec     Acpica:utexcep.obj
 0003:00007800       $SG433                     10073800     Acpica:utexcep.obj
 0003:00007818       $SG434                     10073818     Acpica:utexcep.obj
 0003:00007830       $SG435                     10073830     Acpica:utexcep.obj
 0003:00007840       $SG436                     10073840     Acpica:utexcep.obj
 0003:00007858       $SG437                     10073858     Acpica:utexcep.obj
 0003:00007868       $SG438                     10073868     Acpica:utexcep.obj
 0003:00007880       $SG439                     10073880     Acpica:utexcep.obj
 0003:00007894       $SG440                     10073894     Acpica:utexcep.obj
 0003:000078ac       $SG441                     100738ac     Acpica:utexcep.obj
 0003:000078c0       $SG442                     100738c0     Acpica:utexcep.obj
 0003:000078d4       $SG443                     100738d4     Acpica:utexcep.obj
 0003:000078e8       $SG444                     100738e8     Acpica:utexcep.obj
 0003:00007904       $SG445                     10073904     Acpica:utexcep.obj
 0003:00007924       $SG446                     10073924     Acpica:utexcep.obj
 0003:0000793c       $SG447                     1007393c     Acpica:utexcep.obj
 0003:00007954       $SG448                     10073954     Acpica:utexcep.obj
 0003:00007964       $SG449                     10073964     Acpica:utexcep.obj
 0003:00007978       $SG450                     10073978     Acpica:utexcep.obj
 0003:00007994       $SG451                     10073994     Acpica:utexcep.obj
 0003:000079b0       $SG452                     100739b0     Acpica:utexcep.obj
 0003:000079cc       $SG453                     100739cc     Acpica:utexcep.obj
 0003:000079e8       $SG454                     100739e8     Acpica:utexcep.obj
 0003:00007a00       $SG455                     10073a00     Acpica:utexcep.obj
 0003:00007a18       $SG458                     10073a18     Acpica:utexcep.obj
 0003:00007a30       $SG459                     10073a30     Acpica:utexcep.obj
 0003:00007a40       $SG460                     10073a40     Acpica:utexcep.obj
 0003:00007a54       $SG461                     10073a54     Acpica:utexcep.obj
 0003:00007a64       $SG462                     10073a64     Acpica:utexcep.obj
 0003:00007a74       $SG463                     10073a74     Acpica:utexcep.obj
 0003:00007a84       $SG464                     10073a84     Acpica:utexcep.obj
 0003:00007a90       $SG465                     10073a90     Acpica:utexcep.obj
 0003:00007aa4       $SG466                     10073aa4     Acpica:utexcep.obj
 0003:00007ab4       $SG467                     10073ab4     Acpica:utexcep.obj
 0003:00007ac8       $SG468                     10073ac8     Acpica:utexcep.obj
 0003:00007ad8       $SG469                     10073ad8     Acpica:utexcep.obj
 0003:00007af0       $SG470                     10073af0     Acpica:utexcep.obj
 0003:00007b08       $SG5390                    10073b08     Acpica:utexcep.obj
 0003:00007b28       $SG5391                    10073b28     Acpica:utexcep.obj
 0003:00007b3c       $SG5855                    10073b3c     Acpica:utstring.obj
 0003:00007b78       $SG5319                    10073b78     Acpica:utstate.obj
 0003:00007ba0       $SG6159                    10073ba0     Acpica:exmutex.obj
 0003:00007bd0       $SG6162                    10073bd0     Acpica:exmutex.obj
 0003:00007c14       $SG6192                    10073c14     Acpica:exmutex.obj
 0003:00007c40       $SG6195                    10073c40     Acpica:exmutex.obj
 0003:00007c70       $SG6200                    10073c70     Acpica:exmutex.obj
 0003:00007cb0       $SG6203                    10073cb0     Acpica:exmutex.obj
 0003:00007cf8       $SG6000                    10073cf8     Acpica:evgpeblk.obj
 0003:00007d28       $SG6006                    10073d28     Acpica:evgpeblk.obj
 0003:00007d54       _AcpiGbl_HexToAscii        10073d54     Acpica:uthex.obj
 0003:00007d64       $SG5307                    10073d64     Acpica:utmath.obj
 0003:00007d74       $SG5331                    10073d74     Acpica:utmath.obj
 0003:00007d84       $SG5833                    10073d84     Acpica:nspredef.obj
 0003:00007dc4       $SG5841                    10073dc4     Acpica:nspredef.obj
 0003:00007de8       $SG5846                    10073de8     Acpica:nspredef.obj
 0003:00007e18       $SG5848                    10073e18     Acpica:nspredef.obj
 0003:00007e5c       $SG5857                    10073e5c     Acpica:nspredef.obj
 0003:00007ea0       $SG6652                    10073ea0     Acpica:exresnte.obj
 0003:00007ec8       $SG6660                    10073ec8     Acpica:exresnte.obj
 0003:00007ee8       $SG6665                    10073ee8     Acpica:exresnte.obj
 0003:00007f08       $SG6670                    10073f08     Acpica:exresnte.obj
 0003:00007f28       $SG6674                    10073f28     Acpica:exresnte.obj
 0003:00007f48       $SG6679                    10073f48     Acpica:exresnte.obj
 0003:00007f70       $SG6688                    10073f70     Acpica:exresnte.obj
 0003:00007f90       $SG6691                    10073f90     Acpica:exresnte.obj
 0003:00007fb4       $SG5719                    10073fb4     Acpica:nsarguments.obj
 0003:00007ff0       $SG5732                    10073ff0     Acpica:nsarguments.obj
 0003:00008028       $SG5735                    10074028     Acpica:nsarguments.obj
 0003:00008074       $SG5737                    10074074     Acpica:nsarguments.obj
 0003:000080b0       $SG5740                    100740b0     Acpica:nsarguments.obj
 0003:000080e8       $SG5755                    100740e8     Acpica:nsarguments.obj
 0003:00008124       $SG5757                    10074124     Acpica:nsarguments.obj
 0003:00008164       $SG5760                    10074164     Acpica:nsarguments.obj
 0003:0000819c       $SG5762                    1007419c     Acpica:nsarguments.obj
 0003:000081d8       $SG5765                    100741d8     Acpica:nsarguments.obj
 0003:00008210       _UtRtypeNames              10074210     Acpica:utpredef.obj
 0003:00008224       $SG5302                    10074224     Acpica:utpredef.obj
 0003:00008230       $SG5303                    10074230     Acpica:utpredef.obj
 0003:00008238       $SG5304                    10074238     Acpica:utpredef.obj
 0003:00008240       $SG5305                    10074240     Acpica:utpredef.obj
 0003:0000824c       $SG5306                    1007424c     Acpica:utpredef.obj
 0003:00008258       $SG5336                    10074258     Acpica:utpredef.obj
 0003:00008260       $SG5752                    10074260     Acpica:nsalloc.obj
 0003:00008280       $SG5671                    10074280     Acpica:dswscope.obj
 0003:00008298       $SG5674                    10074298     Acpica:dswscope.obj
 0003:000082b4       $SG5758                    100742b4     Acpica:nssearch.obj
 0003:000082e4       $SG5954                    100742e4     Acpica:evgpeinit.obj
 0003:00008304       $SG5958                    10074304     Acpica:evgpeinit.obj
 0003:00008354       $SG5961                    10074354     Acpica:evgpeinit.obj
 0003:00008374       $SG5987                    10074374     Acpica:evgpeinit.obj
 0003:00008398       $SG5989                    10074398     Acpica:evgpeinit.obj
 0003:000083ac       $SG6051                    100743ac     Acpica:evgpeinit.obj
 0003:000083e4       $SG6121                    100743e4     Acpica:evglock.obj
 0003:0000841c       $SG6135                    1007441c     Acpica:evglock.obj
 0003:00008444       $SG6156                    10074444     Acpica:evglock.obj
 0003:00008484       $SG5571                    10074484     Acpica:hwregs.obj
 0003:000084a4       $SG5574                    100744a4     Acpica:hwregs.obj
 0003:000084cc       $SG5577                    100744cc     Acpica:hwregs.obj
 0003:000084f4       $SG5619                    100744f4     Acpica:hwregs.obj
 0003:00008514       $SG5647                    10074514     Acpica:hwregs.obj
 0003:00008530       $SG5671                    10074530     Acpica:hwregs.obj
 0003:0000854c       $SG6022                    1007454c     Acpica:evrgnini.obj
 0003:00008588       $SG6035                    10074588     Acpica:evrgnini.obj
 0003:00008590       $SG6045                    10074590     Acpica:evrgnini.obj
 0003:00008598       $SG6049                    10074598     Acpica:evrgnini.obj
 0003:000085a0       $SG6116                    100745a0     Acpica:evrgnini.obj
 0003:000085a8       $SG5887                    100745a8     Acpica:exregion.obj
 0003:000085c8       $SG5904                    100745c8     Acpica:exregion.obj
 0003:000085f8       $SG5504                    100745f8     Acpica:tbprint.obj
 0003:00008600       $SG5506                    10074600     Acpica:tbprint.obj
 0003:00008614       $SG5512                    10074614     Acpica:tbprint.obj
 0003:00008620       $SG5524                    10074620     Acpica:tbprint.obj
 0003:00008644       $SG5527                    10074644     Acpica:tbprint.obj
 0003:00008680       $SG5544                    10074680     Acpica:tbprint.obj
 0003:00008688       $SG5545                    10074688     Acpica:tbprint.obj
 0003:00008690       $SG5551                    10074690     Acpica:tbprint.obj
 0003:000086d8       _FadtInfoTable             100746d8     Acpica:tbfadt.obj
 0003:00008738       _FadtPmInfoTable           10074738     Acpica:tbfadt.obj
 0003:00008758       $SG5498                    10074758     Acpica:tbfadt.obj
 0003:00008768       $SG5526                    10074768     Acpica:tbfadt.obj
 0003:00008778       $SG5554                    10074778     Acpica:tbfadt.obj
 0003:0000878c       $SG5582                    1007478c     Acpica:tbfadt.obj
 0003:000087a0       $SG5610                    100747a0     Acpica:tbfadt.obj
 0003:000087b0       $SG5638                    100747b0     Acpica:tbfadt.obj
 0003:000087c0       $SG5666                    100747c0     Acpica:tbfadt.obj
 0003:000087cc       $SG5694                    100747cc     Acpica:tbfadt.obj
 0003:000087d8       $SG5812                    100747d8     Acpica:tbfadt.obj
 0003:000087e0       $SG5815                    100747e0     Acpica:tbfadt.obj
 0003:000087e8       $SG5825                    100747e8     Acpica:tbfadt.obj
 0003:00008838       $SG5854                    10074838     Acpica:tbfadt.obj
 0003:00008840       $SG5855                    10074840     Acpica:tbfadt.obj
 0003:00008848       $SG5892                    10074848     Acpica:tbfadt.obj
 0003:00008898       $SG5907                    10074898     Acpica:tbfadt.obj
 0003:000088c4       $SG5915                    100748c4     Acpica:tbfadt.obj
 0003:00008910       $SG5925                    10074910     Acpica:tbfadt.obj
 0003:00008958       $SG5781                    10074958     Acpica:tbfadt.obj
 0003:000089c8       $SG5801                    100749c8     Acpica:tbfadt.obj
 0003:00008a18       $SG5943                    10074a18     Acpica:tbfadt.obj
 0003:00008a4c       $SG5956                    10074a4c     Acpica:tbfadt.obj
 0003:00008a58       $SG5292                    10074a58     Acpica:hwvalid.obj
 0003:00008a5c       $SG5293                    10074a5c     Acpica:hwvalid.obj
 0003:00008a64       $SG5294                    10074a64     Acpica:hwvalid.obj
 0003:00008a6c       $SG5295                    10074a6c     Acpica:hwvalid.obj
 0003:00008a74       $SG5296                    10074a74     Acpica:hwvalid.obj
 0003:00008a78       $SG5297                    10074a78     Acpica:hwvalid.obj
 0003:00008a80       $SG5298                    10074a80     Acpica:hwvalid.obj
 0003:00008a88       $SG5299                    10074a88     Acpica:hwvalid.obj
 0003:00008a90       $SG5300                    10074a90     Acpica:hwvalid.obj
 0003:00008a98       $SG5301                    10074a98     Acpica:hwvalid.obj
 0003:00008aa0       $SG5302                    10074aa0     Acpica:hwvalid.obj
 0003:00008aa8       $SG5303                    10074aa8     Acpica:hwvalid.obj
 0003:00008ab0       $SG5304                    10074ab0     Acpica:hwvalid.obj
 0003:00008ab4       $SG5305                    10074ab4     Acpica:hwvalid.obj
 0003:00008abc       $SG5306                    10074abc     Acpica:hwvalid.obj
 0003:00008ac4       $SG5307                    10074ac4     Acpica:hwvalid.obj
 0003:00008acc       $SG5308                    10074acc     Acpica:hwvalid.obj
 0003:00008ad0       $SG5319                    10074ad0     Acpica:hwvalid.obj
 0003:00008af0       $SG5327                    10074af0     Acpica:hwvalid.obj
 0003:00008b24       $SG6403                    10074b24     Acpica:dsargs.obj
 0003:00008b5c       $SG6413                    10074b5c     Acpica:dsargs.obj
 0003:00008b8c       $SG6298                    10074b8c     Acpica:dsinit.obj
 0003:00008ba4       $SG6270                    10074ba4     Acpica:dsinit.obj
 0003:00008bcc       $SG5699                    10074bcc     Acpica:utownerid.obj
 0003:00008bf0       $SG5719                    10074bf0     Acpica:utownerid.obj
 0003:00008c2c       $SG5729                    10074c2c     Acpica:utownerid.obj
 0003:00008c48       $SG5735                    10074c48     Acpica:utownerid.obj
 0003:00008c74       $SG8101                    10074c74     Acpica:dsmethod.obj
 0003:00008ca4       $SG8107                    10074ca4     Acpica:dsmethod.obj
 0003:00008cf4       $SG8186                    10074cf4     Acpica:dsmethod.obj
 0003:00008d18       $SG8191                    10074d18     Acpica:dsmethod.obj
 0003:00008d60       $SG5585                    10074d60     Acpica:pstree.obj
 0003:00008d7c       $SG5577                    10074d7c     Acpica:psopinfo.obj
 0003:00008d94       $SG7216                    10074d94     Acpica:dsutils.obj
 0003:00008d9c       $SG7222                    10074d9c     Acpica:dsutils.obj
 0003:00008db8       $SG7263                    10074db8     Acpica:dsutils.obj
 0003:00008dc0       $SG7340                    10074dc0     Acpica:dsutils.obj
 0003:00008dd8       $SG7371                    10074dd8     Acpica:dsutils.obj
 0003:00008df0       $SG6311                    10074df0     Acpica:dswstate.obj
 0003:00008e0c       $SG6314                    10074e0c     Acpica:dswstate.obj
 0003:00008e30       $SG6317                    10074e30     Acpica:dswstate.obj
 0003:00008e50       $SG6321                    10074e50     Acpica:dswstate.obj
 0003:00008e7c       $SG6336                    10074e7c     Acpica:dswstate.obj
 0003:00008e94       $SG6341                    10074e94     Acpica:dswstate.obj
 0003:00008eb8       $SG6343                    10074eb8     Acpica:dswstate.obj
 0003:00008edc       $SG6346                    10074edc     Acpica:dswstate.obj
 0003:00008f00       $SG6349                    10074f00     Acpica:dswstate.obj
 0003:00008f24       $SG6359                    10074f24     Acpica:dswstate.obj
 0003:00008f4c       $SG6372                    10074f4c     Acpica:dswstate.obj
 0003:00008f6c       $SG6381                    10074f6c     Acpica:dswstate.obj
 0003:00008f9c       $SG6394                    10074f9c     Acpica:dswstate.obj
 0003:00008fd0       $SG6482                    10074fd0     Acpica:dswstate.obj
 0003:00008ff0       $SG6484                    10074ff0     Acpica:dswstate.obj
 0003:00009010       $SG6085                    10075010     Acpica:psloop.obj
 0003:00009038       $SG6086                    10075038     Acpica:psloop.obj
 0003:0000904c       $SG6008                    1007504c     Acpica:psloop.obj
 0003:00009098       $SG5999                    10075098     Acpica:utresrc.obj
 0003:000090dc       $SG6004                    100750dc     Acpica:utresrc.obj
 0003:00009114       $SG6007                    10075114     Acpica:utresrc.obj
 0003:00009168       $SG6346                    10075168     Acpica:rscreate.obj
 0003:0000919c       $SG6350                    1007519c     Acpica:rscreate.obj
 0003:000091c8       $SG6354                    100751c8     Acpica:rscreate.obj
 0003:000091f0       $SG6364                    100751f0     Acpica:rscreate.obj
 0003:00009228       $SG6377                    10075228     Acpica:rscreate.obj
 0003:0000925c       $SG6385                    1007525c     Acpica:rscreate.obj
 0003:0000928c       $SG5598                    1007528c     Acpica:evgpeutil.obj
 0003:000092c4       $SG5577                    100752c4     Acpica:hwgpe.obj
 0003:000092dc       $SG5881                    100752dc     Acpica:exsystem.obj
 0003:00009300       $SG6115                    10075300     Acpica:evgpe.obj
 0003:0000931c       $SG6120                    1007531c     Acpica:evgpe.obj
 0003:00009338       $SG6136                    10075338     Acpica:evgpe.obj
 0003:00009370       $SG6138                    10075370     Acpica:evgpe.obj
 0003:000093a4       $SG6085                    100753a4     Acpica:evgpe.obj
 0003:000093c8       $SG5806                    100753c8     Acpica:nsrepair2.obj
 0003:000093dc       $SG5827                    100753dc     Acpica:nsrepair2.obj
 0003:0000940c       $SG5877                    1007540c     Acpica:nsrepair2.obj
 0003:00009440       $SG5881                    10075440     Acpica:nsrepair2.obj
 0003:00009478       $SG5884                    10075478     Acpica:nsrepair2.obj
 0003:00009488       $SG5899                    10075488     Acpica:nsrepair2.obj
 0003:000094b0       $SG5928                    100754b0     Acpica:nsrepair2.obj
 0003:000094e4       $SG5943                    100754e4     Acpica:nsrepair2.obj
 0003:000094f4       $SG5952                    100754f4     Acpica:nsrepair2.obj
 0003:0000952c       $SG5963                    1007552c     Acpica:nsrepair2.obj
 0003:00009534       $SG5966                    10075534     Acpica:nsrepair2.obj
 0003:00009548       $SG5746                    10075548     Acpica:nsprepkg.obj
 0003:00009570       $SG5787                    10075570     Acpica:nsprepkg.obj
 0003:00009590       $SG5791                    10075590     Acpica:nsprepkg.obj
 0003:000095c0       $SG5793                    100755c0     Acpica:nsprepkg.obj
 0003:00009600       $SG5844                    10075600     Acpica:nsprepkg.obj
 0003:00009644       $SG6632                    10075644     Acpica:nsrepair.obj
 0003:00009664       $SG6634                    10075664     Acpica:nsrepair.obj
 0003:00009684       $SG6644                    10075684     Acpica:nsrepair.obj
 0003:000096ac       $SG6648                    100756ac     Acpica:nsrepair.obj
 0003:000096cc       $SG6363                    100756cc     Acpica:exfield.obj
 0003:00009710       $SG6372                    10075710     Acpica:exfield.obj
 0003:00009760       $SG6729                    10075760     Acpica:evxface.obj
 0003:00009788       $SG6747                    10075788     Acpica:evxface.obj
 0003:000097b0       $SG5389                    100757b0     Acpica:hwpci.obj
 0003:000097b8       $SG7430                    100757b8     Acpica:dsopcode.obj
 0003:000097dc       $SG7374                    100757dc     Acpica:dsopcode.obj
 0003:00009810       $SG7380                    10075810     Acpica:dsopcode.obj
 0003:00009834       $SG7391                    10075834     Acpica:dsopcode.obj
 0003:0000985c       $SG7404                    1007585c     Acpica:dsopcode.obj
 0003:00009884       $SG7409                    10075884     Acpica:dsopcode.obj
 0003:000098c0       $SG6657                    100758c0     Acpica:dsmthdat.obj
 0003:000098c8       $SG6665                    100758c8     Acpica:dsmthdat.obj
 0003:000098d0       $SG6709                    100758d0     Acpica:dsmthdat.obj
 0003:000098f4       $SG6713                    100758f4     Acpica:dsmthdat.obj
 0003:00009918       $SG6716                    10075918     Acpica:dsmthdat.obj
 0003:0000992c       $SG6744                    1007592c     Acpica:dsmthdat.obj
 0003:0000994c       $SG6758                    1007594c     Acpica:dsmthdat.obj
 0003:00009970       $SG6763                    10075970     Acpica:dsmthdat.obj
 0003:00009990       $SG6681                    10075990     Acpica:exresolv.obj
 0003:000099a8       $SG6688                    100759a8     Acpica:exresolv.obj
 0003:000099c0       $SG6732                    100759c0     Acpica:exresolv.obj
 0003:00009a00       $SG6735                    10075a00     Acpica:exresolv.obj
 0003:00009a38       $SG6744                    10075a38     Acpica:exresolv.obj
 0003:00009a5c       $SG6795                    10075a5c     Acpica:exresolv.obj
 0003:00009a7c       $SG6812                    10075a7c     Acpica:exresolv.obj
 0003:00009a9c       $SG6979                    10075a9c     Acpica:dsobject.obj
 0003:00009ad0       $SG7051                    10075ad0     Acpica:dsobject.obj
 0003:00009b1c       $SG7117                    10075b1c     Acpica:dsobject.obj
 0003:00009b3c       $SG7126                    10075b3c     Acpica:dsobject.obj
 0003:00009b84       $SG7128                    10075b84     Acpica:dsobject.obj
 0003:00009ba0       $SG7159                    10075ba0     Acpica:dsobject.obj
 0003:00009bd8       $SG7162                    10075bd8     Acpica:dsobject.obj
 0003:00009bf8       $SG6031                    10075bf8     Acpica:exnames.obj
 0003:00009c10       $SG5919                    10075c10     Acpica:exnames.obj
 0003:00009c2c       $SG5948                    10075c2c     Acpica:exnames.obj
 0003:00009c48       $SG5962                    10075c48     Acpica:exnames.obj
 0003:00009c6c       $SG6955                    10075c6c     Acpica:dswload.obj
 0003:00009cb8       $SG5618                    10075cb8     Acpica:psobject.obj
 0003:00009cd4       $SG5583                    10075cd4     Acpica:psobject.obj
 0003:00009d0c       _AcpiGbl_OpTypeDispatch    10075d0c     Acpica:dswexec.obj
 0003:00009d3c       $SG7204                    10075d3c     Acpica:dswexec.obj
 0003:00009d6c       $SG7209                    10075d6c     Acpica:dswexec.obj
 0003:00009d90       $SG7214                    10075d90     Acpica:dswexec.obj
 0003:00009dd0       $SG7267                    10075dd0     Acpica:dswexec.obj
 0003:00009de4       $SG7290                    10075de4     Acpica:dswexec.obj
 0003:00009e08       $SG7338                    10075e08     Acpica:dswexec.obj
 0003:00009e24       $SG7342                    10075e24     Acpica:dswexec.obj
 0003:00009e64       $SG5896                    10075e64     Acpica:rslist.obj
 0003:00009e84       $SG5905                    10075e84     Acpica:rslist.obj
 0003:00009ebc       $SG5908                    10075ebc     Acpica:rslist.obj
 0003:00009ee8       $SG6590                    10075ee8     Acpica:exfldio.obj
 0003:00009f0c       $SG6594                    10075f0c     Acpica:exfldio.obj
 0003:00009f30       $SG6545                    10075f30     Acpica:exfldio.obj
 0003:00009f54       $SG6548                    10075f54     Acpica:exfldio.obj
 0003:00009f80       $SG6567                    10075f80     Acpica:exfldio.obj
 0003:00009fd0       $SG6568                    10075fd0     Acpica:exfldio.obj
 0003:0000a028       $SG6684                    10076028     Acpica:exfldio.obj
 0003:0000a048       $SG6651                    10076048     Acpica:exfldio.obj
 0003:0000a06c       $SG6607                    1007606c     Acpica:exfldio.obj
 0003:0000a0a0       $SG6705                    100760a0     Acpica:exfldio.obj
 0003:0000a0d4       $SG6580                    100760d4     Acpica:exresop.obj
 0003:0000a0ec       $SG6588                    100760ec     Acpica:exresop.obj
 0003:0000a104       $SG6603                    10076104     Acpica:exresop.obj
 0003:0000a124       $SG6615                    10076124     Acpica:exresop.obj
 0003:0000a14c       $SG6618                    1007614c     Acpica:exresop.obj
 0003:0000a168       $SG6654                    10076168     Acpica:exresop.obj
 0003:0000a198       $SG6661                    10076198     Acpica:exresop.obj
 0003:0000a1c8       $SG6668                    100761c8     Acpica:exresop.obj
 0003:0000a1f8       $SG6678                    100761f8     Acpica:exresop.obj
 0003:0000a228       $SG6690                    10076228     Acpica:exresop.obj
 0003:0000a258       $SG6699                    10076258     Acpica:exresop.obj
 0003:0000a290       $SG6708                    10076290     Acpica:exresop.obj
 0003:0000a2c0       $SG6717                    100762c0     Acpica:exresop.obj
 0003:0000a2e8       $SG6729                    100762e8     Acpica:exresop.obj
 0003:0000a328       $SG6732                    10076328     Acpica:exresop.obj
 0003:0000a360       $SG6558                    10076360     Acpica:exresop.obj
 0003:0000a380       $SG6695                    10076380     Acpica:exprep.obj
 0003:0000a3a0       $SG6733                    100763a0     Acpica:exprep.obj
 0003:0000a3b0       $SG6736                    100763b0     Acpica:exprep.obj
 0003:0000a3d4       $SG6765                    100763d4     Acpica:exprep.obj
 0003:0000a3f8       $SG6694                    100763f8     Acpica:exstore.obj
 0003:0000a408       $SG6709                    10076408     Acpica:exstore.obj
 0003:0000a440       $SG6720                    10076440     Acpica:exstore.obj
 0003:0000a460       $SG6763                    10076460     Acpica:exstore.obj
 0003:0000a494       $SG6766                    10076494     Acpica:exstore.obj
 0003:0000a4bc       $SG7208                    100764bc     Acpica:dswload2.obj
 0003:0000a514       $SG7212                    10076514     Acpica:dswload2.obj
 0003:0000a560       $SG6363                    10076560     Acpica:excreate.obj
 0003:0000a58c       $SG6966                    1007658c     Acpica:dsfield.obj
 0003:0000a5c0       $SG7001                    100765c0     Acpica:dsfield.obj
 0003:0000a5f4       $SG7004                    100765f4     Acpica:dsfield.obj
 0003:0000a618       $SG6189                    10076618     Acpica:exoparg6.obj
 0003:0000a634       $SG6197                    10076634     Acpica:exoparg6.obj
 0003:0000a664       $SG6214                    10076664     Acpica:exoparg6.obj
 0003:0000a67c       $SG6152                    1007667c     Acpica:exoparg3.obj
 0003:0000a694       $SG6203                    10076694     Acpica:exoparg3.obj
 0003:0000a6ac       $SG6402                    100766ac     Acpica:exoparg2.obj
 0003:0000a6d0       $SG6405                    100766d0     Acpica:exoparg2.obj
 0003:0000a6e8       $SG6429                    100766e8     Acpica:exoparg2.obj
 0003:0000a700       $SG6498                    10076700     Acpica:exoparg2.obj
 0003:0000a738       $SG6500                    10076738     Acpica:exoparg2.obj
 0003:0000a750       $SG6538                    10076750     Acpica:exoparg2.obj
 0003:0000a768       $SG6922                    10076768     Acpica:exoparg1.obj
 0003:0000a780       $SG6952                    10076780     Acpica:exoparg1.obj
 0003:0000a798       $SG6967                    10076798     Acpica:exoparg1.obj
 0003:0000a7b0       $SG7021                    100767b0     Acpica:exoparg1.obj
 0003:0000a7d8       $SG7037                    100767d8     Acpica:exoparg1.obj
 0003:0000a80c       $SG7069                    1007680c     Acpica:exoparg1.obj
 0003:0000a830       $SG7072                    10076830     Acpica:exoparg1.obj
 0003:0000a848       $SG7112                    10076848     Acpica:exoparg1.obj
 0003:0000a86c       $SG7135                    1007686c     Acpica:exoparg1.obj
 0003:0000a8ac       $SG7201                    100768ac     Acpica:exoparg1.obj
 0003:0000a8e4       $SG7217                    100768e4     Acpica:exoparg1.obj
 0003:0000a910       $SG7220                    10076910     Acpica:exoparg1.obj
 0003:0000a928       $SG6117                    10076928     Acpica:exconvrt.obj
 0003:0000a958       $SG6122                    10076958     Acpica:exconvrt.obj
 0003:0000a990       $SG6333                    10076990     Acpica:dscontrol.obj
 0003:0000a9b0       $SG6349                    100769b0     Acpica:dscontrol.obj
 0003:0000a9d4       $SG5894                    100769d4     Acpica:rsmisc.obj
 0003:0000aa14       $SG6136                    10076a14     Acpica:rsmisc.obj
 0003:0000aa34       $SG6139                    10076a34     Acpica:rsmisc.obj
 0003:0000ab2c       $SG5870                    10076b2c     Acpica:exdebug.obj
 0003:0000ab30       $SG5871                    10076b30     Acpica:exdebug.obj
 0003:0000ab48       $SG5873                    10076b48     Acpica:exdebug.obj
 0003:0000ab50       $SG5875                    10076b50     Acpica:exdebug.obj
 0003:0000ab60       $SG5879                    10076b60     Acpica:exdebug.obj
 0003:0000ab64       $SG5881                    10076b64     Acpica:exdebug.obj
 0003:0000ab84       $SG5887                    10076b84     Acpica:exdebug.obj
 0003:0000ab8c       $SG5896                    10076b8c     Acpica:exdebug.obj
 0003:0000ab98       $SG5902                    10076b98     Acpica:exdebug.obj
 0003:0000aba8       $SG5905                    10076ba8     Acpica:exdebug.obj
 0003:0000abb4       $SG5907                    10076bb4     Acpica:exdebug.obj
 0003:0000abc4       $SG5909                    10076bc4     Acpica:exdebug.obj
 0003:0000abe0       $SG5914                    10076be0     Acpica:exdebug.obj
 0003:0000abe8       $SG5920                    10076be8     Acpica:exdebug.obj
 0003:0000abf0       $SG5922                    10076bf0     Acpica:exdebug.obj
 0003:0000ac04       $SG5924                    10076c04     Acpica:exdebug.obj
 0003:0000ac08       $SG5929                    10076c08     Acpica:exdebug.obj
 0003:0000ac2c       $SG5931                    10076c2c     Acpica:exdebug.obj
 0003:0000ac40       $SG5937                    10076c40     Acpica:exdebug.obj
 0003:0000ac48       $SG5939                    10076c48     Acpica:exdebug.obj
 0003:0000ac58       $SG5949                    10076c58     Acpica:exdebug.obj
 0003:0000ac5c       $SG5916                    10076c5c     Acpica:exstoren.obj
 0003:0000ac94       $SG5919                    10076c94     Acpica:exstoren.obj
 0003:0000acbc       $SG5949                    10076cbc     Acpica:exstoren.obj
 0003:0000ace0       $SG7168                    10076ce0     Acpica:exconfig.obj
 0003:0000acf8       $SG7247                    10076cf8     Acpica:exconfig.obj
 0003:0000ad10       $SG7272                    10076d10     Acpica:exconfig.obj
 0003:0000ad3c       $SG6242                    10076d3c     Acpica:exmisc.obj
 0003:0000ad5c       $SG6248                    10076d5c     Acpica:exmisc.obj
 0003:0000ad7c       $SG6310                    10076d7c     Acpica:exmisc.obj
 0003:0000ad98       $SG6344                    10076d98     Acpica:exmisc.obj
 0003:0000adb4       $SG5300                    10076db4     Acpica:utbuffer.obj
 0003:0000add8       $SG5306                    10076dd8     Acpica:utbuffer.obj
 0003:0000ade0       $SG5311                    10076de0     Acpica:utbuffer.obj
 0003:0000ade4       $SG5312                    10076de4     Acpica:utbuffer.obj
 0003:0000ade8       $SG5319                    10076de8     Acpica:utbuffer.obj
 0003:0000adf0       $SG5326                    10076df0     Acpica:utbuffer.obj
 0003:0000adf8       $SG5333                    10076df8     Acpica:utbuffer.obj
 0003:0000ae00       $SG5340                    10076e00     Acpica:utbuffer.obj
 0003:0000ae08       $SG5346                    10076e08     Acpica:utbuffer.obj
 0003:0000ae10       $SG5347                    10076e10     Acpica:utbuffer.obj
 0003:0000ae14       $SG5352                    10076e14     Acpica:utbuffer.obj
 0003:0000ae18       $SG5356                    10076e18     Acpica:utbuffer.obj
 0003:0000ae1c       $SG5358                    10076e1c     Acpica:utbuffer.obj
 0003:0000ae20       $SG5359                    10076e20     Acpica:utbuffer.obj
 0003:0000ae24       _UnhandledHandler          10076e24     Rtt32:Except.obj
 0003:0000ae28       $SG19491                   10076e28     Rtt32:Except.obj
 0003:0000ae58       $SG19492                   10076e58     Rtt32:Except.obj
 0003:0000ae60       $SG19529                   10076e60     Rtt32:Lcid.obj
 0003:0000aea0       _RTFBufferData             10076ea0     Init.obj
 0003:0002aea0       _RTFBufferTable            10096ea0     Init.obj
 0003:0002b6a0       _RTFDriveTable             100976a0     Init.obj
 0003:0002c5a0       _RTFFileTable              100985a0     Init.obj
 0003:0002d1a0       _IDE                       100991a0     Init.obj
 0003:0002d2c0       _SATA                      100992c0     Init.obj
 0003:0002d3e0       _AHCI                      100993e0     Init.obj
 0003:0002d4a0       _USBFloppy                 100994a0     Init.obj
 0003:0002d4f0       _USBDisks                  100994f0     Init.obj
 0003:0002d590       _CardReader                10099590     Init.obj
 0003:0002d6d0       _HubQ                      100996d0     Rtusb:Rtusb.obj
 0003:0002d6d4       _HubLock                   100996d4     Rtusb:Rtusb.obj
 0003:0002d6d8       _Drivers                   100996d8     Rtusb:Rtusb.obj
 0003:0002d818       _Lock                      10099818     Rtusb:Rtusb.obj
 0003:0002d81c       _DriverCount               1009981c     Rtusb:Rtusb.obj
 0003:0002d820       _HandleMap                 10099820     Rtusb:Rtusb.obj
 0003:0002d824       _?Next@?1??AllocHandleSlot@@9@9 10099824     Rtusb:Rtusb.obj
 0003:0002d828       _?Unique@?1??MakeNewPipeHandle@@9@9 10099828     Rtusb:Rtusb.obj
 0003:0002d82c       _UHCIRootPollHandler       1009982c     Rtusb:Rtusb.obj
 0003:0002d830       _Q                         10099830     Rtusb:Usbkb.obj
 0003:0002d834       _LEDQ                      10099834     Rtusb:Usbkb.obj
 0003:0002d838       _Data                      10099838     Rtusb:Usbkb.obj
 0003:0002d8c8       _DeviceData                100998c8     Rtusb:Xhci.obj
 0003:0002d8f0       _XHCICount                 100998f0     Rtusb:Xhci.obj
 0003:0002d8f4       _NullTRB                   100998f4     Rtusb:Xhci.obj
 0003:0002d8f8       _DeviceData                100998f8     Rtusb:Ehci.obj
 0003:0002d920       _EHCICount                 10099920     Rtusb:Ehci.obj
 0003:0002d924       _DeviceData                10099924     Rtusb:Uhci.obj
 0003:0002d94c       _UHCICount                 1009994c     Rtusb:Uhci.obj
 0003:0002d950       _DeviceData                10099950     Rtusb:Ohci.obj
 0003:0002d978       _OHCICount                 10099978     Rtusb:Ohci.obj
 0003:0002d97c       _PoolLock                  1009997c     Rtusb:Usbutil.obj
 0003:0002d980       _PageRoot                  10099980     Rtusb:Usbutil.obj
 0003:0002d984       _Pools                     10099984     Rtusb:Usbutil.obj
 0003:0002d9b4       _FreeBuffers               100999b4     Rtusb:Usbutil.obj
 0003:0002d9bc       _?Init@?1??_rtuMallocPhysMemAligned@@9@9 100999bc     Rtusb:Usbutil.obj
 0003:0002d9c0       _ControllerRC              100999c0     RtfilesX:Drvide.obj
 0003:0002dae0       _?HaveScanned@?1??ScanPCIIDE@@9@9 10099ae0     RtfilesX:Drvide.obj
 0003:0002dae8       _ControllerRC              10099ae8     RtfilesX:Drvahci.obj
 0003:0002dbf8       _Controllers               10099bf8     RtfilesX:Drvahci.obj
 0003:0002dbfc       _Zero                      10099bfc     RtfilesX:Drvahci.obj
 0003:0002dc00       _PeekBuffer                10099c00     RtfilesX:Rtfiles.obj
 0003:0002dc04       _DefaultDrive              10099c04     RtfilesX:Rtfiles.obj
 0003:0002dc08       _RTFLock                   10099c08     RtfilesX:Rtfiles.obj
 0003:0002dc0c       _OpenFlags                 10099c0c     RtfilesX:Rtfiles.obj
 0003:0002dc10       _Unique                    10099c10     RtfilesX:Rtfiles.obj
 0003:0002dc14       _UnicodeMap1252            10099c14     RtfilesX:Rtfiles.obj
 0003:0002dc18       _UnicodeUpper              10099c18     RtfilesX:Rtfiles.obj
 0003:0002dc20       _BufferStat                10099c20     RtfilesX:Rtfiles.obj
 0003:0002dc54       _FirstDiskBuffer           10099c54     RtfilesX:Rtfiles.obj
 0003:0002dc58       _?TimeStamp@?1??RTFMakeTempFileName@@9@9 10099c58     RtfilesX:Rtfiles.obj
 0003:0002dc5c       $SG6269                    10099c5c     RtfilesX:Rtfiles.obj
 0003:0002dc60       $SG6748                    10099c60     RtfilesX:Rtfiles.obj
 0003:0002dc64       $SG7102                    10099c64     RtfilesX:Rtfiles.obj
 0003:0002dc68       _?Inc@?1??MakeGUID@@9@9    10099c68     RtfilesX:Rtfgpt.obj
 0003:0002dc6c       _TimerInterval             10099c6c     Rtfsk32:Sysrtk32.obj
 0003:0002dc70       _TimerCallback             10099c70     Rtfsk32:Sysrtk32.obj
 0003:0002dc74       _RTFTimerTaskHandle        10099c74     Rtfsk32:Sysrtk32.obj
 0003:0002dc78       _LastSwitchTime            10099c78     Rtk32:Kernel.obj
 0003:0002dc80       _DefaultIntState           10099c80     Rtk32:Kernel.obj
 0003:0002dc90       _ExitTaskStack             10099c90     Rtk32:Kernel.obj
 0003:0002dc94       _SourceString              10099c94     Rtk32:Kernel.obj
 0003:0002dcbc       _ExitTaskName              10099cbc     Rtk32:Kernel.obj
 0003:0002dcc0       _ExitTaskFlags             10099cc0     Rtk32:Kernel.obj
 0003:0002dcc4       _Initialized               10099cc4     Rtk32:Kernel.obj
 0003:0002dcc8       _MathTask                  10099cc8     Rtk32:Kernel.obj
 0003:0002dccc       _LastScheduleTime          10099ccc     Rtk32:Kernel.obj
 0003:0002dcd0       _TimeSliceTicks            10099cd0     Rtk32:Kernel.obj
 0003:0002dcd8       _InitFPData                10099cd8     Rtk32:Kernel.obj
 0003:0002dd68       _UserHook                  10099d68     Rtk32:Kernel.obj
 0003:0002dd6c       _InError                   10099d6c     Rtk32:Kernel.obj
 0003:0002dd70       _ExitTaskHandle            10099d70     Rtk32:Kernel.obj
 0003:0002dd74       _hin                       10099d74     Rtk32:Rtkeybrd.obj
 0003:0002dd78       _KeyboardBuffer            10099d78     Rtk32:Rtkeybrd.obj
 0003:0002dd7c       _HandlerIdx                10099d7c     Rtk32:Shareint.obj
 0003:0002ddfc       _HData                     10099dfc     Rtk32:Shareint.obj
 0003:0002de7c       _Handlers                  10099e7c     Rtk32:Shareint.obj
 0003:0002defc       _UserDataIndex             10099efc     Rtk32:Userdata.obj
 0003:0002df00       _ThreadHT                  10099f00     Rtk32:Rtwin32.obj
 0003:0002df04       _SemaHT                    10099f04     Rtk32:Rtwin32.obj
 0003:0002df08       _EventHT                   10099f08     Rtk32:Rtwin32.obj
 0003:0002df0c       _MutexHT                   10099f0c     Rtk32:Rtwin32.obj
 0003:0002df10       _WTimerHT                  10099f10     Rtk32:Rtwin32.obj
 0003:0002df14       _OrgHook                   10099f14     Rtk32:Rtwin32.obj
 0003:0002df18       _Init                      10099f18     Rtk32:Rtwin32.obj
 0003:0002df20       _APCLock                   10099f20     Rtk32:Rtwin32.obj
 0003:0002df38       _TimerLock                 10099f38     Rtk32:Rtwin32.obj
 0003:0002df50       _TimerAlert                10099f50     Rtk32:Rtwin32.obj
 0003:0002df54       _TimerManager              10099f54     Rtk32:Rtwin32.obj
 0003:0002df58       _?TickHigh32Bits@?1??GetTickCount@@9@9 10099f58     Rtk32:Rtwin32.obj
 0003:0002df5c       _?LastGetTickCountCall@?1??GetTickCount@@9@9 10099f5c     Rtk32:Rtwin32.obj
 0003:0002df64       _MainTEB                   10099f64     Drvrt32:Sysrt32.obj
 0003:0002df68       _LDTLock                   10099f68     Drvrt32:Sysrt32.obj
 0003:0002df6c       _TLSDir                    10099f6c     Drvrt32:Sysrt32.obj
 0003:0002df70       _LDTSize                   10099f70     Drvrt32:Sysrt32.obj
 0003:0002df74       _LDT                       10099f74     Drvrt32:Sysrt32.obj
 0003:0002df7c       _UsedList                  10099f7c     Drvrt32:Stheap.obj
 0003:0002df80       _FreeList                  10099f80     Drvrt32:Stheap.obj
 0003:0002df84       _Lock                      10099f84     Drvrt32:Stheap.obj
 0003:0002df88       _Init                      10099f88     Drvrt32:Stheap.obj
 0003:0002ef90       _ada_cth                   1009af90     Rtt32:System.obj
 0003:0002efa4       _ExitHandler               1009afa4     Rtt32:System.obj
 0003:0002efa8       _Events                    1009afa8     Rtt32:Conin.obj
 0003:0002f4bc       _MI                        1009b4bc     Rtt32:Screen.obj
 0003:0002f4c0       _PixelsPerScanLine         1009b4c0     Rtt32:Screen.obj
 0003:0002f4c4       _FrameBuffer               1009b4c4     Rtt32:Screen.obj
 0003:0002f4d4       _ColOfs                    1009b4d4     Rtt32:Screen.obj
 0003:0002f4d8       _RowOfs                    1009b4d8     Rtt32:Screen.obj
 0003:0002f4dc       _UserMPTableSize           1009b4dc     Rtt32:Mp.obj
 0003:0002f4e0       _IOAPIC_BIOS_IDs           1009b4e0     Rtt32:Mp.obj
 0003:0002f4e4       _?HaltTime@?1??MPDebugHandler@@9@9 1009b4e4     Rtt32:Mp.obj
 0003:0002f4ec       _?Max@?1??RTMPSendIPInterrupt@@9@9 1009b4ec     Rtt32:Mp.obj
 0003:0002f4f0       _APIC_IDs                  1009b4f0     Rtt32:Mp.obj
 0003:0002f518       _APICFlags                 1009b518     Rtt32:Mp.obj
 0003:0002f51c       _CPUs                      1009b51c     Rtt32:Mp.obj
 0003:0002f520       _BootCPU                   1009b520     Rtt32:Mp.obj
 0003:0002f524       _RunningCPUMAP             1009b524     Rtt32:Mp.obj
 0003:0002f528       _IoApics                   1009b528     Rtt32:Mp.obj
 0003:0002f52c       _ChangedIRQs               1009b52c     Rtt32:Mp.obj
 0003:0002f530       _IRQMap                    1009b530     Rtt32:Mp.obj
 0003:0002f730       _?TSSLIST@?1??RTMPStartCPU@@9@9 1009b730     Rtt32:Mp.obj
 0003:0002f7b0       _?ap_data@?1??RTMPStartCPU@@9@9 1009b7b0     Rtt32:Mp.obj
 0003:0002f7b4       _?TimerModes@?1??RTMPInitAPICTimer@@9@9 1009b7b4     Rtt32:Mp.obj
 0003:0002f838       _Lock                      1009b838     Rtt32:Rttbios.obj
 0003:0002f850       _NotPresent                1009b850     Rtt32:Rttbios.obj
 0003:0002f8d0       _PMMIO                     1009b8d0     Rtt32:Rttbios.obj
 0003:0002f950       _MMIO                      1009b950     Rtt32:Rttbios.obj
 0003:0002f9d0       _?ComposeLocale@?N@??RTInsertKeyboardScanCode@@9@9 1009b9d0     Rtt32:Keybrd.obj
 0003:0002f9d4       _?ComposeValue@?N@??RTInsertKeyboardScanCode@@9@9 1009b9d4     Rtt32:Keybrd.obj
 0003:0002f9d8       _?Max@?1??SendToKeyboard@@9@9 1009b9d8     Rtt32:Keybrd.obj
 0003:0002f9dc       _?LastScanCode@?1??RTInsertKeyboardScanCode@@9@9 1009b9dc     Rtt32:Keybrd.obj
 0003:0002f9dd       _?GlobalEnhanced@?1??RTInsertKeyboardScanCode@@9@9 1009b9dd     Rtt32:Keybrd.obj
 0003:0002f9de       _?CombineKey@?BB@??RTInsertKeyboardScanCode@@9@9 1009b9de     Rtt32:Keybrd.obj
 0003:0002f9e0       _?Max2@?1??SendToKeyboard@@9@9 1009b9e0     Rtt32:Keybrd.obj
 0003:0002f9e4       _?Max1@?1??SendToKeyboard@@9@9 1009b9e4     Rtt32:Keybrd.obj
 0003:0002f9e8       _ScanCodes                 1009b9e8     Rtt32:Keybrd.obj
 0003:0002fa14       _Initialized               1009ba14     Rtt32:Keybrd.obj
 0003:0002fa20       _MaxObjects                1009ba20     Rtt32:Handles.obj
 0003:0002fa28       _Lock                      1009ba28     Rtt32:Handles.obj
 0003:0002fa40       _RTDLLNames                1009ba40     Rtt32:Loadl.obj
 0003:0002fb40       _RTDLLTable                1009bb40     Rtt32:Loadl.obj
 0003:00030140       _DLLNameTable              1009c140     Rtt32:Loadl.obj
 0003:00030144       _SysModule                 1009c144     Rtt32:Loadl.obj
 0003:00030148       $SG19955                   1009c148     Rtt32:Loadl.obj
 0003:00030150       _LastTimeUpdate            1009c150     Rtt32:Systime.obj
 0003:00030158       _TimeLock                  1009c158     Rtt32:Systime.obj
 0003:00030170       _SMIEntryPoint             1009c170     Rtt32:Smi.obj
 0003:00030174       _SMITable                  1009c174     Rtt32:Smi.obj
 0003:000301b4       _IsInit                    1009c1b4     Rtt32:Conout.obj
 0003:000301b8       _ShadowVideoRAM            1009c1b8     Rtt32:Conout.obj
 0003:000301c0       _CrtBase                   1009c1c0     Rtt32:Conout.obj
 0003:000301c8       _BiosData                  1009c1c8     Rtt32:Biosdata.obj
 0003:00030690       _IsInit                    1009c690     Rtt32:Biosdata.obj
 0003:00030694       _?OrgAccess@?1??_rttAccessPageTable@@9@9 1009c694     Rtt32:Mapping.obj
 0003:00030698       __rttPageTableLimit        1009c698     Rtt32:Mapping.obj
 0003:0003069c       __rttNextPage              1009c69c     Rtt32:Mapping.obj
 0003:000306a0       _Lock                      1009c6a0     Rtt32:Valloc.obj
 0003:000306b8       _SmallBlockWaterMark       1009c6b8     Rtt32:Valloc.obj
 0003:000306bc       _LargeBlockWaterMark       1009c6bc     Rtt32:Valloc.obj
 0003:000306c0       _FreePhysWaterMark         1009c6c0     Rtt32:Valloc.obj
 0003:000306c4       _ConfTable                 1009c6c4     Rtt32:Uefitables.obj
 0003:000306c8       _ConfEntrySize             1009c6c8     Rtt32:Uefitables.obj
 0003:000306cc       _NumberOfTableEntries      1009c6cc     Rtt32:Uefitables.obj
 0003:000306d0       _IOAPICs                   1009c6d0     Rtt32:Mpacpi.obj
 0003:000306d4       _PCIBusses                 1009c6d4     Rtt32:Mpacpi.obj
 0003:000306d8       _PCIBusNumber              1009c6d8     Rtt32:Mpacpi.obj
 0003:000306f8       _IOAPICId                  1009c6f8     Rtt32:Mpacpi.obj
 0003:00030708       _PCIBusObjects             1009c708     Rtt32:Mpacpi.obj
 0003:00030788       _Table                     1009c788     Rtt32:Mptable.obj
 0003:00030f88       _?rsdp@?1??RTACPIGetStructure@@9@9 1009cf88     Rtt32:Acpi.obj
 0003:00030f8c       _?fadt@?1??RTACPIGetStructure@@9@9 1009cf8c     Rtt32:Acpi.obj
 0003:00030f90       _?rsdt@?1??RTACPIGetStructure@@9@9 1009cf90     Rtt32:Acpi.obj
 0003:00030f94       _?xsdt@?1??RTACPIGetStructure@@9@9 1009cf94     Rtt32:Acpi.obj
 0003:00030f98       _PortType                  1009cf98     Rtt32:Pport.obj
 0003:000313a8       _DefaultFSystem            1009d3a8     Rtt32:Files.obj
 0003:000313b0       _PhysMemHeap               1009d3b0     Rtt32:Heap.obj
 0003:000313b8       _Str1                      1009d3b8     Rtt32:Wchar.obj
 0003:000314c0       _Lock                      1009d4c0     Rtt32:Wchar.obj
 0003:000314d8       _FDa                       1009d4d8     Rtt32:Wchar.obj
 0003:00031618       ?__proc_attached@@3HA      1009d618     Libcmt:dll_dllmain.obj
 0003:00031624       ?module_local_atexit_table@@3U_onexit_table_t@@A 1009d624     Libcmt:utility.obj
 0003:00031630       ?module_local_at_quick_exit_table@@3U_onexit_table_t@@A 1009d630     Libcmt:utility.obj
 0003:0003163c       ?is_initialized_as_dll@@3_NA 1009d63c     Libcmt:utility.obj
 0003:00031660       _GS_ExceptionRecord        1009d660     Libcmt:gs_report.obj
 0003:000316b0       _GS_ContextRecord          1009d6b0     Libcmt:gs_report.obj
 0003:0003197c       ?__vcrt_startup_thread_ptd@@3U__vcrt_ptd@@A 1009d97c     libvcruntime:per_thread_data.obj
 0003:000319a4       ___vcrt_lock_table         1009d9a4     libvcruntime:locks.obj
 0003:000319bc       ___vcrt_locks_initialized  1009d9bc     libvcruntime:locks.obj
 0003:000319c0       ?module_handles@@3PAPAUHINSTANCE__@@A 1009d9c0     libvcruntime:winapi_downlevel.obj
 0003:000319d0       ?encoded_function_pointers@@3PAPAXA 1009d9d0     libvcruntime:winapi_downlevel.obj
 0003:00031a20       ?heap@@3V_HeapManager@@A   1009da20     libvcruntime:undname.obj
 0003:00031a34       ?c_termination_complete@@3JA 1009da34     libucrt:exit.obj
 0003:00031a38       ?thread_local_exit_callback_func@@3P6GXPAXK0@ZA 1009da38     libucrt:exit.obj
 0003:00031a40       ?program_name@?1???$common_configure_argv@D@@YAHW4_crt_argv_mode@@@Z@4PADA 1009da40     libucrt:argv_parsing.obj
 0003:00031b70       ?__acrt_invalid_parameter_handler@@3V?$dual_state_global@P6AXPB_W00II@Z@__crt_state_management@@A 1009db70     libucrt:invalid_parameter.obj
 0003:00031b7c       ?enable_percent_n@@3IA     1009db7c     libucrt:printf_count_output.obj
 0003:00031d98       ?__acrt_lock_table@@3PAU_RTL_CRITICAL_SECTION@@A 1009dd98     libucrt:locks.obj
 0003:00031ee8       ?__acrt_locks_initialized@@3IA 1009dee8     libucrt:locks.obj
 0003:00031eec       ?state_cache@?1???$get_cached_win_policy@Ubegin_thread_init_policy_properties@?1??__acrt_get_begin_thread_init_policy@@YA?AW4begin_thread_init_policy@@XZ@@@YA?AW4begin_thread_init_policy@@W4AppPolicyThreadInitializationType@@@Z@4JA 1009deec     libucrt:win_policies.obj
 0003:00031ef0       ?module_handles@@3PAPAUHINSTANCE__@@A 1009def0     libucrt:winapi_thunks.obj
 0003:00031f40       ?encoded_function_pointers@@3PAPAXA 1009df40     libucrt:winapi_thunks.obj
 0003:00031fd4       ?fSystemSet@@3HA           1009dfd4     libucrt:mbctype.obj
 0003:00031fd8       ?initialized@?1??__acrt_initialize_multibyte@@9@4_NA 1009dfd8     libucrt:mbctype.obj
 0003:00031ff8       ?__acrt_new_handler@@3V?$dual_state_global@P6AHI@Z@__crt_state_management@@A 1009dff8     libucrt:new_handler.obj
 0003:00031ffc       ?ctrlc_action@@3V?$dual_state_global@P6AXH@Z@__crt_state_management@@A 1009dffc     libucrt:signal.obj
 0003:00032000       ?ctrlbreak_action@@3V?$dual_state_global@P6AXH@Z@__crt_state_management@@A 1009e000     libucrt:signal.obj
 0003:00032004       ?abort_action@@3V?$dual_state_global@P6AXH@Z@__crt_state_management@@A 1009e004     libucrt:signal.obj
 0003:00032008       ?term_action@@3V?$dual_state_global@P6AXH@Z@__crt_state_management@@A 1009e008     libucrt:signal.obj
 0003:0003200c       ?user_matherr@@3V?$dual_state_global@P6AHPAU_exception@@@Z@__crt_state_management@@A 1009e00c     libucrt:matherr.obj
 0003:00032010       ?__acrt_global_new_mode@@3V?$dual_state_global@J@__crt_state_management@@A 1009e010     libucrt:new_mode.obj
 0003:0003201c       ?__acrt_app_type@@3W4_crt_app_type@@A 1009e01c     libucrt:report_runtime_error.obj
 0003:00032024       __pmatherr_set             1009e024     libucrt:libm_error.obj
 0003:00032028       _LastContext               1009e028     Acpica:osontime.obj
 0003:0003202c       _HeapHandle                1009e02c     Acpica:osontime.obj
 0003:00032048       $SG6216                    1009e048     Acpica:nsaccess.obj
 0004:00000000       __guard_fids_?dllmain_crt_process_attach@@YAHQAUHINSTANCE__@@QAX@Z 1009f000     Libcmt:dll_dllmain.obj
 0004:00000008       __guard_fids_?dllmain_dispatch@@YAHQAUHINSTANCE__@@KQAX@Z 1009f008     Libcmt:dll_dllmain.obj
 0004:0000000c       __guard_fids__             1009f00c     Libcmt:guard_support.obj
 0004:00000010       __guard_fids____vcrt_initialize_ptd 1009f010     libvcruntime:per_thread_data.obj
 0004:00000014       __guard_fids___beginthreadex 1009f014     libucrt:thread.obj
 0004:00000018       __guard_fids____dcrt_uninitialize_environments_nolock 1009f018     libucrt:environment_initialization.obj
 0004:00000020       __guard_fids__             1009f020     libucrt:initialization.obj
 0004:00000080       __guard_fids____acrt_initialize_ptd 1009f080     libucrt:per_thread_data.obj
 0004:00000084       __guard_fids_??$expand_argument_wildcards@D@@YAHQAD0AAV?$argument_list@D@?A0x5f5c8891@@@Z 1009f084     libucrt:argv_wildcards.obj
 0004:00000088       __guard_fids__             1009f088     libucrt:stdio_initializer.obj
 0004:0000008c       __guard_fids__             1009f08c     libucrt:stdio_initializer.obj
 0004:00000090       __guard_fids__             1009f090     libucrt:locale_initializer.obj
 0004:00000094       __guard_fids__             1009f094     libucrt:multibyte_initializer.obj
 0004:00000098       __guard_fids____libm_error_support 1009f098     libucrt:libm_error.obj
 0004:0000009c       __guard_fids__             1009f09c     libucrt:sse2_initializer.obj
 0004:000000a0       __guard_fids__             1009f0a0     libucrt:console_output_initializer.obj
